
ctarget:     file format elf64-x86-64


Disassembly of section .init:

0000000000400c48 <_init>:
  400c48:	48 83 ec 08          	sub    $0x8,%rsp
  400c4c:	48 8b 05 a5 33 20 00 	mov    0x2033a5(%rip),%rax        # 603ff8 <_DYNAMIC+0x1d8>
  400c53:	48 85 c0             	test   %rax,%rax
  400c56:	74 02                	je     400c5a <_init+0x12>
  400c58:	ff d0                	callq  *%rax
  400c5a:	48 83 c4 08          	add    $0x8,%rsp
  400c5e:	c3                   	retq   

Disassembly of section .plt:

0000000000400c60 <strcasecmp@plt-0x10>:
  400c60:	ff 35 a2 33 20 00    	pushq  0x2033a2(%rip)        # 604008 <_GLOBAL_OFFSET_TABLE_+0x8>
  400c66:	ff 25 a4 33 20 00    	jmpq   *0x2033a4(%rip)        # 604010 <_GLOBAL_OFFSET_TABLE_+0x10>
  400c6c:	0f 1f 40 00          	nopl   0x0(%rax)

0000000000400c70 <strcasecmp@plt>:
  400c70:	ff 25 a2 33 20 00    	jmpq   *0x2033a2(%rip)        # 604018 <_GLOBAL_OFFSET_TABLE_+0x18>
  400c76:	68 00 00 00 00       	pushq  $0x0
  400c7b:	e9 e0 ff ff ff       	jmpq   400c60 <_init+0x18>

0000000000400c80 <__errno_location@plt>:
  400c80:	ff 25 9a 33 20 00    	jmpq   *0x20339a(%rip)        # 604020 <_GLOBAL_OFFSET_TABLE_+0x20>
  400c86:	68 01 00 00 00       	pushq  $0x1
  400c8b:	e9 d0 ff ff ff       	jmpq   400c60 <_init+0x18>

0000000000400c90 <srandom@plt>:
  400c90:	ff 25 92 33 20 00    	jmpq   *0x203392(%rip)        # 604028 <_GLOBAL_OFFSET_TABLE_+0x28>
  400c96:	68 02 00 00 00       	pushq  $0x2
  400c9b:	e9 c0 ff ff ff       	jmpq   400c60 <_init+0x18>

0000000000400ca0 <strncmp@plt>:
  400ca0:	ff 25 8a 33 20 00    	jmpq   *0x20338a(%rip)        # 604030 <_GLOBAL_OFFSET_TABLE_+0x30>
  400ca6:	68 03 00 00 00       	pushq  $0x3
  400cab:	e9 b0 ff ff ff       	jmpq   400c60 <_init+0x18>

0000000000400cb0 <strcpy@plt>:
  400cb0:	ff 25 82 33 20 00    	jmpq   *0x203382(%rip)        # 604038 <_GLOBAL_OFFSET_TABLE_+0x38>
  400cb6:	68 04 00 00 00       	pushq  $0x4
  400cbb:	e9 a0 ff ff ff       	jmpq   400c60 <_init+0x18>

0000000000400cc0 <puts@plt>:
  400cc0:	ff 25 7a 33 20 00    	jmpq   *0x20337a(%rip)        # 604040 <_GLOBAL_OFFSET_TABLE_+0x40>
  400cc6:	68 05 00 00 00       	pushq  $0x5
  400ccb:	e9 90 ff ff ff       	jmpq   400c60 <_init+0x18>

0000000000400cd0 <write@plt>:
  400cd0:	ff 25 72 33 20 00    	jmpq   *0x203372(%rip)        # 604048 <_GLOBAL_OFFSET_TABLE_+0x48>
  400cd6:	68 06 00 00 00       	pushq  $0x6
  400cdb:	e9 80 ff ff ff       	jmpq   400c60 <_init+0x18>

0000000000400ce0 <__stack_chk_fail@plt>:
  400ce0:	ff 25 6a 33 20 00    	jmpq   *0x20336a(%rip)        # 604050 <_GLOBAL_OFFSET_TABLE_+0x50>
  400ce6:	68 07 00 00 00       	pushq  $0x7
  400ceb:	e9 70 ff ff ff       	jmpq   400c60 <_init+0x18>

0000000000400cf0 <mmap@plt>:
  400cf0:	ff 25 62 33 20 00    	jmpq   *0x203362(%rip)        # 604058 <_GLOBAL_OFFSET_TABLE_+0x58>
  400cf6:	68 08 00 00 00       	pushq  $0x8
  400cfb:	e9 60 ff ff ff       	jmpq   400c60 <_init+0x18>

0000000000400d00 <memset@plt>:
  400d00:	ff 25 5a 33 20 00    	jmpq   *0x20335a(%rip)        # 604060 <_GLOBAL_OFFSET_TABLE_+0x60>
  400d06:	68 09 00 00 00       	pushq  $0x9
  400d0b:	e9 50 ff ff ff       	jmpq   400c60 <_init+0x18>

0000000000400d10 <alarm@plt>:
  400d10:	ff 25 52 33 20 00    	jmpq   *0x203352(%rip)        # 604068 <_GLOBAL_OFFSET_TABLE_+0x68>
  400d16:	68 0a 00 00 00       	pushq  $0xa
  400d1b:	e9 40 ff ff ff       	jmpq   400c60 <_init+0x18>

0000000000400d20 <close@plt>:
  400d20:	ff 25 4a 33 20 00    	jmpq   *0x20334a(%rip)        # 604070 <_GLOBAL_OFFSET_TABLE_+0x70>
  400d26:	68 0b 00 00 00       	pushq  $0xb
  400d2b:	e9 30 ff ff ff       	jmpq   400c60 <_init+0x18>

0000000000400d30 <read@plt>:
  400d30:	ff 25 42 33 20 00    	jmpq   *0x203342(%rip)        # 604078 <_GLOBAL_OFFSET_TABLE_+0x78>
  400d36:	68 0c 00 00 00       	pushq  $0xc
  400d3b:	e9 20 ff ff ff       	jmpq   400c60 <_init+0x18>

0000000000400d40 <signal@plt>:
  400d40:	ff 25 3a 33 20 00    	jmpq   *0x20333a(%rip)        # 604080 <_GLOBAL_OFFSET_TABLE_+0x80>
  400d46:	68 0d 00 00 00       	pushq  $0xd
  400d4b:	e9 10 ff ff ff       	jmpq   400c60 <_init+0x18>

0000000000400d50 <gethostbyname@plt>:
  400d50:	ff 25 32 33 20 00    	jmpq   *0x203332(%rip)        # 604088 <_GLOBAL_OFFSET_TABLE_+0x88>
  400d56:	68 0e 00 00 00       	pushq  $0xe
  400d5b:	e9 00 ff ff ff       	jmpq   400c60 <_init+0x18>

0000000000400d60 <__memmove_chk@plt>:
  400d60:	ff 25 2a 33 20 00    	jmpq   *0x20332a(%rip)        # 604090 <_GLOBAL_OFFSET_TABLE_+0x90>
  400d66:	68 0f 00 00 00       	pushq  $0xf
  400d6b:	e9 f0 fe ff ff       	jmpq   400c60 <_init+0x18>

0000000000400d70 <strtol@plt>:
  400d70:	ff 25 22 33 20 00    	jmpq   *0x203322(%rip)        # 604098 <_GLOBAL_OFFSET_TABLE_+0x98>
  400d76:	68 10 00 00 00       	pushq  $0x10
  400d7b:	e9 e0 fe ff ff       	jmpq   400c60 <_init+0x18>

0000000000400d80 <memcpy@plt>:
  400d80:	ff 25 1a 33 20 00    	jmpq   *0x20331a(%rip)        # 6040a0 <_GLOBAL_OFFSET_TABLE_+0xa0>
  400d86:	68 11 00 00 00       	pushq  $0x11
  400d8b:	e9 d0 fe ff ff       	jmpq   400c60 <_init+0x18>

0000000000400d90 <time@plt>:
  400d90:	ff 25 12 33 20 00    	jmpq   *0x203312(%rip)        # 6040a8 <_GLOBAL_OFFSET_TABLE_+0xa8>
  400d96:	68 12 00 00 00       	pushq  $0x12
  400d9b:	e9 c0 fe ff ff       	jmpq   400c60 <_init+0x18>

0000000000400da0 <random@plt>:
  400da0:	ff 25 0a 33 20 00    	jmpq   *0x20330a(%rip)        # 6040b0 <_GLOBAL_OFFSET_TABLE_+0xb0>
  400da6:	68 13 00 00 00       	pushq  $0x13
  400dab:	e9 b0 fe ff ff       	jmpq   400c60 <_init+0x18>

0000000000400db0 <_IO_getc@plt>:
  400db0:	ff 25 02 33 20 00    	jmpq   *0x203302(%rip)        # 6040b8 <_GLOBAL_OFFSET_TABLE_+0xb8>
  400db6:	68 14 00 00 00       	pushq  $0x14
  400dbb:	e9 a0 fe ff ff       	jmpq   400c60 <_init+0x18>

0000000000400dc0 <__isoc99_sscanf@plt>:
  400dc0:	ff 25 fa 32 20 00    	jmpq   *0x2032fa(%rip)        # 6040c0 <_GLOBAL_OFFSET_TABLE_+0xc0>
  400dc6:	68 15 00 00 00       	pushq  $0x15
  400dcb:	e9 90 fe ff ff       	jmpq   400c60 <_init+0x18>

0000000000400dd0 <munmap@plt>:
  400dd0:	ff 25 f2 32 20 00    	jmpq   *0x2032f2(%rip)        # 6040c8 <_GLOBAL_OFFSET_TABLE_+0xc8>
  400dd6:	68 16 00 00 00       	pushq  $0x16
  400ddb:	e9 80 fe ff ff       	jmpq   400c60 <_init+0x18>

0000000000400de0 <__printf_chk@plt>:
  400de0:	ff 25 ea 32 20 00    	jmpq   *0x2032ea(%rip)        # 6040d0 <_GLOBAL_OFFSET_TABLE_+0xd0>
  400de6:	68 17 00 00 00       	pushq  $0x17
  400deb:	e9 70 fe ff ff       	jmpq   400c60 <_init+0x18>

0000000000400df0 <fopen@plt>:
  400df0:	ff 25 e2 32 20 00    	jmpq   *0x2032e2(%rip)        # 6040d8 <_GLOBAL_OFFSET_TABLE_+0xd8>
  400df6:	68 18 00 00 00       	pushq  $0x18
  400dfb:	e9 60 fe ff ff       	jmpq   400c60 <_init+0x18>

0000000000400e00 <getopt@plt>:
  400e00:	ff 25 da 32 20 00    	jmpq   *0x2032da(%rip)        # 6040e0 <_GLOBAL_OFFSET_TABLE_+0xe0>
  400e06:	68 19 00 00 00       	pushq  $0x19
  400e0b:	e9 50 fe ff ff       	jmpq   400c60 <_init+0x18>

0000000000400e10 <strtoul@plt>:
  400e10:	ff 25 d2 32 20 00    	jmpq   *0x2032d2(%rip)        # 6040e8 <_GLOBAL_OFFSET_TABLE_+0xe8>
  400e16:	68 1a 00 00 00       	pushq  $0x1a
  400e1b:	e9 40 fe ff ff       	jmpq   400c60 <_init+0x18>

0000000000400e20 <gethostname@plt>:
  400e20:	ff 25 ca 32 20 00    	jmpq   *0x2032ca(%rip)        # 6040f0 <_GLOBAL_OFFSET_TABLE_+0xf0>
  400e26:	68 1b 00 00 00       	pushq  $0x1b
  400e2b:	e9 30 fe ff ff       	jmpq   400c60 <_init+0x18>

0000000000400e30 <exit@plt>:
  400e30:	ff 25 c2 32 20 00    	jmpq   *0x2032c2(%rip)        # 6040f8 <_GLOBAL_OFFSET_TABLE_+0xf8>
  400e36:	68 1c 00 00 00       	pushq  $0x1c
  400e3b:	e9 20 fe ff ff       	jmpq   400c60 <_init+0x18>

0000000000400e40 <connect@plt>:
  400e40:	ff 25 ba 32 20 00    	jmpq   *0x2032ba(%rip)        # 604100 <_GLOBAL_OFFSET_TABLE_+0x100>
  400e46:	68 1d 00 00 00       	pushq  $0x1d
  400e4b:	e9 10 fe ff ff       	jmpq   400c60 <_init+0x18>

0000000000400e50 <__fprintf_chk@plt>:
  400e50:	ff 25 b2 32 20 00    	jmpq   *0x2032b2(%rip)        # 604108 <_GLOBAL_OFFSET_TABLE_+0x108>
  400e56:	68 1e 00 00 00       	pushq  $0x1e
  400e5b:	e9 00 fe ff ff       	jmpq   400c60 <_init+0x18>

0000000000400e60 <__sprintf_chk@plt>:
  400e60:	ff 25 aa 32 20 00    	jmpq   *0x2032aa(%rip)        # 604110 <_GLOBAL_OFFSET_TABLE_+0x110>
  400e66:	68 1f 00 00 00       	pushq  $0x1f
  400e6b:	e9 f0 fd ff ff       	jmpq   400c60 <_init+0x18>

0000000000400e70 <socket@plt>:
  400e70:	ff 25 a2 32 20 00    	jmpq   *0x2032a2(%rip)        # 604118 <_GLOBAL_OFFSET_TABLE_+0x118>
  400e76:	68 20 00 00 00       	pushq  $0x20
  400e7b:	e9 e0 fd ff ff       	jmpq   400c60 <_init+0x18>

Disassembly of section .text:

0000000000400e80 <_start>:
  400e80:	31 ed                	xor    %ebp,%ebp
  400e82:	49 89 d1             	mov    %rdx,%r9
  400e85:	5e                   	pop    %rsi
  400e86:	48 89 e2             	mov    %rsp,%rdx
  400e89:	48 83 e4 f0          	and    $0xfffffffffffffff0,%rsp
  400e8d:	50                   	push   %rax
  400e8e:	54                   	push   %rsp
  400e8f:	49 c7 c0 80 2e 40 00 	mov    $0x402e80,%r8
  400e96:	48 c7 c1 10 2e 40 00 	mov    $0x402e10,%rcx
  400e9d:	48 c7 c7 60 11 40 00 	mov    $0x401160,%rdi
  400ea4:	ff 15 46 31 20 00    	callq  *0x203146(%rip)        # 603ff0 <_DYNAMIC+0x1d0>
  400eaa:	f4                   	hlt    
  400eab:	0f 1f 44 00 00       	nopl   0x0(%rax,%rax,1)

0000000000400eb0 <_dl_relocate_static_pie>:
  400eb0:	f3 c3                	repz retq 
  400eb2:	66 2e 0f 1f 84 00 00 	nopw   %cs:0x0(%rax,%rax,1)
  400eb9:	00 00 00 
  400ebc:	0f 1f 40 00          	nopl   0x0(%rax)

0000000000400ec0 <deregister_tm_clones>:
  400ec0:	55                   	push   %rbp
  400ec1:	b8 90 44 60 00       	mov    $0x604490,%eax
  400ec6:	48 3d 90 44 60 00    	cmp    $0x604490,%rax
  400ecc:	48 89 e5             	mov    %rsp,%rbp
  400ecf:	74 17                	je     400ee8 <deregister_tm_clones+0x28>
  400ed1:	b8 00 00 00 00       	mov    $0x0,%eax
  400ed6:	48 85 c0             	test   %rax,%rax
  400ed9:	74 0d                	je     400ee8 <deregister_tm_clones+0x28>
  400edb:	5d                   	pop    %rbp
  400edc:	bf 90 44 60 00       	mov    $0x604490,%edi
  400ee1:	ff e0                	jmpq   *%rax
  400ee3:	0f 1f 44 00 00       	nopl   0x0(%rax,%rax,1)
  400ee8:	5d                   	pop    %rbp
  400ee9:	c3                   	retq   
  400eea:	66 0f 1f 44 00 00    	nopw   0x0(%rax,%rax,1)

0000000000400ef0 <register_tm_clones>:
  400ef0:	be 90 44 60 00       	mov    $0x604490,%esi
  400ef5:	55                   	push   %rbp
  400ef6:	48 81 ee 90 44 60 00 	sub    $0x604490,%rsi
  400efd:	48 89 e5             	mov    %rsp,%rbp
  400f00:	48 c1 fe 03          	sar    $0x3,%rsi
  400f04:	48 89 f0             	mov    %rsi,%rax
  400f07:	48 c1 e8 3f          	shr    $0x3f,%rax
  400f0b:	48 01 c6             	add    %rax,%rsi
  400f0e:	48 d1 fe             	sar    %rsi
  400f11:	74 15                	je     400f28 <register_tm_clones+0x38>
  400f13:	b8 00 00 00 00       	mov    $0x0,%eax
  400f18:	48 85 c0             	test   %rax,%rax
  400f1b:	74 0b                	je     400f28 <register_tm_clones+0x38>
  400f1d:	5d                   	pop    %rbp
  400f1e:	bf 90 44 60 00       	mov    $0x604490,%edi
  400f23:	ff e0                	jmpq   *%rax
  400f25:	0f 1f 00             	nopl   (%rax)
  400f28:	5d                   	pop    %rbp
  400f29:	c3                   	retq   
  400f2a:	66 0f 1f 44 00 00    	nopw   0x0(%rax,%rax,1)

0000000000400f30 <__do_global_dtors_aux>:
  400f30:	80 3d 91 35 20 00 00 	cmpb   $0x0,0x203591(%rip)        # 6044c8 <completed.7697>
  400f37:	75 17                	jne    400f50 <__do_global_dtors_aux+0x20>
  400f39:	55                   	push   %rbp
  400f3a:	48 89 e5             	mov    %rsp,%rbp
  400f3d:	e8 7e ff ff ff       	callq  400ec0 <deregister_tm_clones>
  400f42:	c6 05 7f 35 20 00 01 	movb   $0x1,0x20357f(%rip)        # 6044c8 <completed.7697>
  400f49:	5d                   	pop    %rbp
  400f4a:	c3                   	retq   
  400f4b:	0f 1f 44 00 00       	nopl   0x0(%rax,%rax,1)
  400f50:	f3 c3                	repz retq 
  400f52:	0f 1f 40 00          	nopl   0x0(%rax)
  400f56:	66 2e 0f 1f 84 00 00 	nopw   %cs:0x0(%rax,%rax,1)
  400f5d:	00 00 00 

0000000000400f60 <frame_dummy>:
  400f60:	55                   	push   %rbp
  400f61:	48 89 e5             	mov    %rsp,%rbp
  400f64:	5d                   	pop    %rbp
  400f65:	eb 89                	jmp    400ef0 <register_tm_clones>

0000000000400f67 <usage>:
  400f67:	48 83 ec 08          	sub    $0x8,%rsp
  400f6b:	48 89 fa             	mov    %rdi,%rdx
  400f6e:	83 3d 93 35 20 00 00 	cmpl   $0x0,0x203593(%rip)        # 604508 <is_checker>
  400f75:	74 50                	je     400fc7 <usage+0x60>
  400f77:	48 8d 35 1a 1f 00 00 	lea    0x1f1a(%rip),%rsi        # 402e98 <_IO_stdin_used+0x8>
  400f7e:	bf 01 00 00 00       	mov    $0x1,%edi
  400f83:	b8 00 00 00 00       	mov    $0x0,%eax
  400f88:	e8 53 fe ff ff       	callq  400de0 <__printf_chk@plt>
  400f8d:	48 8d 3d 3c 1f 00 00 	lea    0x1f3c(%rip),%rdi        # 402ed0 <_IO_stdin_used+0x40>
  400f94:	e8 27 fd ff ff       	callq  400cc0 <puts@plt>
  400f99:	48 8d 3d 68 20 00 00 	lea    0x2068(%rip),%rdi        # 403008 <_IO_stdin_used+0x178>
  400fa0:	e8 1b fd ff ff       	callq  400cc0 <puts@plt>
  400fa5:	48 8d 3d 4c 1f 00 00 	lea    0x1f4c(%rip),%rdi        # 402ef8 <_IO_stdin_used+0x68>
  400fac:	e8 0f fd ff ff       	callq  400cc0 <puts@plt>
  400fb1:	48 8d 3d 6a 20 00 00 	lea    0x206a(%rip),%rdi        # 403022 <_IO_stdin_used+0x192>
  400fb8:	e8 03 fd ff ff       	callq  400cc0 <puts@plt>
  400fbd:	bf 00 00 00 00       	mov    $0x0,%edi
  400fc2:	e8 69 fe ff ff       	callq  400e30 <exit@plt>
  400fc7:	48 8d 35 70 20 00 00 	lea    0x2070(%rip),%rsi        # 40303e <_IO_stdin_used+0x1ae>
  400fce:	bf 01 00 00 00       	mov    $0x1,%edi
  400fd3:	b8 00 00 00 00       	mov    $0x0,%eax
  400fd8:	e8 03 fe ff ff       	callq  400de0 <__printf_chk@plt>
  400fdd:	48 8d 3d 3c 1f 00 00 	lea    0x1f3c(%rip),%rdi        # 402f20 <_IO_stdin_used+0x90>
  400fe4:	e8 d7 fc ff ff       	callq  400cc0 <puts@plt>
  400fe9:	48 8d 3d 58 1f 00 00 	lea    0x1f58(%rip),%rdi        # 402f48 <_IO_stdin_used+0xb8>
  400ff0:	e8 cb fc ff ff       	callq  400cc0 <puts@plt>
  400ff5:	48 8d 3d 60 20 00 00 	lea    0x2060(%rip),%rdi        # 40305c <_IO_stdin_used+0x1cc>
  400ffc:	e8 bf fc ff ff       	callq  400cc0 <puts@plt>
  401001:	eb ba                	jmp    400fbd <usage+0x56>

0000000000401003 <initialize_target>:
  401003:	55                   	push   %rbp
  401004:	53                   	push   %rbx
  401005:	48 81 ec 18 21 00 00 	sub    $0x2118,%rsp
  40100c:	89 f5                	mov    %esi,%ebp
  40100e:	64 48 8b 04 25 28 00 	mov    %fs:0x28,%rax
  401015:	00 00 
  401017:	48 89 84 24 08 21 00 	mov    %rax,0x2108(%rsp)
  40101e:	00 
  40101f:	31 c0                	xor    %eax,%eax
  401021:	89 3d d1 34 20 00    	mov    %edi,0x2034d1(%rip)        # 6044f8 <check_level>
  401027:	8b 3d 03 31 20 00    	mov    0x203103(%rip),%edi        # 604130 <target_id>
  40102d:	e8 b8 1d 00 00       	callq  402dea <gencookie>
  401032:	89 05 cc 34 20 00    	mov    %eax,0x2034cc(%rip)        # 604504 <cookie>
  401038:	89 c7                	mov    %eax,%edi
  40103a:	e8 ab 1d 00 00       	callq  402dea <gencookie>
  40103f:	89 05 bb 34 20 00    	mov    %eax,0x2034bb(%rip)        # 604500 <authkey>
  401045:	8b 05 e5 30 20 00    	mov    0x2030e5(%rip),%eax        # 604130 <target_id>
  40104b:	8d 78 01             	lea    0x1(%rax),%edi
  40104e:	e8 3d fc ff ff       	callq  400c90 <srandom@plt>
  401053:	e8 48 fd ff ff       	callq  400da0 <random@plt>
  401058:	89 c7                	mov    %eax,%edi
  40105a:	e8 ec 02 00 00       	callq  40134b <scramble>
  40105f:	89 c3                	mov    %eax,%ebx
  401061:	85 ed                	test   %ebp,%ebp
  401063:	75 54                	jne    4010b9 <initialize_target+0xb6>
  401065:	b8 00 00 00 00       	mov    $0x0,%eax
  40106a:	01 d8                	add    %ebx,%eax
  40106c:	0f b7 c0             	movzwl %ax,%eax
  40106f:	8d 04 c5 00 01 00 00 	lea    0x100(,%rax,8),%eax
  401076:	89 c0                	mov    %eax,%eax
  401078:	48 89 05 01 34 20 00 	mov    %rax,0x203401(%rip)        # 604480 <buf_offset>
  40107f:	c6 05 a2 40 20 00 63 	movb   $0x63,0x2040a2(%rip)        # 605128 <target_prefix>
  401086:	83 3d fb 33 20 00 00 	cmpl   $0x0,0x2033fb(%rip)        # 604488 <notify>
  40108d:	74 09                	je     401098 <initialize_target+0x95>
  40108f:	83 3d 72 34 20 00 00 	cmpl   $0x0,0x203472(%rip)        # 604508 <is_checker>
  401096:	74 39                	je     4010d1 <initialize_target+0xce>
  401098:	48 8b 84 24 08 21 00 	mov    0x2108(%rsp),%rax
  40109f:	00 
  4010a0:	64 48 33 04 25 28 00 	xor    %fs:0x28,%rax
  4010a7:	00 00 
  4010a9:	0f 85 ac 00 00 00    	jne    40115b <initialize_target+0x158>
  4010af:	48 81 c4 18 21 00 00 	add    $0x2118,%rsp
  4010b6:	5b                   	pop    %rbx
  4010b7:	5d                   	pop    %rbp
  4010b8:	c3                   	retq   
  4010b9:	bf 00 00 00 00       	mov    $0x0,%edi
  4010be:	e8 cd fc ff ff       	callq  400d90 <time@plt>
  4010c3:	89 c7                	mov    %eax,%edi
  4010c5:	e8 c6 fb ff ff       	callq  400c90 <srandom@plt>
  4010ca:	e8 d1 fc ff ff       	callq  400da0 <random@plt>
  4010cf:	eb 99                	jmp    40106a <initialize_target+0x67>
  4010d1:	48 89 e7             	mov    %rsp,%rdi
  4010d4:	be 00 01 00 00       	mov    $0x100,%esi
  4010d9:	e8 42 fd ff ff       	callq  400e20 <gethostname@plt>
  4010de:	89 c3                	mov    %eax,%ebx
  4010e0:	85 c0                	test   %eax,%eax
  4010e2:	75 24                	jne    401108 <initialize_target+0x105>
  4010e4:	48 63 c3             	movslq %ebx,%rax
  4010e7:	48 8d 15 72 30 20 00 	lea    0x203072(%rip),%rdx        # 604160 <host_table>
  4010ee:	48 8b 3c c2          	mov    (%rdx,%rax,8),%rdi
  4010f2:	48 85 ff             	test   %rdi,%rdi
  4010f5:	74 27                	je     40111e <initialize_target+0x11b>
  4010f7:	48 89 e6             	mov    %rsp,%rsi
  4010fa:	e8 71 fb ff ff       	callq  400c70 <strcasecmp@plt>
  4010ff:	85 c0                	test   %eax,%eax
  401101:	74 1b                	je     40111e <initialize_target+0x11b>
  401103:	83 c3 01             	add    $0x1,%ebx
  401106:	eb dc                	jmp    4010e4 <initialize_target+0xe1>
  401108:	48 8d 3d 69 1e 00 00 	lea    0x1e69(%rip),%rdi        # 402f78 <_IO_stdin_used+0xe8>
  40110f:	e8 ac fb ff ff       	callq  400cc0 <puts@plt>
  401114:	bf 08 00 00 00       	mov    $0x8,%edi
  401119:	e8 12 fd ff ff       	callq  400e30 <exit@plt>
  40111e:	48 8d bc 24 00 01 00 	lea    0x100(%rsp),%rdi
  401125:	00 
  401126:	e8 ef 19 00 00       	callq  402b1a <init_driver>
  40112b:	85 c0                	test   %eax,%eax
  40112d:	0f 89 65 ff ff ff    	jns    401098 <initialize_target+0x95>
  401133:	48 8d 94 24 00 01 00 	lea    0x100(%rsp),%rdx
  40113a:	00 
  40113b:	48 8d 35 6e 1e 00 00 	lea    0x1e6e(%rip),%rsi        # 402fb0 <_IO_stdin_used+0x120>
  401142:	bf 01 00 00 00       	mov    $0x1,%edi
  401147:	b8 00 00 00 00       	mov    $0x0,%eax
  40114c:	e8 8f fc ff ff       	callq  400de0 <__printf_chk@plt>
  401151:	bf 08 00 00 00       	mov    $0x8,%edi
  401156:	e8 d5 fc ff ff       	callq  400e30 <exit@plt>
  40115b:	e8 80 fb ff ff       	callq  400ce0 <__stack_chk_fail@plt>

0000000000401160 <main>:
  401160:	41 56                	push   %r14
  401162:	41 55                	push   %r13
  401164:	41 54                	push   %r12
  401166:	55                   	push   %rbp
  401167:	53                   	push   %rbx
  401168:	41 89 fc             	mov    %edi,%r12d
  40116b:	48 89 f3             	mov    %rsi,%rbx
  40116e:	48 c7 c6 21 1e 40 00 	mov    $0x401e21,%rsi
  401175:	bf 0b 00 00 00       	mov    $0xb,%edi
  40117a:	e8 c1 fb ff ff       	callq  400d40 <signal@plt>
  40117f:	48 c7 c6 cd 1d 40 00 	mov    $0x401dcd,%rsi
  401186:	bf 07 00 00 00       	mov    $0x7,%edi
  40118b:	e8 b0 fb ff ff       	callq  400d40 <signal@plt>
  401190:	48 c7 c6 75 1e 40 00 	mov    $0x401e75,%rsi
  401197:	bf 04 00 00 00       	mov    $0x4,%edi
  40119c:	e8 9f fb ff ff       	callq  400d40 <signal@plt>
  4011a1:	83 3d 60 33 20 00 00 	cmpl   $0x0,0x203360(%rip)        # 604508 <is_checker>
  4011a8:	75 26                	jne    4011d0 <main+0x70>
  4011aa:	48 8d 2d c4 1e 00 00 	lea    0x1ec4(%rip),%rbp        # 403075 <_IO_stdin_used+0x1e5>
  4011b1:	48 8b 05 e8 32 20 00 	mov    0x2032e8(%rip),%rax        # 6044a0 <stdin@@GLIBC_2.2.5>
  4011b8:	48 89 05 31 33 20 00 	mov    %rax,0x203331(%rip)        # 6044f0 <infile>
  4011bf:	41 bd 00 00 00 00    	mov    $0x0,%r13d
  4011c5:	41 be 00 00 00 00    	mov    $0x0,%r14d
  4011cb:	e9 8d 00 00 00       	jmpq   40125d <main+0xfd>
  4011d0:	48 c7 c6 c9 1e 40 00 	mov    $0x401ec9,%rsi
  4011d7:	bf 0e 00 00 00       	mov    $0xe,%edi
  4011dc:	e8 5f fb ff ff       	callq  400d40 <signal@plt>
  4011e1:	bf 05 00 00 00       	mov    $0x5,%edi
  4011e6:	e8 25 fb ff ff       	callq  400d10 <alarm@plt>
  4011eb:	48 8d 2d 88 1e 00 00 	lea    0x1e88(%rip),%rbp        # 40307a <_IO_stdin_used+0x1ea>
  4011f2:	eb bd                	jmp    4011b1 <main+0x51>
  4011f4:	48 8b 3b             	mov    (%rbx),%rdi
  4011f7:	e8 6b fd ff ff       	callq  400f67 <usage>
  4011fc:	48 8d 35 0c 21 00 00 	lea    0x210c(%rip),%rsi        # 40330f <_IO_stdin_used+0x47f>
  401203:	48 8b 3d 9e 32 20 00 	mov    0x20329e(%rip),%rdi        # 6044a8 <optarg@@GLIBC_2.2.5>
  40120a:	e8 e1 fb ff ff       	callq  400df0 <fopen@plt>
  40120f:	48 89 05 da 32 20 00 	mov    %rax,0x2032da(%rip)        # 6044f0 <infile>
  401216:	48 85 c0             	test   %rax,%rax
  401219:	75 42                	jne    40125d <main+0xfd>
  40121b:	48 8b 0d 86 32 20 00 	mov    0x203286(%rip),%rcx        # 6044a8 <optarg@@GLIBC_2.2.5>
  401222:	48 8d 15 59 1e 00 00 	lea    0x1e59(%rip),%rdx        # 403082 <_IO_stdin_used+0x1f2>
  401229:	be 01 00 00 00       	mov    $0x1,%esi
  40122e:	48 8b 3d 8b 32 20 00 	mov    0x20328b(%rip),%rdi        # 6044c0 <stderr@@GLIBC_2.2.5>
  401235:	e8 16 fc ff ff       	callq  400e50 <__fprintf_chk@plt>
  40123a:	b8 01 00 00 00       	mov    $0x1,%eax
  40123f:	e9 d9 00 00 00       	jmpq   40131d <main+0x1bd>
  401244:	ba 10 00 00 00       	mov    $0x10,%edx
  401249:	be 00 00 00 00       	mov    $0x0,%esi
  40124e:	48 8b 3d 53 32 20 00 	mov    0x203253(%rip),%rdi        # 6044a8 <optarg@@GLIBC_2.2.5>
  401255:	e8 b6 fb ff ff       	callq  400e10 <strtoul@plt>
  40125a:	41 89 c6             	mov    %eax,%r14d
  40125d:	48 89 ea             	mov    %rbp,%rdx
  401260:	48 89 de             	mov    %rbx,%rsi
  401263:	44 89 e7             	mov    %r12d,%edi
  401266:	e8 95 fb ff ff       	callq  400e00 <getopt@plt>
  40126b:	3c ff                	cmp    $0xff,%al
  40126d:	74 62                	je     4012d1 <main+0x171>
  40126f:	0f be d0             	movsbl %al,%edx
  401272:	83 e8 61             	sub    $0x61,%eax
  401275:	3c 10                	cmp    $0x10,%al
  401277:	77 3a                	ja     4012b3 <main+0x153>
  401279:	0f b6 c0             	movzbl %al,%eax
  40127c:	48 8d 0d 3d 1e 00 00 	lea    0x1e3d(%rip),%rcx        # 4030c0 <_IO_stdin_used+0x230>
  401283:	48 63 04 81          	movslq (%rcx,%rax,4),%rax
  401287:	48 01 c8             	add    %rcx,%rax
  40128a:	ff e0                	jmpq   *%rax
  40128c:	ba 0a 00 00 00       	mov    $0xa,%edx
  401291:	be 00 00 00 00       	mov    $0x0,%esi
  401296:	48 8b 3d 0b 32 20 00 	mov    0x20320b(%rip),%rdi        # 6044a8 <optarg@@GLIBC_2.2.5>
  40129d:	e8 ce fa ff ff       	callq  400d70 <strtol@plt>
  4012a2:	41 89 c5             	mov    %eax,%r13d
  4012a5:	eb b6                	jmp    40125d <main+0xfd>
  4012a7:	c7 05 d7 31 20 00 00 	movl   $0x0,0x2031d7(%rip)        # 604488 <notify>
  4012ae:	00 00 00 
  4012b1:	eb aa                	jmp    40125d <main+0xfd>
  4012b3:	48 8d 35 e5 1d 00 00 	lea    0x1de5(%rip),%rsi        # 40309f <_IO_stdin_used+0x20f>
  4012ba:	bf 01 00 00 00       	mov    $0x1,%edi
  4012bf:	b8 00 00 00 00       	mov    $0x0,%eax
  4012c4:	e8 17 fb ff ff       	callq  400de0 <__printf_chk@plt>
  4012c9:	48 8b 3b             	mov    (%rbx),%rdi
  4012cc:	e8 96 fc ff ff       	callq  400f67 <usage>
  4012d1:	be 00 00 00 00       	mov    $0x0,%esi
  4012d6:	44 89 ef             	mov    %r13d,%edi
  4012d9:	e8 25 fd ff ff       	callq  401003 <initialize_target>
  4012de:	83 3d 23 32 20 00 00 	cmpl   $0x0,0x203223(%rip)        # 604508 <is_checker>
  4012e5:	74 09                	je     4012f0 <main+0x190>
  4012e7:	44 39 35 12 32 20 00 	cmp    %r14d,0x203212(%rip)        # 604500 <authkey>
  4012ee:	75 36                	jne    401326 <main+0x1c6>
  4012f0:	8b 15 0e 32 20 00    	mov    0x20320e(%rip),%edx        # 604504 <cookie>
  4012f6:	48 8d 35 b5 1d 00 00 	lea    0x1db5(%rip),%rsi        # 4030b2 <_IO_stdin_used+0x222>
  4012fd:	bf 01 00 00 00       	mov    $0x1,%edi
  401302:	b8 00 00 00 00       	mov    $0x0,%eax
  401307:	e8 d4 fa ff ff       	callq  400de0 <__printf_chk@plt>
  40130c:	48 8b 3d 6d 31 20 00 	mov    0x20316d(%rip),%rdi        # 604480 <buf_offset>
  401313:	e8 bd 0c 00 00       	callq  401fd5 <stable_launch>
  401318:	b8 00 00 00 00       	mov    $0x0,%eax
  40131d:	5b                   	pop    %rbx
  40131e:	5d                   	pop    %rbp
  40131f:	41 5c                	pop    %r12
  401321:	41 5d                	pop    %r13
  401323:	41 5e                	pop    %r14
  401325:	c3                   	retq   
  401326:	44 89 f2             	mov    %r14d,%edx
  401329:	48 8d 35 a8 1c 00 00 	lea    0x1ca8(%rip),%rsi        # 402fd8 <_IO_stdin_used+0x148>
  401330:	bf 01 00 00 00       	mov    $0x1,%edi
  401335:	b8 00 00 00 00       	mov    $0x0,%eax
  40133a:	e8 a1 fa ff ff       	callq  400de0 <__printf_chk@plt>
  40133f:	b8 00 00 00 00       	mov    $0x0,%eax
  401344:	e8 e4 06 00 00       	callq  401a2d <check_fail>
  401349:	eb a5                	jmp    4012f0 <main+0x190>

000000000040134b <scramble>:
  40134b:	48 83 ec 38          	sub    $0x38,%rsp
  40134f:	64 48 8b 04 25 28 00 	mov    %fs:0x28,%rax
  401356:	00 00 
  401358:	48 89 44 24 28       	mov    %rax,0x28(%rsp)
  40135d:	31 c0                	xor    %eax,%eax
  40135f:	eb 10                	jmp    401371 <scramble+0x26>
  401361:	69 d0 2c 85 00 00    	imul   $0x852c,%eax,%edx
  401367:	01 fa                	add    %edi,%edx
  401369:	89 c1                	mov    %eax,%ecx
  40136b:	89 14 8c             	mov    %edx,(%rsp,%rcx,4)
  40136e:	83 c0 01             	add    $0x1,%eax
  401371:	83 f8 09             	cmp    $0x9,%eax
  401374:	76 eb                	jbe    401361 <scramble+0x16>
  401376:	8b 44 24 20          	mov    0x20(%rsp),%eax
  40137a:	69 c0 ab e8 00 00    	imul   $0xe8ab,%eax,%eax
  401380:	89 44 24 20          	mov    %eax,0x20(%rsp)
  401384:	8b 44 24 18          	mov    0x18(%rsp),%eax
  401388:	69 c0 ae 31 00 00    	imul   $0x31ae,%eax,%eax
  40138e:	89 44 24 18          	mov    %eax,0x18(%rsp)
  401392:	8b 44 24 14          	mov    0x14(%rsp),%eax
  401396:	69 c0 7a 50 00 00    	imul   $0x507a,%eax,%eax
  40139c:	89 44 24 14          	mov    %eax,0x14(%rsp)
  4013a0:	8b 44 24 20          	mov    0x20(%rsp),%eax
  4013a4:	69 c0 d9 34 00 00    	imul   $0x34d9,%eax,%eax
  4013aa:	89 44 24 20          	mov    %eax,0x20(%rsp)
  4013ae:	8b 44 24 14          	mov    0x14(%rsp),%eax
  4013b2:	69 c0 66 f8 00 00    	imul   $0xf866,%eax,%eax
  4013b8:	89 44 24 14          	mov    %eax,0x14(%rsp)
  4013bc:	8b 44 24 24          	mov    0x24(%rsp),%eax
  4013c0:	69 c0 f9 bb 00 00    	imul   $0xbbf9,%eax,%eax
  4013c6:	89 44 24 24          	mov    %eax,0x24(%rsp)
  4013ca:	8b 44 24 20          	mov    0x20(%rsp),%eax
  4013ce:	69 c0 c6 5f 00 00    	imul   $0x5fc6,%eax,%eax
  4013d4:	89 44 24 20          	mov    %eax,0x20(%rsp)
  4013d8:	8b 44 24 0c          	mov    0xc(%rsp),%eax
  4013dc:	69 c0 03 38 00 00    	imul   $0x3803,%eax,%eax
  4013e2:	89 44 24 0c          	mov    %eax,0xc(%rsp)
  4013e6:	8b 04 24             	mov    (%rsp),%eax
  4013e9:	69 c0 33 54 00 00    	imul   $0x5433,%eax,%eax
  4013ef:	89 04 24             	mov    %eax,(%rsp)
  4013f2:	8b 44 24 10          	mov    0x10(%rsp),%eax
  4013f6:	69 c0 bd d6 00 00    	imul   $0xd6bd,%eax,%eax
  4013fc:	89 44 24 10          	mov    %eax,0x10(%rsp)
  401400:	8b 44 24 08          	mov    0x8(%rsp),%eax
  401404:	69 c0 d6 dd 00 00    	imul   $0xddd6,%eax,%eax
  40140a:	89 44 24 08          	mov    %eax,0x8(%rsp)
  40140e:	8b 04 24             	mov    (%rsp),%eax
  401411:	69 c0 fe a7 00 00    	imul   $0xa7fe,%eax,%eax
  401417:	89 04 24             	mov    %eax,(%rsp)
  40141a:	8b 44 24 10          	mov    0x10(%rsp),%eax
  40141e:	69 c0 e3 99 00 00    	imul   $0x99e3,%eax,%eax
  401424:	89 44 24 10          	mov    %eax,0x10(%rsp)
  401428:	8b 44 24 1c          	mov    0x1c(%rsp),%eax
  40142c:	69 c0 92 c1 00 00    	imul   $0xc192,%eax,%eax
  401432:	89 44 24 1c          	mov    %eax,0x1c(%rsp)
  401436:	8b 44 24 14          	mov    0x14(%rsp),%eax
  40143a:	69 c0 19 6a 00 00    	imul   $0x6a19,%eax,%eax
  401440:	89 44 24 14          	mov    %eax,0x14(%rsp)
  401444:	8b 44 24 24          	mov    0x24(%rsp),%eax
  401448:	69 c0 e6 be 00 00    	imul   $0xbee6,%eax,%eax
  40144e:	89 44 24 24          	mov    %eax,0x24(%rsp)
  401452:	8b 44 24 10          	mov    0x10(%rsp),%eax
  401456:	69 c0 b0 50 00 00    	imul   $0x50b0,%eax,%eax
  40145c:	89 44 24 10          	mov    %eax,0x10(%rsp)
  401460:	8b 44 24 08          	mov    0x8(%rsp),%eax
  401464:	69 c0 e1 d2 00 00    	imul   $0xd2e1,%eax,%eax
  40146a:	89 44 24 08          	mov    %eax,0x8(%rsp)
  40146e:	8b 44 24 08          	mov    0x8(%rsp),%eax
  401472:	69 c0 57 42 00 00    	imul   $0x4257,%eax,%eax
  401478:	89 44 24 08          	mov    %eax,0x8(%rsp)
  40147c:	8b 44 24 04          	mov    0x4(%rsp),%eax
  401480:	69 c0 84 7b 00 00    	imul   $0x7b84,%eax,%eax
  401486:	89 44 24 04          	mov    %eax,0x4(%rsp)
  40148a:	8b 04 24             	mov    (%rsp),%eax
  40148d:	69 c0 0f 08 00 00    	imul   $0x80f,%eax,%eax
  401493:	89 04 24             	mov    %eax,(%rsp)
  401496:	8b 44 24 04          	mov    0x4(%rsp),%eax
  40149a:	69 c0 96 7e 00 00    	imul   $0x7e96,%eax,%eax
  4014a0:	89 44 24 04          	mov    %eax,0x4(%rsp)
  4014a4:	8b 44 24 24          	mov    0x24(%rsp),%eax
  4014a8:	69 c0 50 78 00 00    	imul   $0x7850,%eax,%eax
  4014ae:	89 44 24 24          	mov    %eax,0x24(%rsp)
  4014b2:	8b 44 24 14          	mov    0x14(%rsp),%eax
  4014b6:	69 c0 47 e5 00 00    	imul   $0xe547,%eax,%eax
  4014bc:	89 44 24 14          	mov    %eax,0x14(%rsp)
  4014c0:	8b 44 24 20          	mov    0x20(%rsp),%eax
  4014c4:	69 c0 3b 03 00 00    	imul   $0x33b,%eax,%eax
  4014ca:	89 44 24 20          	mov    %eax,0x20(%rsp)
  4014ce:	8b 44 24 24          	mov    0x24(%rsp),%eax
  4014d2:	69 c0 4b 92 00 00    	imul   $0x924b,%eax,%eax
  4014d8:	89 44 24 24          	mov    %eax,0x24(%rsp)
  4014dc:	8b 44 24 14          	mov    0x14(%rsp),%eax
  4014e0:	69 c0 c8 96 00 00    	imul   $0x96c8,%eax,%eax
  4014e6:	89 44 24 14          	mov    %eax,0x14(%rsp)
  4014ea:	8b 44 24 04          	mov    0x4(%rsp),%eax
  4014ee:	69 c0 99 59 00 00    	imul   $0x5999,%eax,%eax
  4014f4:	89 44 24 04          	mov    %eax,0x4(%rsp)
  4014f8:	8b 44 24 04          	mov    0x4(%rsp),%eax
  4014fc:	69 c0 29 d5 00 00    	imul   $0xd529,%eax,%eax
  401502:	89 44 24 04          	mov    %eax,0x4(%rsp)
  401506:	8b 44 24 14          	mov    0x14(%rsp),%eax
  40150a:	69 c0 65 6a 00 00    	imul   $0x6a65,%eax,%eax
  401510:	89 44 24 14          	mov    %eax,0x14(%rsp)
  401514:	8b 44 24 04          	mov    0x4(%rsp),%eax
  401518:	69 c0 4d 12 00 00    	imul   $0x124d,%eax,%eax
  40151e:	89 44 24 04          	mov    %eax,0x4(%rsp)
  401522:	8b 44 24 1c          	mov    0x1c(%rsp),%eax
  401526:	69 c0 08 92 00 00    	imul   $0x9208,%eax,%eax
  40152c:	89 44 24 1c          	mov    %eax,0x1c(%rsp)
  401530:	8b 44 24 0c          	mov    0xc(%rsp),%eax
  401534:	69 c0 df 19 00 00    	imul   $0x19df,%eax,%eax
  40153a:	89 44 24 0c          	mov    %eax,0xc(%rsp)
  40153e:	8b 44 24 10          	mov    0x10(%rsp),%eax
  401542:	69 c0 27 04 00 00    	imul   $0x427,%eax,%eax
  401548:	89 44 24 10          	mov    %eax,0x10(%rsp)
  40154c:	8b 04 24             	mov    (%rsp),%eax
  40154f:	69 c0 a3 6c 00 00    	imul   $0x6ca3,%eax,%eax
  401555:	89 04 24             	mov    %eax,(%rsp)
  401558:	8b 44 24 18          	mov    0x18(%rsp),%eax
  40155c:	69 c0 f4 96 00 00    	imul   $0x96f4,%eax,%eax
  401562:	89 44 24 18          	mov    %eax,0x18(%rsp)
  401566:	8b 44 24 20          	mov    0x20(%rsp),%eax
  40156a:	69 c0 2a b7 00 00    	imul   $0xb72a,%eax,%eax
  401570:	89 44 24 20          	mov    %eax,0x20(%rsp)
  401574:	8b 04 24             	mov    (%rsp),%eax
  401577:	69 c0 88 dc 00 00    	imul   $0xdc88,%eax,%eax
  40157d:	89 04 24             	mov    %eax,(%rsp)
  401580:	8b 44 24 14          	mov    0x14(%rsp),%eax
  401584:	69 c0 24 cc 00 00    	imul   $0xcc24,%eax,%eax
  40158a:	89 44 24 14          	mov    %eax,0x14(%rsp)
  40158e:	8b 44 24 04          	mov    0x4(%rsp),%eax
  401592:	69 c0 fd fb 00 00    	imul   $0xfbfd,%eax,%eax
  401598:	89 44 24 04          	mov    %eax,0x4(%rsp)
  40159c:	8b 44 24 20          	mov    0x20(%rsp),%eax
  4015a0:	69 c0 d3 7d 00 00    	imul   $0x7dd3,%eax,%eax
  4015a6:	89 44 24 20          	mov    %eax,0x20(%rsp)
  4015aa:	8b 44 24 1c          	mov    0x1c(%rsp),%eax
  4015ae:	69 c0 71 b0 00 00    	imul   $0xb071,%eax,%eax
  4015b4:	89 44 24 1c          	mov    %eax,0x1c(%rsp)
  4015b8:	8b 44 24 18          	mov    0x18(%rsp),%eax
  4015bc:	69 c0 91 c8 00 00    	imul   $0xc891,%eax,%eax
  4015c2:	89 44 24 18          	mov    %eax,0x18(%rsp)
  4015c6:	8b 44 24 10          	mov    0x10(%rsp),%eax
  4015ca:	69 c0 46 45 00 00    	imul   $0x4546,%eax,%eax
  4015d0:	89 44 24 10          	mov    %eax,0x10(%rsp)
  4015d4:	8b 44 24 24          	mov    0x24(%rsp),%eax
  4015d8:	69 c0 36 25 00 00    	imul   $0x2536,%eax,%eax
  4015de:	89 44 24 24          	mov    %eax,0x24(%rsp)
  4015e2:	8b 44 24 1c          	mov    0x1c(%rsp),%eax
  4015e6:	69 c0 fd dc 00 00    	imul   $0xdcfd,%eax,%eax
  4015ec:	89 44 24 1c          	mov    %eax,0x1c(%rsp)
  4015f0:	8b 44 24 24          	mov    0x24(%rsp),%eax
  4015f4:	69 c0 f6 d8 00 00    	imul   $0xd8f6,%eax,%eax
  4015fa:	89 44 24 24          	mov    %eax,0x24(%rsp)
  4015fe:	8b 44 24 1c          	mov    0x1c(%rsp),%eax
  401602:	69 c0 80 9a 00 00    	imul   $0x9a80,%eax,%eax
  401608:	89 44 24 1c          	mov    %eax,0x1c(%rsp)
  40160c:	8b 44 24 14          	mov    0x14(%rsp),%eax
  401610:	69 c0 ee d3 00 00    	imul   $0xd3ee,%eax,%eax
  401616:	89 44 24 14          	mov    %eax,0x14(%rsp)
  40161a:	8b 44 24 24          	mov    0x24(%rsp),%eax
  40161e:	69 c0 0c 4f 00 00    	imul   $0x4f0c,%eax,%eax
  401624:	89 44 24 24          	mov    %eax,0x24(%rsp)
  401628:	8b 44 24 08          	mov    0x8(%rsp),%eax
  40162c:	69 c0 53 1e 00 00    	imul   $0x1e53,%eax,%eax
  401632:	89 44 24 08          	mov    %eax,0x8(%rsp)
  401636:	8b 44 24 1c          	mov    0x1c(%rsp),%eax
  40163a:	69 c0 44 b5 00 00    	imul   $0xb544,%eax,%eax
  401640:	89 44 24 1c          	mov    %eax,0x1c(%rsp)
  401644:	8b 44 24 18          	mov    0x18(%rsp),%eax
  401648:	69 c0 8a fb 00 00    	imul   $0xfb8a,%eax,%eax
  40164e:	89 44 24 18          	mov    %eax,0x18(%rsp)
  401652:	8b 44 24 08          	mov    0x8(%rsp),%eax
  401656:	69 c0 f7 04 00 00    	imul   $0x4f7,%eax,%eax
  40165c:	89 44 24 08          	mov    %eax,0x8(%rsp)
  401660:	8b 44 24 10          	mov    0x10(%rsp),%eax
  401664:	69 c0 9b 53 00 00    	imul   $0x539b,%eax,%eax
  40166a:	89 44 24 10          	mov    %eax,0x10(%rsp)
  40166e:	8b 44 24 20          	mov    0x20(%rsp),%eax
  401672:	69 c0 0e 97 00 00    	imul   $0x970e,%eax,%eax
  401678:	89 44 24 20          	mov    %eax,0x20(%rsp)
  40167c:	8b 44 24 24          	mov    0x24(%rsp),%eax
  401680:	69 c0 3c 8f 00 00    	imul   $0x8f3c,%eax,%eax
  401686:	89 44 24 24          	mov    %eax,0x24(%rsp)
  40168a:	8b 44 24 24          	mov    0x24(%rsp),%eax
  40168e:	69 c0 09 e6 00 00    	imul   $0xe609,%eax,%eax
  401694:	89 44 24 24          	mov    %eax,0x24(%rsp)
  401698:	8b 44 24 14          	mov    0x14(%rsp),%eax
  40169c:	69 c0 89 51 00 00    	imul   $0x5189,%eax,%eax
  4016a2:	89 44 24 14          	mov    %eax,0x14(%rsp)
  4016a6:	8b 44 24 14          	mov    0x14(%rsp),%eax
  4016aa:	69 c0 88 f5 00 00    	imul   $0xf588,%eax,%eax
  4016b0:	89 44 24 14          	mov    %eax,0x14(%rsp)
  4016b4:	8b 44 24 1c          	mov    0x1c(%rsp),%eax
  4016b8:	69 c0 fb da 00 00    	imul   $0xdafb,%eax,%eax
  4016be:	89 44 24 1c          	mov    %eax,0x1c(%rsp)
  4016c2:	8b 44 24 1c          	mov    0x1c(%rsp),%eax
  4016c6:	69 c0 42 ae 00 00    	imul   $0xae42,%eax,%eax
  4016cc:	89 44 24 1c          	mov    %eax,0x1c(%rsp)
  4016d0:	8b 04 24             	mov    (%rsp),%eax
  4016d3:	69 c0 8b 41 00 00    	imul   $0x418b,%eax,%eax
  4016d9:	89 04 24             	mov    %eax,(%rsp)
  4016dc:	8b 44 24 24          	mov    0x24(%rsp),%eax
  4016e0:	69 c0 c7 a6 00 00    	imul   $0xa6c7,%eax,%eax
  4016e6:	89 44 24 24          	mov    %eax,0x24(%rsp)
  4016ea:	8b 44 24 04          	mov    0x4(%rsp),%eax
  4016ee:	69 c0 6a e7 00 00    	imul   $0xe76a,%eax,%eax
  4016f4:	89 44 24 04          	mov    %eax,0x4(%rsp)
  4016f8:	8b 44 24 0c          	mov    0xc(%rsp),%eax
  4016fc:	69 c0 0b 56 00 00    	imul   $0x560b,%eax,%eax
  401702:	89 44 24 0c          	mov    %eax,0xc(%rsp)
  401706:	8b 44 24 24          	mov    0x24(%rsp),%eax
  40170a:	69 c0 d3 db 00 00    	imul   $0xdbd3,%eax,%eax
  401710:	89 44 24 24          	mov    %eax,0x24(%rsp)
  401714:	8b 44 24 1c          	mov    0x1c(%rsp),%eax
  401718:	69 c0 3b db 00 00    	imul   $0xdb3b,%eax,%eax
  40171e:	89 44 24 1c          	mov    %eax,0x1c(%rsp)
  401722:	8b 44 24 20          	mov    0x20(%rsp),%eax
  401726:	69 c0 1b 9d 00 00    	imul   $0x9d1b,%eax,%eax
  40172c:	89 44 24 20          	mov    %eax,0x20(%rsp)
  401730:	8b 04 24             	mov    (%rsp),%eax
  401733:	69 c0 0c 9f 00 00    	imul   $0x9f0c,%eax,%eax
  401739:	89 04 24             	mov    %eax,(%rsp)
  40173c:	8b 44 24 18          	mov    0x18(%rsp),%eax
  401740:	69 c0 27 e1 00 00    	imul   $0xe127,%eax,%eax
  401746:	89 44 24 18          	mov    %eax,0x18(%rsp)
  40174a:	8b 44 24 24          	mov    0x24(%rsp),%eax
  40174e:	69 c0 24 c2 00 00    	imul   $0xc224,%eax,%eax
  401754:	89 44 24 24          	mov    %eax,0x24(%rsp)
  401758:	8b 44 24 14          	mov    0x14(%rsp),%eax
  40175c:	69 c0 99 7d 00 00    	imul   $0x7d99,%eax,%eax
  401762:	89 44 24 14          	mov    %eax,0x14(%rsp)
  401766:	8b 44 24 10          	mov    0x10(%rsp),%eax
  40176a:	69 c0 31 c8 00 00    	imul   $0xc831,%eax,%eax
  401770:	89 44 24 10          	mov    %eax,0x10(%rsp)
  401774:	8b 44 24 14          	mov    0x14(%rsp),%eax
  401778:	69 c0 7c d3 00 00    	imul   $0xd37c,%eax,%eax
  40177e:	89 44 24 14          	mov    %eax,0x14(%rsp)
  401782:	8b 44 24 1c          	mov    0x1c(%rsp),%eax
  401786:	69 c0 e2 45 00 00    	imul   $0x45e2,%eax,%eax
  40178c:	89 44 24 1c          	mov    %eax,0x1c(%rsp)
  401790:	ba 00 00 00 00       	mov    $0x0,%edx
  401795:	b8 00 00 00 00       	mov    $0x0,%eax
  40179a:	eb 0a                	jmp    4017a6 <scramble+0x45b>
  40179c:	89 d1                	mov    %edx,%ecx
  40179e:	8b 0c 8c             	mov    (%rsp,%rcx,4),%ecx
  4017a1:	01 c8                	add    %ecx,%eax
  4017a3:	83 c2 01             	add    $0x1,%edx
  4017a6:	83 fa 09             	cmp    $0x9,%edx
  4017a9:	76 f1                	jbe    40179c <scramble+0x451>
  4017ab:	48 8b 74 24 28       	mov    0x28(%rsp),%rsi
  4017b0:	64 48 33 34 25 28 00 	xor    %fs:0x28,%rsi
  4017b7:	00 00 
  4017b9:	75 05                	jne    4017c0 <scramble+0x475>
  4017bb:	48 83 c4 38          	add    $0x38,%rsp
  4017bf:	c3                   	retq   
  4017c0:	e8 1b f5 ff ff       	callq  400ce0 <__stack_chk_fail@plt>

00000000004017c5 <getbuf>:
  4017c5:	48 83 ec 38          	sub    $0x38,%rsp
  4017c9:	48 89 e7             	mov    %rsp,%rdi
  4017cc:	e8 94 02 00 00       	callq  401a65 <Gets>
  4017d1:	b8 01 00 00 00       	mov    $0x1,%eax
  4017d6:	48 83 c4 38          	add    $0x38,%rsp
  4017da:	c3                   	retq   

00000000004017db <touch1>:
  4017db:	48 83 ec 08          	sub    $0x8,%rsp
  4017df:	c7 05 13 2d 20 00 01 	movl   $0x1,0x202d13(%rip)        # 6044fc <vlevel>
  4017e6:	00 00 00 
  4017e9:	48 8d 3d 70 19 00 00 	lea    0x1970(%rip),%rdi        # 403160 <_IO_stdin_used+0x2d0>
  4017f0:	e8 cb f4 ff ff       	callq  400cc0 <puts@plt>
  4017f5:	bf 01 00 00 00       	mov    $0x1,%edi
  4017fa:	e8 d6 04 00 00       	callq  401cd5 <validate>
  4017ff:	bf 00 00 00 00       	mov    $0x0,%edi
  401804:	e8 27 f6 ff ff       	callq  400e30 <exit@plt>

0000000000401809 <touch2>:
  401809:	48 83 ec 08          	sub    $0x8,%rsp
  40180d:	89 fa                	mov    %edi,%edx
  40180f:	c7 05 e3 2c 20 00 02 	movl   $0x2,0x202ce3(%rip)        # 6044fc <vlevel>
  401816:	00 00 00 
  401819:	39 3d e5 2c 20 00    	cmp    %edi,0x202ce5(%rip)        # 604504 <cookie>
  40181f:	74 2a                	je     40184b <touch2+0x42>
  401821:	48 8d 35 88 19 00 00 	lea    0x1988(%rip),%rsi        # 4031b0 <_IO_stdin_used+0x320>
  401828:	bf 01 00 00 00       	mov    $0x1,%edi
  40182d:	b8 00 00 00 00       	mov    $0x0,%eax
  401832:	e8 a9 f5 ff ff       	callq  400de0 <__printf_chk@plt>
  401837:	bf 02 00 00 00       	mov    $0x2,%edi
  40183c:	e8 64 05 00 00       	callq  401da5 <fail>
  401841:	bf 00 00 00 00       	mov    $0x0,%edi
  401846:	e8 e5 f5 ff ff       	callq  400e30 <exit@plt>
  40184b:	48 8d 35 36 19 00 00 	lea    0x1936(%rip),%rsi        # 403188 <_IO_stdin_used+0x2f8>
  401852:	bf 01 00 00 00       	mov    $0x1,%edi
  401857:	b8 00 00 00 00       	mov    $0x0,%eax
  40185c:	e8 7f f5 ff ff       	callq  400de0 <__printf_chk@plt>
  401861:	bf 02 00 00 00       	mov    $0x2,%edi
  401866:	e8 6a 04 00 00       	callq  401cd5 <validate>
  40186b:	eb d4                	jmp    401841 <touch2+0x38>

000000000040186d <hexmatch>:
  40186d:	41 54                	push   %r12
  40186f:	55                   	push   %rbp
  401870:	53                   	push   %rbx
  401871:	48 83 c4 80          	add    $0xffffffffffffff80,%rsp
  401875:	89 fd                	mov    %edi,%ebp
  401877:	48 89 f3             	mov    %rsi,%rbx
  40187a:	64 48 8b 04 25 28 00 	mov    %fs:0x28,%rax
  401881:	00 00 
  401883:	48 89 44 24 78       	mov    %rax,0x78(%rsp)
  401888:	31 c0                	xor    %eax,%eax
  40188a:	e8 11 f5 ff ff       	callq  400da0 <random@plt>
  40188f:	48 89 c1             	mov    %rax,%rcx
  401892:	48 ba 0b d7 a3 70 3d 	movabs $0xa3d70a3d70a3d70b,%rdx
  401899:	0a d7 a3 
  40189c:	48 f7 ea             	imul   %rdx
  40189f:	48 01 ca             	add    %rcx,%rdx
  4018a2:	48 c1 fa 06          	sar    $0x6,%rdx
  4018a6:	48 89 c8             	mov    %rcx,%rax
  4018a9:	48 c1 f8 3f          	sar    $0x3f,%rax
  4018ad:	48 29 c2             	sub    %rax,%rdx
  4018b0:	48 8d 04 92          	lea    (%rdx,%rdx,4),%rax
  4018b4:	48 8d 14 80          	lea    (%rax,%rax,4),%rdx
  4018b8:	48 8d 04 95 00 00 00 	lea    0x0(,%rdx,4),%rax
  4018bf:	00 
  4018c0:	48 29 c1             	sub    %rax,%rcx
  4018c3:	4c 8d 24 0c          	lea    (%rsp,%rcx,1),%r12
  4018c7:	41 89 e8             	mov    %ebp,%r8d
  4018ca:	48 8d 0d ac 18 00 00 	lea    0x18ac(%rip),%rcx        # 40317d <_IO_stdin_used+0x2ed>
  4018d1:	48 c7 c2 ff ff ff ff 	mov    $0xffffffffffffffff,%rdx
  4018d8:	be 01 00 00 00       	mov    $0x1,%esi
  4018dd:	4c 89 e7             	mov    %r12,%rdi
  4018e0:	b8 00 00 00 00       	mov    $0x0,%eax
  4018e5:	e8 76 f5 ff ff       	callq  400e60 <__sprintf_chk@plt>
  4018ea:	ba 09 00 00 00       	mov    $0x9,%edx
  4018ef:	4c 89 e6             	mov    %r12,%rsi
  4018f2:	48 89 df             	mov    %rbx,%rdi
  4018f5:	e8 a6 f3 ff ff       	callq  400ca0 <strncmp@plt>
  4018fa:	85 c0                	test   %eax,%eax
  4018fc:	0f 94 c0             	sete   %al
  4018ff:	48 8b 5c 24 78       	mov    0x78(%rsp),%rbx
  401904:	64 48 33 1c 25 28 00 	xor    %fs:0x28,%rbx
  40190b:	00 00 
  40190d:	75 0c                	jne    40191b <hexmatch+0xae>
  40190f:	0f b6 c0             	movzbl %al,%eax
  401912:	48 83 ec 80          	sub    $0xffffffffffffff80,%rsp
  401916:	5b                   	pop    %rbx
  401917:	5d                   	pop    %rbp
  401918:	41 5c                	pop    %r12
  40191a:	c3                   	retq   
  40191b:	e8 c0 f3 ff ff       	callq  400ce0 <__stack_chk_fail@plt>

0000000000401920 <touch3>:
  401920:	53                   	push   %rbx
  401921:	48 89 fb             	mov    %rdi,%rbx
  401924:	c7 05 ce 2b 20 00 03 	movl   $0x3,0x202bce(%rip)        # 6044fc <vlevel>
  40192b:	00 00 00 
  40192e:	48 89 fe             	mov    %rdi,%rsi
  401931:	8b 3d cd 2b 20 00    	mov    0x202bcd(%rip),%edi        # 604504 <cookie>
  401937:	e8 31 ff ff ff       	callq  40186d <hexmatch>
  40193c:	85 c0                	test   %eax,%eax
  40193e:	74 2d                	je     40196d <touch3+0x4d>
  401940:	48 89 da             	mov    %rbx,%rdx
  401943:	48 8d 35 8e 18 00 00 	lea    0x188e(%rip),%rsi        # 4031d8 <_IO_stdin_used+0x348>
  40194a:	bf 01 00 00 00       	mov    $0x1,%edi
  40194f:	b8 00 00 00 00       	mov    $0x0,%eax
  401954:	e8 87 f4 ff ff       	callq  400de0 <__printf_chk@plt>
  401959:	bf 03 00 00 00       	mov    $0x3,%edi
  40195e:	e8 72 03 00 00       	callq  401cd5 <validate>
  401963:	bf 00 00 00 00       	mov    $0x0,%edi
  401968:	e8 c3 f4 ff ff       	callq  400e30 <exit@plt>
  40196d:	48 89 da             	mov    %rbx,%rdx
  401970:	48 8d 35 89 18 00 00 	lea    0x1889(%rip),%rsi        # 403200 <_IO_stdin_used+0x370>
  401977:	bf 01 00 00 00       	mov    $0x1,%edi
  40197c:	b8 00 00 00 00       	mov    $0x0,%eax
  401981:	e8 5a f4 ff ff       	callq  400de0 <__printf_chk@plt>
  401986:	bf 03 00 00 00       	mov    $0x3,%edi
  40198b:	e8 15 04 00 00       	callq  401da5 <fail>
  401990:	eb d1                	jmp    401963 <touch3+0x43>

0000000000401992 <test>:
  401992:	48 83 ec 08          	sub    $0x8,%rsp
  401996:	b8 00 00 00 00       	mov    $0x0,%eax
  40199b:	e8 25 fe ff ff       	callq  4017c5 <getbuf>
  4019a0:	89 c2                	mov    %eax,%edx
  4019a2:	48 8d 35 7f 18 00 00 	lea    0x187f(%rip),%rsi        # 403228 <_IO_stdin_used+0x398>
  4019a9:	bf 01 00 00 00       	mov    $0x1,%edi
  4019ae:	b8 00 00 00 00       	mov    $0x0,%eax
  4019b3:	e8 28 f4 ff ff       	callq  400de0 <__printf_chk@plt>
  4019b8:	48 83 c4 08          	add    $0x8,%rsp
  4019bc:	c3                   	retq   

00000000004019bd <save_char>:
  4019bd:	8b 05 61 37 20 00    	mov    0x203761(%rip),%eax        # 605124 <gets_cnt>
  4019c3:	3d ff 03 00 00       	cmp    $0x3ff,%eax
  4019c8:	7f 4a                	jg     401a14 <save_char+0x57>
  4019ca:	89 f9                	mov    %edi,%ecx
  4019cc:	c0 e9 04             	shr    $0x4,%cl
  4019cf:	8d 14 40             	lea    (%rax,%rax,2),%edx
  4019d2:	4c 8d 05 77 1b 00 00 	lea    0x1b77(%rip),%r8        # 403550 <trans_char>
  4019d9:	83 e1 0f             	and    $0xf,%ecx
  4019dc:	45 0f b6 0c 08       	movzbl (%r8,%rcx,1),%r9d
  4019e1:	48 8d 0d 38 2b 20 00 	lea    0x202b38(%rip),%rcx        # 604520 <gets_buf>
  4019e8:	48 63 f2             	movslq %edx,%rsi
  4019eb:	44 88 0c 31          	mov    %r9b,(%rcx,%rsi,1)
  4019ef:	8d 72 01             	lea    0x1(%rdx),%esi
  4019f2:	83 e7 0f             	and    $0xf,%edi
  4019f5:	41 0f b6 3c 38       	movzbl (%r8,%rdi,1),%edi
  4019fa:	48 63 f6             	movslq %esi,%rsi
  4019fd:	40 88 3c 31          	mov    %dil,(%rcx,%rsi,1)
  401a01:	83 c2 02             	add    $0x2,%edx
  401a04:	48 63 d2             	movslq %edx,%rdx
  401a07:	c6 04 11 20          	movb   $0x20,(%rcx,%rdx,1)
  401a0b:	83 c0 01             	add    $0x1,%eax
  401a0e:	89 05 10 37 20 00    	mov    %eax,0x203710(%rip)        # 605124 <gets_cnt>
  401a14:	f3 c3                	repz retq 

0000000000401a16 <save_term>:
  401a16:	8b 05 08 37 20 00    	mov    0x203708(%rip),%eax        # 605124 <gets_cnt>
  401a1c:	8d 04 40             	lea    (%rax,%rax,2),%eax
  401a1f:	48 98                	cltq   
  401a21:	48 8d 15 f8 2a 20 00 	lea    0x202af8(%rip),%rdx        # 604520 <gets_buf>
  401a28:	c6 04 02 00          	movb   $0x0,(%rdx,%rax,1)
  401a2c:	c3                   	retq   

0000000000401a2d <check_fail>:
  401a2d:	48 83 ec 08          	sub    $0x8,%rsp
  401a31:	0f be 15 f0 36 20 00 	movsbl 0x2036f0(%rip),%edx        # 605128 <target_prefix>
  401a38:	4c 8d 05 e1 2a 20 00 	lea    0x202ae1(%rip),%r8        # 604520 <gets_buf>
  401a3f:	8b 0d b3 2a 20 00    	mov    0x202ab3(%rip),%ecx        # 6044f8 <check_level>
  401a45:	48 8d 35 ff 17 00 00 	lea    0x17ff(%rip),%rsi        # 40324b <_IO_stdin_used+0x3bb>
  401a4c:	bf 01 00 00 00       	mov    $0x1,%edi
  401a51:	b8 00 00 00 00       	mov    $0x0,%eax
  401a56:	e8 85 f3 ff ff       	callq  400de0 <__printf_chk@plt>
  401a5b:	bf 01 00 00 00       	mov    $0x1,%edi
  401a60:	e8 cb f3 ff ff       	callq  400e30 <exit@plt>

0000000000401a65 <Gets>:
  401a65:	41 54                	push   %r12
  401a67:	55                   	push   %rbp
  401a68:	53                   	push   %rbx
  401a69:	49 89 fc             	mov    %rdi,%r12
  401a6c:	c7 05 ae 36 20 00 00 	movl   $0x0,0x2036ae(%rip)        # 605124 <gets_cnt>
  401a73:	00 00 00 
  401a76:	48 89 fb             	mov    %rdi,%rbx
  401a79:	eb 11                	jmp    401a8c <Gets+0x27>
  401a7b:	48 8d 6b 01          	lea    0x1(%rbx),%rbp
  401a7f:	88 03                	mov    %al,(%rbx)
  401a81:	0f b6 f8             	movzbl %al,%edi
  401a84:	e8 34 ff ff ff       	callq  4019bd <save_char>
  401a89:	48 89 eb             	mov    %rbp,%rbx
  401a8c:	48 8b 3d 5d 2a 20 00 	mov    0x202a5d(%rip),%rdi        # 6044f0 <infile>
  401a93:	e8 18 f3 ff ff       	callq  400db0 <_IO_getc@plt>
  401a98:	83 f8 ff             	cmp    $0xffffffff,%eax
  401a9b:	74 05                	je     401aa2 <Gets+0x3d>
  401a9d:	83 f8 0a             	cmp    $0xa,%eax
  401aa0:	75 d9                	jne    401a7b <Gets+0x16>
  401aa2:	c6 03 00             	movb   $0x0,(%rbx)
  401aa5:	b8 00 00 00 00       	mov    $0x0,%eax
  401aaa:	e8 67 ff ff ff       	callq  401a16 <save_term>
  401aaf:	4c 89 e0             	mov    %r12,%rax
  401ab2:	5b                   	pop    %rbx
  401ab3:	5d                   	pop    %rbp
  401ab4:	41 5c                	pop    %r12
  401ab6:	c3                   	retq   

0000000000401ab7 <notify_server>:
  401ab7:	55                   	push   %rbp
  401ab8:	53                   	push   %rbx
  401ab9:	48 81 ec 18 40 00 00 	sub    $0x4018,%rsp
  401ac0:	64 48 8b 04 25 28 00 	mov    %fs:0x28,%rax
  401ac7:	00 00 
  401ac9:	48 89 84 24 08 40 00 	mov    %rax,0x4008(%rsp)
  401ad0:	00 
  401ad1:	31 c0                	xor    %eax,%eax
  401ad3:	83 3d 2e 2a 20 00 00 	cmpl   $0x0,0x202a2e(%rip)        # 604508 <is_checker>
  401ada:	0f 85 d2 00 00 00    	jne    401bb2 <notify_server+0xfb>
  401ae0:	89 fb                	mov    %edi,%ebx
  401ae2:	8b 05 3c 36 20 00    	mov    0x20363c(%rip),%eax        # 605124 <gets_cnt>
  401ae8:	83 c0 64             	add    $0x64,%eax
  401aeb:	3d 00 20 00 00       	cmp    $0x2000,%eax
  401af0:	0f 8f dd 00 00 00    	jg     401bd3 <notify_server+0x11c>
  401af6:	0f be 05 2b 36 20 00 	movsbl 0x20362b(%rip),%eax        # 605128 <target_prefix>
  401afd:	83 3d 84 29 20 00 00 	cmpl   $0x0,0x202984(%rip)        # 604488 <notify>
  401b04:	0f 84 e9 00 00 00    	je     401bf3 <notify_server+0x13c>
  401b0a:	8b 15 f0 29 20 00    	mov    0x2029f0(%rip),%edx        # 604500 <authkey>
  401b10:	85 db                	test   %ebx,%ebx
  401b12:	0f 84 e5 00 00 00    	je     401bfd <notify_server+0x146>
  401b18:	48 8d 2d 42 17 00 00 	lea    0x1742(%rip),%rbp        # 403261 <_IO_stdin_used+0x3d1>
  401b1f:	48 89 e7             	mov    %rsp,%rdi
  401b22:	48 8d 0d f7 29 20 00 	lea    0x2029f7(%rip),%rcx        # 604520 <gets_buf>
  401b29:	51                   	push   %rcx
  401b2a:	56                   	push   %rsi
  401b2b:	50                   	push   %rax
  401b2c:	52                   	push   %rdx
  401b2d:	49 89 e9             	mov    %rbp,%r9
  401b30:	4c 8b 05 f9 25 20 00 	mov    0x2025f9(%rip),%r8        # 604130 <target_id>
  401b37:	48 8d 0d 2d 17 00 00 	lea    0x172d(%rip),%rcx        # 40326b <_IO_stdin_used+0x3db>
  401b3e:	ba 00 20 00 00       	mov    $0x2000,%edx
  401b43:	be 01 00 00 00       	mov    $0x1,%esi
  401b48:	b8 00 00 00 00       	mov    $0x0,%eax
  401b4d:	e8 0e f3 ff ff       	callq  400e60 <__sprintf_chk@plt>
  401b52:	48 83 c4 20          	add    $0x20,%rsp
  401b56:	83 3d 2b 29 20 00 00 	cmpl   $0x0,0x20292b(%rip)        # 604488 <notify>
  401b5d:	0f 84 df 00 00 00    	je     401c42 <notify_server+0x18b>
  401b63:	85 db                	test   %ebx,%ebx
  401b65:	0f 84 c6 00 00 00    	je     401c31 <notify_server+0x17a>
  401b6b:	48 89 e1             	mov    %rsp,%rcx
  401b6e:	4c 8d 8c 24 00 20 00 	lea    0x2000(%rsp),%r9
  401b75:	00 
  401b76:	41 b8 00 00 00 00    	mov    $0x0,%r8d
  401b7c:	48 8b 15 c5 25 20 00 	mov    0x2025c5(%rip),%rdx        # 604148 <lab>
  401b83:	48 8b 35 c6 25 20 00 	mov    0x2025c6(%rip),%rsi        # 604150 <course>
  401b8a:	48 8b 3d af 25 20 00 	mov    0x2025af(%rip),%rdi        # 604140 <user_id>
  401b91:	e8 af 11 00 00       	callq  402d45 <driver_post>
  401b96:	85 c0                	test   %eax,%eax
  401b98:	78 6f                	js     401c09 <notify_server+0x152>
  401b9a:	48 8d 3d 0f 18 00 00 	lea    0x180f(%rip),%rdi        # 4033b0 <_IO_stdin_used+0x520>
  401ba1:	e8 1a f1 ff ff       	callq  400cc0 <puts@plt>
  401ba6:	48 8d 3d e8 16 00 00 	lea    0x16e8(%rip),%rdi        # 403295 <_IO_stdin_used+0x405>
  401bad:	e8 0e f1 ff ff       	callq  400cc0 <puts@plt>
  401bb2:	48 8b 84 24 08 40 00 	mov    0x4008(%rsp),%rax
  401bb9:	00 
  401bba:	64 48 33 04 25 28 00 	xor    %fs:0x28,%rax
  401bc1:	00 00 
  401bc3:	0f 85 07 01 00 00    	jne    401cd0 <notify_server+0x219>
  401bc9:	48 81 c4 18 40 00 00 	add    $0x4018,%rsp
  401bd0:	5b                   	pop    %rbx
  401bd1:	5d                   	pop    %rbp
  401bd2:	c3                   	retq   
  401bd3:	48 8d 35 a6 17 00 00 	lea    0x17a6(%rip),%rsi        # 403380 <_IO_stdin_used+0x4f0>
  401bda:	bf 01 00 00 00       	mov    $0x1,%edi
  401bdf:	b8 00 00 00 00       	mov    $0x0,%eax
  401be4:	e8 f7 f1 ff ff       	callq  400de0 <__printf_chk@plt>
  401be9:	bf 01 00 00 00       	mov    $0x1,%edi
  401bee:	e8 3d f2 ff ff       	callq  400e30 <exit@plt>
  401bf3:	ba ff ff ff ff       	mov    $0xffffffff,%edx
  401bf8:	e9 13 ff ff ff       	jmpq   401b10 <notify_server+0x59>
  401bfd:	48 8d 2d 62 16 00 00 	lea    0x1662(%rip),%rbp        # 403266 <_IO_stdin_used+0x3d6>
  401c04:	e9 16 ff ff ff       	jmpq   401b1f <notify_server+0x68>
  401c09:	48 8d 94 24 00 20 00 	lea    0x2000(%rsp),%rdx
  401c10:	00 
  401c11:	48 8d 35 71 16 00 00 	lea    0x1671(%rip),%rsi        # 403289 <_IO_stdin_used+0x3f9>
  401c18:	bf 01 00 00 00       	mov    $0x1,%edi
  401c1d:	b8 00 00 00 00       	mov    $0x0,%eax
  401c22:	e8 b9 f1 ff ff       	callq  400de0 <__printf_chk@plt>
  401c27:	bf 01 00 00 00       	mov    $0x1,%edi
  401c2c:	e8 ff f1 ff ff       	callq  400e30 <exit@plt>
  401c31:	48 8d 3d 67 16 00 00 	lea    0x1667(%rip),%rdi        # 40329f <_IO_stdin_used+0x40f>
  401c38:	e8 83 f0 ff ff       	callq  400cc0 <puts@plt>
  401c3d:	e9 70 ff ff ff       	jmpq   401bb2 <notify_server+0xfb>
  401c42:	48 89 ea             	mov    %rbp,%rdx
  401c45:	48 8d 35 9c 17 00 00 	lea    0x179c(%rip),%rsi        # 4033e8 <_IO_stdin_used+0x558>
  401c4c:	bf 01 00 00 00       	mov    $0x1,%edi
  401c51:	b8 00 00 00 00       	mov    $0x0,%eax
  401c56:	e8 85 f1 ff ff       	callq  400de0 <__printf_chk@plt>
  401c5b:	48 8b 15 de 24 20 00 	mov    0x2024de(%rip),%rdx        # 604140 <user_id>
  401c62:	48 8d 35 3d 16 00 00 	lea    0x163d(%rip),%rsi        # 4032a6 <_IO_stdin_used+0x416>
  401c69:	bf 01 00 00 00       	mov    $0x1,%edi
  401c6e:	b8 00 00 00 00       	mov    $0x0,%eax
  401c73:	e8 68 f1 ff ff       	callq  400de0 <__printf_chk@plt>
  401c78:	48 8b 15 d1 24 20 00 	mov    0x2024d1(%rip),%rdx        # 604150 <course>
  401c7f:	48 8d 35 2d 16 00 00 	lea    0x162d(%rip),%rsi        # 4032b3 <_IO_stdin_used+0x423>
  401c86:	bf 01 00 00 00       	mov    $0x1,%edi
  401c8b:	b8 00 00 00 00       	mov    $0x0,%eax
  401c90:	e8 4b f1 ff ff       	callq  400de0 <__printf_chk@plt>
  401c95:	48 8b 15 ac 24 20 00 	mov    0x2024ac(%rip),%rdx        # 604148 <lab>
  401c9c:	48 8d 35 1c 16 00 00 	lea    0x161c(%rip),%rsi        # 4032bf <_IO_stdin_used+0x42f>
  401ca3:	bf 01 00 00 00       	mov    $0x1,%edi
  401ca8:	b8 00 00 00 00       	mov    $0x0,%eax
  401cad:	e8 2e f1 ff ff       	callq  400de0 <__printf_chk@plt>
  401cb2:	48 89 e2             	mov    %rsp,%rdx
  401cb5:	48 8d 35 0c 16 00 00 	lea    0x160c(%rip),%rsi        # 4032c8 <_IO_stdin_used+0x438>
  401cbc:	bf 01 00 00 00       	mov    $0x1,%edi
  401cc1:	b8 00 00 00 00       	mov    $0x0,%eax
  401cc6:	e8 15 f1 ff ff       	callq  400de0 <__printf_chk@plt>
  401ccb:	e9 e2 fe ff ff       	jmpq   401bb2 <notify_server+0xfb>
  401cd0:	e8 0b f0 ff ff       	callq  400ce0 <__stack_chk_fail@plt>

0000000000401cd5 <validate>:
  401cd5:	53                   	push   %rbx
  401cd6:	89 fb                	mov    %edi,%ebx
  401cd8:	83 3d 29 28 20 00 00 	cmpl   $0x0,0x202829(%rip)        # 604508 <is_checker>
  401cdf:	74 72                	je     401d53 <validate+0x7e>
  401ce1:	39 3d 15 28 20 00    	cmp    %edi,0x202815(%rip)        # 6044fc <vlevel>
  401ce7:	75 32                	jne    401d1b <validate+0x46>
  401ce9:	8b 15 09 28 20 00    	mov    0x202809(%rip),%edx        # 6044f8 <check_level>
  401cef:	39 fa                	cmp    %edi,%edx
  401cf1:	75 3e                	jne    401d31 <validate+0x5c>
  401cf3:	0f be 15 2e 34 20 00 	movsbl 0x20342e(%rip),%edx        # 605128 <target_prefix>
  401cfa:	4c 8d 05 1f 28 20 00 	lea    0x20281f(%rip),%r8        # 604520 <gets_buf>
  401d01:	89 f9                	mov    %edi,%ecx
  401d03:	48 8d 35 e8 15 00 00 	lea    0x15e8(%rip),%rsi        # 4032f2 <_IO_stdin_used+0x462>
  401d0a:	bf 01 00 00 00       	mov    $0x1,%edi
  401d0f:	b8 00 00 00 00       	mov    $0x0,%eax
  401d14:	e8 c7 f0 ff ff       	callq  400de0 <__printf_chk@plt>
  401d19:	5b                   	pop    %rbx
  401d1a:	c3                   	retq   
  401d1b:	48 8d 3d b2 15 00 00 	lea    0x15b2(%rip),%rdi        # 4032d4 <_IO_stdin_used+0x444>
  401d22:	e8 99 ef ff ff       	callq  400cc0 <puts@plt>
  401d27:	b8 00 00 00 00       	mov    $0x0,%eax
  401d2c:	e8 fc fc ff ff       	callq  401a2d <check_fail>
  401d31:	89 f9                	mov    %edi,%ecx
  401d33:	48 8d 35 d6 16 00 00 	lea    0x16d6(%rip),%rsi        # 403410 <_IO_stdin_used+0x580>
  401d3a:	bf 01 00 00 00       	mov    $0x1,%edi
  401d3f:	b8 00 00 00 00       	mov    $0x0,%eax
  401d44:	e8 97 f0 ff ff       	callq  400de0 <__printf_chk@plt>
  401d49:	b8 00 00 00 00       	mov    $0x0,%eax
  401d4e:	e8 da fc ff ff       	callq  401a2d <check_fail>
  401d53:	39 3d a3 27 20 00    	cmp    %edi,0x2027a3(%rip)        # 6044fc <vlevel>
  401d59:	74 1a                	je     401d75 <validate+0xa0>
  401d5b:	48 8d 3d 72 15 00 00 	lea    0x1572(%rip),%rdi        # 4032d4 <_IO_stdin_used+0x444>
  401d62:	e8 59 ef ff ff       	callq  400cc0 <puts@plt>
  401d67:	89 de                	mov    %ebx,%esi
  401d69:	bf 00 00 00 00       	mov    $0x0,%edi
  401d6e:	e8 44 fd ff ff       	callq  401ab7 <notify_server>
  401d73:	eb a4                	jmp    401d19 <validate+0x44>
  401d75:	0f be 0d ac 33 20 00 	movsbl 0x2033ac(%rip),%ecx        # 605128 <target_prefix>
  401d7c:	89 fa                	mov    %edi,%edx
  401d7e:	48 8d 35 b3 16 00 00 	lea    0x16b3(%rip),%rsi        # 403438 <_IO_stdin_used+0x5a8>
  401d85:	bf 01 00 00 00       	mov    $0x1,%edi
  401d8a:	b8 00 00 00 00       	mov    $0x0,%eax
  401d8f:	e8 4c f0 ff ff       	callq  400de0 <__printf_chk@plt>
  401d94:	89 de                	mov    %ebx,%esi
  401d96:	bf 01 00 00 00       	mov    $0x1,%edi
  401d9b:	e8 17 fd ff ff       	callq  401ab7 <notify_server>
  401da0:	e9 74 ff ff ff       	jmpq   401d19 <validate+0x44>

0000000000401da5 <fail>:
  401da5:	48 83 ec 08          	sub    $0x8,%rsp
  401da9:	83 3d 58 27 20 00 00 	cmpl   $0x0,0x202758(%rip)        # 604508 <is_checker>
  401db0:	75 11                	jne    401dc3 <fail+0x1e>
  401db2:	89 fe                	mov    %edi,%esi
  401db4:	bf 00 00 00 00       	mov    $0x0,%edi
  401db9:	e8 f9 fc ff ff       	callq  401ab7 <notify_server>
  401dbe:	48 83 c4 08          	add    $0x8,%rsp
  401dc2:	c3                   	retq   
  401dc3:	b8 00 00 00 00       	mov    $0x0,%eax
  401dc8:	e8 60 fc ff ff       	callq  401a2d <check_fail>

0000000000401dcd <bushandler>:
  401dcd:	48 83 ec 08          	sub    $0x8,%rsp
  401dd1:	83 3d 30 27 20 00 00 	cmpl   $0x0,0x202730(%rip)        # 604508 <is_checker>
  401dd8:	74 16                	je     401df0 <bushandler+0x23>
  401dda:	48 8d 3d 26 15 00 00 	lea    0x1526(%rip),%rdi        # 403307 <_IO_stdin_used+0x477>
  401de1:	e8 da ee ff ff       	callq  400cc0 <puts@plt>
  401de6:	b8 00 00 00 00       	mov    $0x0,%eax
  401deb:	e8 3d fc ff ff       	callq  401a2d <check_fail>
  401df0:	48 8d 3d 79 16 00 00 	lea    0x1679(%rip),%rdi        # 403470 <_IO_stdin_used+0x5e0>
  401df7:	e8 c4 ee ff ff       	callq  400cc0 <puts@plt>
  401dfc:	48 8d 3d 0e 15 00 00 	lea    0x150e(%rip),%rdi        # 403311 <_IO_stdin_used+0x481>
  401e03:	e8 b8 ee ff ff       	callq  400cc0 <puts@plt>
  401e08:	be 00 00 00 00       	mov    $0x0,%esi
  401e0d:	bf 00 00 00 00       	mov    $0x0,%edi
  401e12:	e8 a0 fc ff ff       	callq  401ab7 <notify_server>
  401e17:	bf 01 00 00 00       	mov    $0x1,%edi
  401e1c:	e8 0f f0 ff ff       	callq  400e30 <exit@plt>

0000000000401e21 <seghandler>:
  401e21:	48 83 ec 08          	sub    $0x8,%rsp
  401e25:	83 3d dc 26 20 00 00 	cmpl   $0x0,0x2026dc(%rip)        # 604508 <is_checker>
  401e2c:	74 16                	je     401e44 <seghandler+0x23>
  401e2e:	48 8d 3d f2 14 00 00 	lea    0x14f2(%rip),%rdi        # 403327 <_IO_stdin_used+0x497>
  401e35:	e8 86 ee ff ff       	callq  400cc0 <puts@plt>
  401e3a:	b8 00 00 00 00       	mov    $0x0,%eax
  401e3f:	e8 e9 fb ff ff       	callq  401a2d <check_fail>
  401e44:	48 8d 3d 45 16 00 00 	lea    0x1645(%rip),%rdi        # 403490 <_IO_stdin_used+0x600>
  401e4b:	e8 70 ee ff ff       	callq  400cc0 <puts@plt>
  401e50:	48 8d 3d ba 14 00 00 	lea    0x14ba(%rip),%rdi        # 403311 <_IO_stdin_used+0x481>
  401e57:	e8 64 ee ff ff       	callq  400cc0 <puts@plt>
  401e5c:	be 00 00 00 00       	mov    $0x0,%esi
  401e61:	bf 00 00 00 00       	mov    $0x0,%edi
  401e66:	e8 4c fc ff ff       	callq  401ab7 <notify_server>
  401e6b:	bf 01 00 00 00       	mov    $0x1,%edi
  401e70:	e8 bb ef ff ff       	callq  400e30 <exit@plt>

0000000000401e75 <illegalhandler>:
  401e75:	48 83 ec 08          	sub    $0x8,%rsp
  401e79:	83 3d 88 26 20 00 00 	cmpl   $0x0,0x202688(%rip)        # 604508 <is_checker>
  401e80:	74 16                	je     401e98 <illegalhandler+0x23>
  401e82:	48 8d 3d b1 14 00 00 	lea    0x14b1(%rip),%rdi        # 40333a <_IO_stdin_used+0x4aa>
  401e89:	e8 32 ee ff ff       	callq  400cc0 <puts@plt>
  401e8e:	b8 00 00 00 00       	mov    $0x0,%eax
  401e93:	e8 95 fb ff ff       	callq  401a2d <check_fail>
  401e98:	48 8d 3d 19 16 00 00 	lea    0x1619(%rip),%rdi        # 4034b8 <_IO_stdin_used+0x628>
  401e9f:	e8 1c ee ff ff       	callq  400cc0 <puts@plt>
  401ea4:	48 8d 3d 66 14 00 00 	lea    0x1466(%rip),%rdi        # 403311 <_IO_stdin_used+0x481>
  401eab:	e8 10 ee ff ff       	callq  400cc0 <puts@plt>
  401eb0:	be 00 00 00 00       	mov    $0x0,%esi
  401eb5:	bf 00 00 00 00       	mov    $0x0,%edi
  401eba:	e8 f8 fb ff ff       	callq  401ab7 <notify_server>
  401ebf:	bf 01 00 00 00       	mov    $0x1,%edi
  401ec4:	e8 67 ef ff ff       	callq  400e30 <exit@plt>

0000000000401ec9 <sigalrmhandler>:
  401ec9:	48 83 ec 08          	sub    $0x8,%rsp
  401ecd:	83 3d 34 26 20 00 00 	cmpl   $0x0,0x202634(%rip)        # 604508 <is_checker>
  401ed4:	74 16                	je     401eec <sigalrmhandler+0x23>
  401ed6:	48 8d 3d 71 14 00 00 	lea    0x1471(%rip),%rdi        # 40334e <_IO_stdin_used+0x4be>
  401edd:	e8 de ed ff ff       	callq  400cc0 <puts@plt>
  401ee2:	b8 00 00 00 00       	mov    $0x0,%eax
  401ee7:	e8 41 fb ff ff       	callq  401a2d <check_fail>
  401eec:	ba 05 00 00 00       	mov    $0x5,%edx
  401ef1:	48 8d 35 f0 15 00 00 	lea    0x15f0(%rip),%rsi        # 4034e8 <_IO_stdin_used+0x658>
  401ef8:	bf 01 00 00 00       	mov    $0x1,%edi
  401efd:	b8 00 00 00 00       	mov    $0x0,%eax
  401f02:	e8 d9 ee ff ff       	callq  400de0 <__printf_chk@plt>
  401f07:	be 00 00 00 00       	mov    $0x0,%esi
  401f0c:	bf 00 00 00 00       	mov    $0x0,%edi
  401f11:	e8 a1 fb ff ff       	callq  401ab7 <notify_server>
  401f16:	bf 01 00 00 00       	mov    $0x1,%edi
  401f1b:	e8 10 ef ff ff       	callq  400e30 <exit@plt>

0000000000401f20 <launch>:
  401f20:	55                   	push   %rbp
  401f21:	48 89 e5             	mov    %rsp,%rbp
  401f24:	48 83 ec 10          	sub    $0x10,%rsp
  401f28:	48 89 fa             	mov    %rdi,%rdx
  401f2b:	64 48 8b 04 25 28 00 	mov    %fs:0x28,%rax
  401f32:	00 00 
  401f34:	48 89 45 f8          	mov    %rax,-0x8(%rbp)
  401f38:	31 c0                	xor    %eax,%eax
  401f3a:	48 8d 47 1e          	lea    0x1e(%rdi),%rax
  401f3e:	48 83 e0 f0          	and    $0xfffffffffffffff0,%rax
  401f42:	48 29 c4             	sub    %rax,%rsp
  401f45:	48 8d 7c 24 0f       	lea    0xf(%rsp),%rdi
  401f4a:	48 83 e7 f0          	and    $0xfffffffffffffff0,%rdi
  401f4e:	be f4 00 00 00       	mov    $0xf4,%esi
  401f53:	e8 a8 ed ff ff       	callq  400d00 <memset@plt>
  401f58:	48 8b 05 41 25 20 00 	mov    0x202541(%rip),%rax        # 6044a0 <stdin@@GLIBC_2.2.5>
  401f5f:	48 39 05 8a 25 20 00 	cmp    %rax,0x20258a(%rip)        # 6044f0 <infile>
  401f66:	74 3a                	je     401fa2 <launch+0x82>
  401f68:	c7 05 8a 25 20 00 00 	movl   $0x0,0x20258a(%rip)        # 6044fc <vlevel>
  401f6f:	00 00 00 
  401f72:	b8 00 00 00 00       	mov    $0x0,%eax
  401f77:	e8 16 fa ff ff       	callq  401992 <test>
  401f7c:	83 3d 85 25 20 00 00 	cmpl   $0x0,0x202585(%rip)        # 604508 <is_checker>
  401f83:	75 35                	jne    401fba <launch+0x9a>
  401f85:	48 8d 3d e2 13 00 00 	lea    0x13e2(%rip),%rdi        # 40336e <_IO_stdin_used+0x4de>
  401f8c:	e8 2f ed ff ff       	callq  400cc0 <puts@plt>
  401f91:	48 8b 45 f8          	mov    -0x8(%rbp),%rax
  401f95:	64 48 33 04 25 28 00 	xor    %fs:0x28,%rax
  401f9c:	00 00 
  401f9e:	75 30                	jne    401fd0 <launch+0xb0>
  401fa0:	c9                   	leaveq 
  401fa1:	c3                   	retq   
  401fa2:	48 8d 35 ad 13 00 00 	lea    0x13ad(%rip),%rsi        # 403356 <_IO_stdin_used+0x4c6>
  401fa9:	bf 01 00 00 00       	mov    $0x1,%edi
  401fae:	b8 00 00 00 00       	mov    $0x0,%eax
  401fb3:	e8 28 ee ff ff       	callq  400de0 <__printf_chk@plt>
  401fb8:	eb ae                	jmp    401f68 <launch+0x48>
  401fba:	48 8d 3d a2 13 00 00 	lea    0x13a2(%rip),%rdi        # 403363 <_IO_stdin_used+0x4d3>
  401fc1:	e8 fa ec ff ff       	callq  400cc0 <puts@plt>
  401fc6:	b8 00 00 00 00       	mov    $0x0,%eax
  401fcb:	e8 5d fa ff ff       	callq  401a2d <check_fail>
  401fd0:	e8 0b ed ff ff       	callq  400ce0 <__stack_chk_fail@plt>

0000000000401fd5 <stable_launch>:
  401fd5:	53                   	push   %rbx
  401fd6:	48 89 3d 0b 25 20 00 	mov    %rdi,0x20250b(%rip)        # 6044e8 <global_offset>
  401fdd:	41 b9 00 00 00 00    	mov    $0x0,%r9d
  401fe3:	41 b8 00 00 00 00    	mov    $0x0,%r8d
  401fe9:	b9 32 01 00 00       	mov    $0x132,%ecx
  401fee:	ba 07 00 00 00       	mov    $0x7,%edx
  401ff3:	be 00 00 10 00       	mov    $0x100000,%esi
  401ff8:	bf 00 60 58 55       	mov    $0x55586000,%edi
  401ffd:	e8 ee ec ff ff       	callq  400cf0 <mmap@plt>
  402002:	48 89 c3             	mov    %rax,%rbx
  402005:	48 3d 00 60 58 55    	cmp    $0x55586000,%rax
  40200b:	75 43                	jne    402050 <stable_launch+0x7b>
  40200d:	48 8d 90 f8 ff 0f 00 	lea    0xffff8(%rax),%rdx
  402014:	48 89 15 15 31 20 00 	mov    %rdx,0x203115(%rip)        # 605130 <stack_top>
  40201b:	48 89 e0             	mov    %rsp,%rax
  40201e:	48 89 d4             	mov    %rdx,%rsp
  402021:	48 89 c2             	mov    %rax,%rdx
  402024:	48 89 15 b5 24 20 00 	mov    %rdx,0x2024b5(%rip)        # 6044e0 <global_save_stack>
  40202b:	48 8b 3d b6 24 20 00 	mov    0x2024b6(%rip),%rdi        # 6044e8 <global_offset>
  402032:	e8 e9 fe ff ff       	callq  401f20 <launch>
  402037:	48 8b 05 a2 24 20 00 	mov    0x2024a2(%rip),%rax        # 6044e0 <global_save_stack>
  40203e:	48 89 c4             	mov    %rax,%rsp
  402041:	be 00 00 10 00       	mov    $0x100000,%esi
  402046:	48 89 df             	mov    %rbx,%rdi
  402049:	e8 82 ed ff ff       	callq  400dd0 <munmap@plt>
  40204e:	5b                   	pop    %rbx
  40204f:	c3                   	retq   
  402050:	be 00 00 10 00       	mov    $0x100000,%esi
  402055:	48 89 c7             	mov    %rax,%rdi
  402058:	e8 73 ed ff ff       	callq  400dd0 <munmap@plt>
  40205d:	b9 00 60 58 55       	mov    $0x55586000,%ecx
  402062:	48 8d 15 b7 14 00 00 	lea    0x14b7(%rip),%rdx        # 403520 <_IO_stdin_used+0x690>
  402069:	be 01 00 00 00       	mov    $0x1,%esi
  40206e:	48 8b 3d 4b 24 20 00 	mov    0x20244b(%rip),%rdi        # 6044c0 <stderr@@GLIBC_2.2.5>
  402075:	b8 00 00 00 00       	mov    $0x0,%eax
  40207a:	e8 d1 ed ff ff       	callq  400e50 <__fprintf_chk@plt>
  40207f:	bf 01 00 00 00       	mov    $0x1,%edi
  402084:	e8 a7 ed ff ff       	callq  400e30 <exit@plt>

0000000000402089 <rio_readinitb>:
  402089:	89 37                	mov    %esi,(%rdi)
  40208b:	c7 47 04 00 00 00 00 	movl   $0x0,0x4(%rdi)
  402092:	48 8d 47 10          	lea    0x10(%rdi),%rax
  402096:	48 89 47 08          	mov    %rax,0x8(%rdi)
  40209a:	c3                   	retq   

000000000040209b <sigalrm_handler>:
  40209b:	48 83 ec 08          	sub    $0x8,%rsp
  40209f:	b9 00 00 00 00       	mov    $0x0,%ecx
  4020a4:	48 8d 15 b5 14 00 00 	lea    0x14b5(%rip),%rdx        # 403560 <trans_char+0x10>
  4020ab:	be 01 00 00 00       	mov    $0x1,%esi
  4020b0:	48 8b 3d 09 24 20 00 	mov    0x202409(%rip),%rdi        # 6044c0 <stderr@@GLIBC_2.2.5>
  4020b7:	b8 00 00 00 00       	mov    $0x0,%eax
  4020bc:	e8 8f ed ff ff       	callq  400e50 <__fprintf_chk@plt>
  4020c1:	bf 01 00 00 00       	mov    $0x1,%edi
  4020c6:	e8 65 ed ff ff       	callq  400e30 <exit@plt>

00000000004020cb <rio_writen>:
  4020cb:	41 55                	push   %r13
  4020cd:	41 54                	push   %r12
  4020cf:	55                   	push   %rbp
  4020d0:	53                   	push   %rbx
  4020d1:	48 83 ec 08          	sub    $0x8,%rsp
  4020d5:	41 89 fc             	mov    %edi,%r12d
  4020d8:	48 89 f5             	mov    %rsi,%rbp
  4020db:	49 89 d5             	mov    %rdx,%r13
  4020de:	48 89 d3             	mov    %rdx,%rbx
  4020e1:	eb 06                	jmp    4020e9 <rio_writen+0x1e>
  4020e3:	48 29 c3             	sub    %rax,%rbx
  4020e6:	48 01 c5             	add    %rax,%rbp
  4020e9:	48 85 db             	test   %rbx,%rbx
  4020ec:	74 24                	je     402112 <rio_writen+0x47>
  4020ee:	48 89 da             	mov    %rbx,%rdx
  4020f1:	48 89 ee             	mov    %rbp,%rsi
  4020f4:	44 89 e7             	mov    %r12d,%edi
  4020f7:	e8 d4 eb ff ff       	callq  400cd0 <write@plt>
  4020fc:	48 85 c0             	test   %rax,%rax
  4020ff:	7f e2                	jg     4020e3 <rio_writen+0x18>
  402101:	e8 7a eb ff ff       	callq  400c80 <__errno_location@plt>
  402106:	83 38 04             	cmpl   $0x4,(%rax)
  402109:	75 15                	jne    402120 <rio_writen+0x55>
  40210b:	b8 00 00 00 00       	mov    $0x0,%eax
  402110:	eb d1                	jmp    4020e3 <rio_writen+0x18>
  402112:	4c 89 e8             	mov    %r13,%rax
  402115:	48 83 c4 08          	add    $0x8,%rsp
  402119:	5b                   	pop    %rbx
  40211a:	5d                   	pop    %rbp
  40211b:	41 5c                	pop    %r12
  40211d:	41 5d                	pop    %r13
  40211f:	c3                   	retq   
  402120:	48 c7 c0 ff ff ff ff 	mov    $0xffffffffffffffff,%rax
  402127:	eb ec                	jmp    402115 <rio_writen+0x4a>

0000000000402129 <rio_read>:
  402129:	41 55                	push   %r13
  40212b:	41 54                	push   %r12
  40212d:	55                   	push   %rbp
  40212e:	53                   	push   %rbx
  40212f:	48 83 ec 08          	sub    $0x8,%rsp
  402133:	48 89 fb             	mov    %rdi,%rbx
  402136:	49 89 f5             	mov    %rsi,%r13
  402139:	49 89 d4             	mov    %rdx,%r12
  40213c:	eb 0a                	jmp    402148 <rio_read+0x1f>
  40213e:	e8 3d eb ff ff       	callq  400c80 <__errno_location@plt>
  402143:	83 38 04             	cmpl   $0x4,(%rax)
  402146:	75 5c                	jne    4021a4 <rio_read+0x7b>
  402148:	8b 6b 04             	mov    0x4(%rbx),%ebp
  40214b:	85 ed                	test   %ebp,%ebp
  40214d:	7f 24                	jg     402173 <rio_read+0x4a>
  40214f:	48 8d 6b 10          	lea    0x10(%rbx),%rbp
  402153:	8b 3b                	mov    (%rbx),%edi
  402155:	ba 00 20 00 00       	mov    $0x2000,%edx
  40215a:	48 89 ee             	mov    %rbp,%rsi
  40215d:	e8 ce eb ff ff       	callq  400d30 <read@plt>
  402162:	89 43 04             	mov    %eax,0x4(%rbx)
  402165:	85 c0                	test   %eax,%eax
  402167:	78 d5                	js     40213e <rio_read+0x15>
  402169:	85 c0                	test   %eax,%eax
  40216b:	74 40                	je     4021ad <rio_read+0x84>
  40216d:	48 89 6b 08          	mov    %rbp,0x8(%rbx)
  402171:	eb d5                	jmp    402148 <rio_read+0x1f>
  402173:	89 e8                	mov    %ebp,%eax
  402175:	4c 39 e0             	cmp    %r12,%rax
  402178:	72 03                	jb     40217d <rio_read+0x54>
  40217a:	44 89 e5             	mov    %r12d,%ebp
  40217d:	4c 63 e5             	movslq %ebp,%r12
  402180:	48 8b 73 08          	mov    0x8(%rbx),%rsi
  402184:	4c 89 e2             	mov    %r12,%rdx
  402187:	4c 89 ef             	mov    %r13,%rdi
  40218a:	e8 f1 eb ff ff       	callq  400d80 <memcpy@plt>
  40218f:	4c 01 63 08          	add    %r12,0x8(%rbx)
  402193:	29 6b 04             	sub    %ebp,0x4(%rbx)
  402196:	4c 89 e0             	mov    %r12,%rax
  402199:	48 83 c4 08          	add    $0x8,%rsp
  40219d:	5b                   	pop    %rbx
  40219e:	5d                   	pop    %rbp
  40219f:	41 5c                	pop    %r12
  4021a1:	41 5d                	pop    %r13
  4021a3:	c3                   	retq   
  4021a4:	48 c7 c0 ff ff ff ff 	mov    $0xffffffffffffffff,%rax
  4021ab:	eb ec                	jmp    402199 <rio_read+0x70>
  4021ad:	b8 00 00 00 00       	mov    $0x0,%eax
  4021b2:	eb e5                	jmp    402199 <rio_read+0x70>

00000000004021b4 <rio_readlineb>:
  4021b4:	41 55                	push   %r13
  4021b6:	41 54                	push   %r12
  4021b8:	55                   	push   %rbp
  4021b9:	53                   	push   %rbx
  4021ba:	48 83 ec 18          	sub    $0x18,%rsp
  4021be:	49 89 fd             	mov    %rdi,%r13
  4021c1:	48 89 f5             	mov    %rsi,%rbp
  4021c4:	49 89 d4             	mov    %rdx,%r12
  4021c7:	64 48 8b 04 25 28 00 	mov    %fs:0x28,%rax
  4021ce:	00 00 
  4021d0:	48 89 44 24 08       	mov    %rax,0x8(%rsp)
  4021d5:	31 c0                	xor    %eax,%eax
  4021d7:	bb 01 00 00 00       	mov    $0x1,%ebx
  4021dc:	4c 39 e3             	cmp    %r12,%rbx
  4021df:	73 47                	jae    402228 <rio_readlineb+0x74>
  4021e1:	48 8d 74 24 07       	lea    0x7(%rsp),%rsi
  4021e6:	ba 01 00 00 00       	mov    $0x1,%edx
  4021eb:	4c 89 ef             	mov    %r13,%rdi
  4021ee:	e8 36 ff ff ff       	callq  402129 <rio_read>
  4021f3:	83 f8 01             	cmp    $0x1,%eax
  4021f6:	75 1c                	jne    402214 <rio_readlineb+0x60>
  4021f8:	48 8d 45 01          	lea    0x1(%rbp),%rax
  4021fc:	0f b6 54 24 07       	movzbl 0x7(%rsp),%edx
  402201:	88 55 00             	mov    %dl,0x0(%rbp)
  402204:	80 7c 24 07 0a       	cmpb   $0xa,0x7(%rsp)
  402209:	74 1a                	je     402225 <rio_readlineb+0x71>
  40220b:	48 83 c3 01          	add    $0x1,%rbx
  40220f:	48 89 c5             	mov    %rax,%rbp
  402212:	eb c8                	jmp    4021dc <rio_readlineb+0x28>
  402214:	85 c0                	test   %eax,%eax
  402216:	75 32                	jne    40224a <rio_readlineb+0x96>
  402218:	48 83 fb 01          	cmp    $0x1,%rbx
  40221c:	75 0a                	jne    402228 <rio_readlineb+0x74>
  40221e:	b8 00 00 00 00       	mov    $0x0,%eax
  402223:	eb 0a                	jmp    40222f <rio_readlineb+0x7b>
  402225:	48 89 c5             	mov    %rax,%rbp
  402228:	c6 45 00 00          	movb   $0x0,0x0(%rbp)
  40222c:	48 89 d8             	mov    %rbx,%rax
  40222f:	48 8b 4c 24 08       	mov    0x8(%rsp),%rcx
  402234:	64 48 33 0c 25 28 00 	xor    %fs:0x28,%rcx
  40223b:	00 00 
  40223d:	75 14                	jne    402253 <rio_readlineb+0x9f>
  40223f:	48 83 c4 18          	add    $0x18,%rsp
  402243:	5b                   	pop    %rbx
  402244:	5d                   	pop    %rbp
  402245:	41 5c                	pop    %r12
  402247:	41 5d                	pop    %r13
  402249:	c3                   	retq   
  40224a:	48 c7 c0 ff ff ff ff 	mov    $0xffffffffffffffff,%rax
  402251:	eb dc                	jmp    40222f <rio_readlineb+0x7b>
  402253:	e8 88 ea ff ff       	callq  400ce0 <__stack_chk_fail@plt>

0000000000402258 <urlencode>:
  402258:	41 54                	push   %r12
  40225a:	55                   	push   %rbp
  40225b:	53                   	push   %rbx
  40225c:	48 83 ec 10          	sub    $0x10,%rsp
  402260:	48 89 fb             	mov    %rdi,%rbx
  402263:	48 89 f5             	mov    %rsi,%rbp
  402266:	64 48 8b 04 25 28 00 	mov    %fs:0x28,%rax
  40226d:	00 00 
  40226f:	48 89 44 24 08       	mov    %rax,0x8(%rsp)
  402274:	31 c0                	xor    %eax,%eax
  402276:	48 c7 c1 ff ff ff ff 	mov    $0xffffffffffffffff,%rcx
  40227d:	f2 ae                	repnz scas %es:(%rdi),%al
  40227f:	48 89 ce             	mov    %rcx,%rsi
  402282:	48 f7 d6             	not    %rsi
  402285:	8d 46 ff             	lea    -0x1(%rsi),%eax
  402288:	eb 0f                	jmp    402299 <urlencode+0x41>
  40228a:	44 88 45 00          	mov    %r8b,0x0(%rbp)
  40228e:	48 8d 6d 01          	lea    0x1(%rbp),%rbp
  402292:	48 83 c3 01          	add    $0x1,%rbx
  402296:	44 89 e0             	mov    %r12d,%eax
  402299:	44 8d 60 ff          	lea    -0x1(%rax),%r12d
  40229d:	85 c0                	test   %eax,%eax
  40229f:	0f 84 a8 00 00 00    	je     40234d <urlencode+0xf5>
  4022a5:	44 0f b6 03          	movzbl (%rbx),%r8d
  4022a9:	41 80 f8 2a          	cmp    $0x2a,%r8b
  4022ad:	0f 94 c2             	sete   %dl
  4022b0:	41 80 f8 2d          	cmp    $0x2d,%r8b
  4022b4:	0f 94 c0             	sete   %al
  4022b7:	08 c2                	or     %al,%dl
  4022b9:	75 cf                	jne    40228a <urlencode+0x32>
  4022bb:	41 80 f8 2e          	cmp    $0x2e,%r8b
  4022bf:	74 c9                	je     40228a <urlencode+0x32>
  4022c1:	41 80 f8 5f          	cmp    $0x5f,%r8b
  4022c5:	74 c3                	je     40228a <urlencode+0x32>
  4022c7:	41 8d 40 d0          	lea    -0x30(%r8),%eax
  4022cb:	3c 09                	cmp    $0x9,%al
  4022cd:	76 bb                	jbe    40228a <urlencode+0x32>
  4022cf:	41 8d 40 bf          	lea    -0x41(%r8),%eax
  4022d3:	3c 19                	cmp    $0x19,%al
  4022d5:	76 b3                	jbe    40228a <urlencode+0x32>
  4022d7:	41 8d 40 9f          	lea    -0x61(%r8),%eax
  4022db:	3c 19                	cmp    $0x19,%al
  4022dd:	76 ab                	jbe    40228a <urlencode+0x32>
  4022df:	41 80 f8 20          	cmp    $0x20,%r8b
  4022e3:	74 56                	je     40233b <urlencode+0xe3>
  4022e5:	41 8d 40 e0          	lea    -0x20(%r8),%eax
  4022e9:	3c 5f                	cmp    $0x5f,%al
  4022eb:	0f 96 c2             	setbe  %dl
  4022ee:	41 80 f8 09          	cmp    $0x9,%r8b
  4022f2:	0f 94 c0             	sete   %al
  4022f5:	08 c2                	or     %al,%dl
  4022f7:	74 4f                	je     402348 <urlencode+0xf0>
  4022f9:	48 89 e7             	mov    %rsp,%rdi
  4022fc:	45 0f b6 c0          	movzbl %r8b,%r8d
  402300:	48 8d 0d f1 12 00 00 	lea    0x12f1(%rip),%rcx        # 4035f8 <trans_char+0xa8>
  402307:	ba 08 00 00 00       	mov    $0x8,%edx
  40230c:	be 01 00 00 00       	mov    $0x1,%esi
  402311:	b8 00 00 00 00       	mov    $0x0,%eax
  402316:	e8 45 eb ff ff       	callq  400e60 <__sprintf_chk@plt>
  40231b:	0f b6 04 24          	movzbl (%rsp),%eax
  40231f:	88 45 00             	mov    %al,0x0(%rbp)
  402322:	0f b6 44 24 01       	movzbl 0x1(%rsp),%eax
  402327:	88 45 01             	mov    %al,0x1(%rbp)
  40232a:	0f b6 44 24 02       	movzbl 0x2(%rsp),%eax
  40232f:	88 45 02             	mov    %al,0x2(%rbp)
  402332:	48 8d 6d 03          	lea    0x3(%rbp),%rbp
  402336:	e9 57 ff ff ff       	jmpq   402292 <urlencode+0x3a>
  40233b:	c6 45 00 2b          	movb   $0x2b,0x0(%rbp)
  40233f:	48 8d 6d 01          	lea    0x1(%rbp),%rbp
  402343:	e9 4a ff ff ff       	jmpq   402292 <urlencode+0x3a>
  402348:	b8 ff ff ff ff       	mov    $0xffffffff,%eax
  40234d:	48 8b 74 24 08       	mov    0x8(%rsp),%rsi
  402352:	64 48 33 34 25 28 00 	xor    %fs:0x28,%rsi
  402359:	00 00 
  40235b:	75 09                	jne    402366 <urlencode+0x10e>
  40235d:	48 83 c4 10          	add    $0x10,%rsp
  402361:	5b                   	pop    %rbx
  402362:	5d                   	pop    %rbp
  402363:	41 5c                	pop    %r12
  402365:	c3                   	retq   
  402366:	e8 75 e9 ff ff       	callq  400ce0 <__stack_chk_fail@plt>

000000000040236b <submitr>:
  40236b:	41 57                	push   %r15
  40236d:	41 56                	push   %r14
  40236f:	41 55                	push   %r13
  402371:	41 54                	push   %r12
  402373:	55                   	push   %rbp
  402374:	53                   	push   %rbx
  402375:	48 81 ec 68 a0 00 00 	sub    $0xa068,%rsp
  40237c:	49 89 fd             	mov    %rdi,%r13
  40237f:	89 74 24 14          	mov    %esi,0x14(%rsp)
  402383:	49 89 d7             	mov    %rdx,%r15
  402386:	48 89 4c 24 08       	mov    %rcx,0x8(%rsp)
  40238b:	4c 89 44 24 18       	mov    %r8,0x18(%rsp)
  402390:	4d 89 ce             	mov    %r9,%r14
  402393:	48 8b ac 24 a0 a0 00 	mov    0xa0a0(%rsp),%rbp
  40239a:	00 
  40239b:	64 48 8b 04 25 28 00 	mov    %fs:0x28,%rax
  4023a2:	00 00 
  4023a4:	48 89 84 24 58 a0 00 	mov    %rax,0xa058(%rsp)
  4023ab:	00 
  4023ac:	31 c0                	xor    %eax,%eax
  4023ae:	c7 44 24 2c 00 00 00 	movl   $0x0,0x2c(%rsp)
  4023b5:	00 
  4023b6:	ba 00 00 00 00       	mov    $0x0,%edx
  4023bb:	be 01 00 00 00       	mov    $0x1,%esi
  4023c0:	bf 02 00 00 00       	mov    $0x2,%edi
  4023c5:	e8 a6 ea ff ff       	callq  400e70 <socket@plt>
  4023ca:	85 c0                	test   %eax,%eax
  4023cc:	0f 88 a9 02 00 00    	js     40267b <submitr+0x310>
  4023d2:	89 c3                	mov    %eax,%ebx
  4023d4:	4c 89 ef             	mov    %r13,%rdi
  4023d7:	e8 74 e9 ff ff       	callq  400d50 <gethostbyname@plt>
  4023dc:	48 85 c0             	test   %rax,%rax
  4023df:	0f 84 e2 02 00 00    	je     4026c7 <submitr+0x35c>
  4023e5:	4c 8d 64 24 30       	lea    0x30(%rsp),%r12
  4023ea:	48 c7 44 24 32 00 00 	movq   $0x0,0x32(%rsp)
  4023f1:	00 00 
  4023f3:	c7 44 24 3a 00 00 00 	movl   $0x0,0x3a(%rsp)
  4023fa:	00 
  4023fb:	66 c7 44 24 3e 00 00 	movw   $0x0,0x3e(%rsp)
  402402:	66 c7 44 24 30 02 00 	movw   $0x2,0x30(%rsp)
  402409:	48 63 50 14          	movslq 0x14(%rax),%rdx
  40240d:	48 8b 40 18          	mov    0x18(%rax),%rax
  402411:	48 8b 30             	mov    (%rax),%rsi
  402414:	48 8d 7c 24 34       	lea    0x34(%rsp),%rdi
  402419:	b9 0c 00 00 00       	mov    $0xc,%ecx
  40241e:	e8 3d e9 ff ff       	callq  400d60 <__memmove_chk@plt>
  402423:	0f b7 44 24 14       	movzwl 0x14(%rsp),%eax
  402428:	66 c1 c8 08          	ror    $0x8,%ax
  40242c:	66 89 44 24 32       	mov    %ax,0x32(%rsp)
  402431:	ba 10 00 00 00       	mov    $0x10,%edx
  402436:	4c 89 e6             	mov    %r12,%rsi
  402439:	89 df                	mov    %ebx,%edi
  40243b:	e8 00 ea ff ff       	callq  400e40 <connect@plt>
  402440:	85 c0                	test   %eax,%eax
  402442:	0f 88 e7 02 00 00    	js     40272f <submitr+0x3c4>
  402448:	48 c7 c6 ff ff ff ff 	mov    $0xffffffffffffffff,%rsi
  40244f:	b8 00 00 00 00       	mov    $0x0,%eax
  402454:	48 89 f1             	mov    %rsi,%rcx
  402457:	4c 89 f7             	mov    %r14,%rdi
  40245a:	f2 ae                	repnz scas %es:(%rdi),%al
  40245c:	48 89 ca             	mov    %rcx,%rdx
  40245f:	48 f7 d2             	not    %rdx
  402462:	48 89 f1             	mov    %rsi,%rcx
  402465:	4c 89 ff             	mov    %r15,%rdi
  402468:	f2 ae                	repnz scas %es:(%rdi),%al
  40246a:	48 f7 d1             	not    %rcx
  40246d:	49 89 c8             	mov    %rcx,%r8
  402470:	48 89 f1             	mov    %rsi,%rcx
  402473:	48 8b 7c 24 08       	mov    0x8(%rsp),%rdi
  402478:	f2 ae                	repnz scas %es:(%rdi),%al
  40247a:	48 f7 d1             	not    %rcx
  40247d:	4d 8d 44 08 fe       	lea    -0x2(%r8,%rcx,1),%r8
  402482:	48 89 f1             	mov    %rsi,%rcx
  402485:	48 8b 7c 24 18       	mov    0x18(%rsp),%rdi
  40248a:	f2 ae                	repnz scas %es:(%rdi),%al
  40248c:	48 89 c8             	mov    %rcx,%rax
  40248f:	48 f7 d0             	not    %rax
  402492:	49 8d 4c 00 ff       	lea    -0x1(%r8,%rax,1),%rcx
  402497:	48 8d 44 52 fd       	lea    -0x3(%rdx,%rdx,2),%rax
  40249c:	48 8d 84 01 80 00 00 	lea    0x80(%rcx,%rax,1),%rax
  4024a3:	00 
  4024a4:	48 3d 00 20 00 00    	cmp    $0x2000,%rax
  4024aa:	0f 87 d9 02 00 00    	ja     402789 <submitr+0x41e>
  4024b0:	48 8d b4 24 50 40 00 	lea    0x4050(%rsp),%rsi
  4024b7:	00 
  4024b8:	b9 00 04 00 00       	mov    $0x400,%ecx
  4024bd:	b8 00 00 00 00       	mov    $0x0,%eax
  4024c2:	48 89 f7             	mov    %rsi,%rdi
  4024c5:	f3 48 ab             	rep stos %rax,%es:(%rdi)
  4024c8:	4c 89 f7             	mov    %r14,%rdi
  4024cb:	e8 88 fd ff ff       	callq  402258 <urlencode>
  4024d0:	85 c0                	test   %eax,%eax
  4024d2:	0f 88 24 03 00 00    	js     4027fc <submitr+0x491>
  4024d8:	4c 8d a4 24 50 20 00 	lea    0x2050(%rsp),%r12
  4024df:	00 
  4024e0:	41 55                	push   %r13
  4024e2:	48 8d 84 24 58 40 00 	lea    0x4058(%rsp),%rax
  4024e9:	00 
  4024ea:	50                   	push   %rax
  4024eb:	4d 89 f9             	mov    %r15,%r9
  4024ee:	4c 8b 44 24 18       	mov    0x18(%rsp),%r8
  4024f3:	48 8d 0d 8e 10 00 00 	lea    0x108e(%rip),%rcx        # 403588 <trans_char+0x38>
  4024fa:	ba 00 20 00 00       	mov    $0x2000,%edx
  4024ff:	be 01 00 00 00       	mov    $0x1,%esi
  402504:	4c 89 e7             	mov    %r12,%rdi
  402507:	b8 00 00 00 00       	mov    $0x0,%eax
  40250c:	e8 4f e9 ff ff       	callq  400e60 <__sprintf_chk@plt>
  402511:	48 c7 c1 ff ff ff ff 	mov    $0xffffffffffffffff,%rcx
  402518:	b8 00 00 00 00       	mov    $0x0,%eax
  40251d:	4c 89 e7             	mov    %r12,%rdi
  402520:	f2 ae                	repnz scas %es:(%rdi),%al
  402522:	48 89 ca             	mov    %rcx,%rdx
  402525:	48 f7 d2             	not    %rdx
  402528:	48 8d 52 ff          	lea    -0x1(%rdx),%rdx
  40252c:	4c 89 e6             	mov    %r12,%rsi
  40252f:	89 df                	mov    %ebx,%edi
  402531:	e8 95 fb ff ff       	callq  4020cb <rio_writen>
  402536:	48 83 c4 10          	add    $0x10,%rsp
  40253a:	48 85 c0             	test   %rax,%rax
  40253d:	0f 88 44 03 00 00    	js     402887 <submitr+0x51c>
  402543:	4c 8d 64 24 40       	lea    0x40(%rsp),%r12
  402548:	89 de                	mov    %ebx,%esi
  40254a:	4c 89 e7             	mov    %r12,%rdi
  40254d:	e8 37 fb ff ff       	callq  402089 <rio_readinitb>
  402552:	48 8d b4 24 50 20 00 	lea    0x2050(%rsp),%rsi
  402559:	00 
  40255a:	ba 00 20 00 00       	mov    $0x2000,%edx
  40255f:	4c 89 e7             	mov    %r12,%rdi
  402562:	e8 4d fc ff ff       	callq  4021b4 <rio_readlineb>
  402567:	48 85 c0             	test   %rax,%rax
  40256a:	0f 8e 86 03 00 00    	jle    4028f6 <submitr+0x58b>
  402570:	48 8d 4c 24 2c       	lea    0x2c(%rsp),%rcx
  402575:	48 8d 94 24 50 60 00 	lea    0x6050(%rsp),%rdx
  40257c:	00 
  40257d:	48 8d bc 24 50 20 00 	lea    0x2050(%rsp),%rdi
  402584:	00 
  402585:	4c 8d 84 24 50 80 00 	lea    0x8050(%rsp),%r8
  40258c:	00 
  40258d:	48 8d 35 6b 10 00 00 	lea    0x106b(%rip),%rsi        # 4035ff <trans_char+0xaf>
  402594:	b8 00 00 00 00       	mov    $0x0,%eax
  402599:	e8 22 e8 ff ff       	callq  400dc0 <__isoc99_sscanf@plt>
  40259e:	48 8d b4 24 50 20 00 	lea    0x2050(%rsp),%rsi
  4025a5:	00 
  4025a6:	b9 03 00 00 00       	mov    $0x3,%ecx
  4025ab:	48 8d 3d 64 10 00 00 	lea    0x1064(%rip),%rdi        # 403616 <trans_char+0xc6>
  4025b2:	f3 a6                	repz cmpsb %es:(%rdi),%ds:(%rsi)
  4025b4:	0f 97 c0             	seta   %al
  4025b7:	1c 00                	sbb    $0x0,%al
  4025b9:	84 c0                	test   %al,%al
  4025bb:	0f 84 b3 03 00 00    	je     402974 <submitr+0x609>
  4025c1:	48 8d b4 24 50 20 00 	lea    0x2050(%rsp),%rsi
  4025c8:	00 
  4025c9:	48 8d 7c 24 40       	lea    0x40(%rsp),%rdi
  4025ce:	ba 00 20 00 00       	mov    $0x2000,%edx
  4025d3:	e8 dc fb ff ff       	callq  4021b4 <rio_readlineb>
  4025d8:	48 85 c0             	test   %rax,%rax
  4025db:	7f c1                	jg     40259e <submitr+0x233>
  4025dd:	48 b8 45 72 72 6f 72 	movabs $0x43203a726f727245,%rax
  4025e4:	3a 20 43 
  4025e7:	48 ba 6c 69 65 6e 74 	movabs $0x6e7520746e65696c,%rdx
  4025ee:	20 75 6e 
  4025f1:	48 89 45 00          	mov    %rax,0x0(%rbp)
  4025f5:	48 89 55 08          	mov    %rdx,0x8(%rbp)
  4025f9:	48 b8 61 62 6c 65 20 	movabs $0x206f7420656c6261,%rax
  402600:	74 6f 20 
  402603:	48 ba 72 65 61 64 20 	movabs $0x6165682064616572,%rdx
  40260a:	68 65 61 
  40260d:	48 89 45 10          	mov    %rax,0x10(%rbp)
  402611:	48 89 55 18          	mov    %rdx,0x18(%rbp)
  402615:	48 b8 64 65 72 73 20 	movabs $0x6f72662073726564,%rax
  40261c:	66 72 6f 
  40261f:	48 ba 6d 20 74 68 65 	movabs $0x657220656874206d,%rdx
  402626:	20 72 65 
  402629:	48 89 45 20          	mov    %rax,0x20(%rbp)
  40262d:	48 89 55 28          	mov    %rdx,0x28(%rbp)
  402631:	48 b8 73 75 6c 74 20 	movabs $0x72657320746c7573,%rax
  402638:	73 65 72 
  40263b:	48 89 45 30          	mov    %rax,0x30(%rbp)
  40263f:	c7 45 38 76 65 72 00 	movl   $0x726576,0x38(%rbp)
  402646:	89 df                	mov    %ebx,%edi
  402648:	e8 d3 e6 ff ff       	callq  400d20 <close@plt>
  40264d:	b8 ff ff ff ff       	mov    $0xffffffff,%eax
  402652:	48 8b 9c 24 58 a0 00 	mov    0xa058(%rsp),%rbx
  402659:	00 
  40265a:	64 48 33 1c 25 28 00 	xor    %fs:0x28,%rbx
  402661:	00 00 
  402663:	0f 85 7e 04 00 00    	jne    402ae7 <submitr+0x77c>
  402669:	48 81 c4 68 a0 00 00 	add    $0xa068,%rsp
  402670:	5b                   	pop    %rbx
  402671:	5d                   	pop    %rbp
  402672:	41 5c                	pop    %r12
  402674:	41 5d                	pop    %r13
  402676:	41 5e                	pop    %r14
  402678:	41 5f                	pop    %r15
  40267a:	c3                   	retq   
  40267b:	48 b8 45 72 72 6f 72 	movabs $0x43203a726f727245,%rax
  402682:	3a 20 43 
  402685:	48 ba 6c 69 65 6e 74 	movabs $0x6e7520746e65696c,%rdx
  40268c:	20 75 6e 
  40268f:	48 89 45 00          	mov    %rax,0x0(%rbp)
  402693:	48 89 55 08          	mov    %rdx,0x8(%rbp)
  402697:	48 b8 61 62 6c 65 20 	movabs $0x206f7420656c6261,%rax
  40269e:	74 6f 20 
  4026a1:	48 ba 63 72 65 61 74 	movabs $0x7320657461657263,%rdx
  4026a8:	65 20 73 
  4026ab:	48 89 45 10          	mov    %rax,0x10(%rbp)
  4026af:	48 89 55 18          	mov    %rdx,0x18(%rbp)
  4026b3:	c7 45 20 6f 63 6b 65 	movl   $0x656b636f,0x20(%rbp)
  4026ba:	66 c7 45 24 74 00    	movw   $0x74,0x24(%rbp)
  4026c0:	b8 ff ff ff ff       	mov    $0xffffffff,%eax
  4026c5:	eb 8b                	jmp    402652 <submitr+0x2e7>
  4026c7:	48 b8 45 72 72 6f 72 	movabs $0x44203a726f727245,%rax
  4026ce:	3a 20 44 
  4026d1:	48 ba 4e 53 20 69 73 	movabs $0x6e7520736920534e,%rdx
  4026d8:	20 75 6e 
  4026db:	48 89 45 00          	mov    %rax,0x0(%rbp)
  4026df:	48 89 55 08          	mov    %rdx,0x8(%rbp)
  4026e3:	48 b8 61 62 6c 65 20 	movabs $0x206f7420656c6261,%rax
  4026ea:	74 6f 20 
  4026ed:	48 ba 72 65 73 6f 6c 	movabs $0x2065766c6f736572,%rdx
  4026f4:	76 65 20 
  4026f7:	48 89 45 10          	mov    %rax,0x10(%rbp)
  4026fb:	48 89 55 18          	mov    %rdx,0x18(%rbp)
  4026ff:	48 b8 73 65 72 76 65 	movabs $0x6120726576726573,%rax
  402706:	72 20 61 
  402709:	48 89 45 20          	mov    %rax,0x20(%rbp)
  40270d:	c7 45 28 64 64 72 65 	movl   $0x65726464,0x28(%rbp)
  402714:	66 c7 45 2c 73 73    	movw   $0x7373,0x2c(%rbp)
  40271a:	c6 45 2e 00          	movb   $0x0,0x2e(%rbp)
  40271e:	89 df                	mov    %ebx,%edi
  402720:	e8 fb e5 ff ff       	callq  400d20 <close@plt>
  402725:	b8 ff ff ff ff       	mov    $0xffffffff,%eax
  40272a:	e9 23 ff ff ff       	jmpq   402652 <submitr+0x2e7>
  40272f:	48 b8 45 72 72 6f 72 	movabs $0x55203a726f727245,%rax
  402736:	3a 20 55 
  402739:	48 ba 6e 61 62 6c 65 	movabs $0x6f7420656c62616e,%rdx
  402740:	20 74 6f 
  402743:	48 89 45 00          	mov    %rax,0x0(%rbp)
  402747:	48 89 55 08          	mov    %rdx,0x8(%rbp)
  40274b:	48 b8 20 63 6f 6e 6e 	movabs $0x7463656e6e6f6320,%rax
  402752:	65 63 74 
  402755:	48 ba 20 74 6f 20 74 	movabs $0x20656874206f7420,%rdx
  40275c:	68 65 20 
  40275f:	48 89 45 10          	mov    %rax,0x10(%rbp)
  402763:	48 89 55 18          	mov    %rdx,0x18(%rbp)
  402767:	c7 45 20 73 65 72 76 	movl   $0x76726573,0x20(%rbp)
  40276e:	66 c7 45 24 65 72    	movw   $0x7265,0x24(%rbp)
  402774:	c6 45 26 00          	movb   $0x0,0x26(%rbp)
  402778:	89 df                	mov    %ebx,%edi
  40277a:	e8 a1 e5 ff ff       	callq  400d20 <close@plt>
  40277f:	b8 ff ff ff ff       	mov    $0xffffffff,%eax
  402784:	e9 c9 fe ff ff       	jmpq   402652 <submitr+0x2e7>
  402789:	48 b8 45 72 72 6f 72 	movabs $0x52203a726f727245,%rax
  402790:	3a 20 52 
  402793:	48 ba 65 73 75 6c 74 	movabs $0x747320746c757365,%rdx
  40279a:	20 73 74 
  40279d:	48 89 45 00          	mov    %rax,0x0(%rbp)
  4027a1:	48 89 55 08          	mov    %rdx,0x8(%rbp)
  4027a5:	48 b8 72 69 6e 67 20 	movabs $0x6f6f7420676e6972,%rax
  4027ac:	74 6f 6f 
  4027af:	48 ba 20 6c 61 72 67 	movabs $0x202e656772616c20,%rdx
  4027b6:	65 2e 20 
  4027b9:	48 89 45 10          	mov    %rax,0x10(%rbp)
  4027bd:	48 89 55 18          	mov    %rdx,0x18(%rbp)
  4027c1:	48 b8 49 6e 63 72 65 	movabs $0x6573616572636e49,%rax
  4027c8:	61 73 65 
  4027cb:	48 ba 20 53 55 42 4d 	movabs $0x5254494d42555320,%rdx
  4027d2:	49 54 52 
  4027d5:	48 89 45 20          	mov    %rax,0x20(%rbp)
  4027d9:	48 89 55 28          	mov    %rdx,0x28(%rbp)
  4027dd:	48 b8 5f 4d 41 58 42 	movabs $0x46554258414d5f,%rax
  4027e4:	55 46 00 
  4027e7:	48 89 45 30          	mov    %rax,0x30(%rbp)
  4027eb:	89 df                	mov    %ebx,%edi
  4027ed:	e8 2e e5 ff ff       	callq  400d20 <close@plt>
  4027f2:	b8 ff ff ff ff       	mov    $0xffffffff,%eax
  4027f7:	e9 56 fe ff ff       	jmpq   402652 <submitr+0x2e7>
  4027fc:	48 b8 45 72 72 6f 72 	movabs $0x52203a726f727245,%rax
  402803:	3a 20 52 
  402806:	48 ba 65 73 75 6c 74 	movabs $0x747320746c757365,%rdx
  40280d:	20 73 74 
  402810:	48 89 45 00          	mov    %rax,0x0(%rbp)
  402814:	48 89 55 08          	mov    %rdx,0x8(%rbp)
  402818:	48 b8 72 69 6e 67 20 	movabs $0x6e6f6320676e6972,%rax
  40281f:	63 6f 6e 
  402822:	48 ba 74 61 69 6e 73 	movabs $0x6e6120736e696174,%rdx
  402829:	20 61 6e 
  40282c:	48 89 45 10          	mov    %rax,0x10(%rbp)
  402830:	48 89 55 18          	mov    %rdx,0x18(%rbp)
  402834:	48 b8 20 69 6c 6c 65 	movabs $0x6c6167656c6c6920,%rax
  40283b:	67 61 6c 
  40283e:	48 ba 20 6f 72 20 75 	movabs $0x72706e7520726f20,%rdx
  402845:	6e 70 72 
  402848:	48 89 45 20          	mov    %rax,0x20(%rbp)
  40284c:	48 89 55 28          	mov    %rdx,0x28(%rbp)
  402850:	48 b8 69 6e 74 61 62 	movabs $0x20656c6261746e69,%rax
  402857:	6c 65 20 
  40285a:	48 ba 63 68 61 72 61 	movabs $0x6574636172616863,%rdx
  402861:	63 74 65 
  402864:	48 89 45 30          	mov    %rax,0x30(%rbp)
  402868:	48 89 55 38          	mov    %rdx,0x38(%rbp)
  40286c:	66 c7 45 40 72 2e    	movw   $0x2e72,0x40(%rbp)
  402872:	c6 45 42 00          	movb   $0x0,0x42(%rbp)
  402876:	89 df                	mov    %ebx,%edi
  402878:	e8 a3 e4 ff ff       	callq  400d20 <close@plt>
  40287d:	b8 ff ff ff ff       	mov    $0xffffffff,%eax
  402882:	e9 cb fd ff ff       	jmpq   402652 <submitr+0x2e7>
  402887:	48 b8 45 72 72 6f 72 	movabs $0x43203a726f727245,%rax
  40288e:	3a 20 43 
  402891:	48 ba 6c 69 65 6e 74 	movabs $0x6e7520746e65696c,%rdx
  402898:	20 75 6e 
  40289b:	48 89 45 00          	mov    %rax,0x0(%rbp)
  40289f:	48 89 55 08          	mov    %rdx,0x8(%rbp)
  4028a3:	48 b8 61 62 6c 65 20 	movabs $0x206f7420656c6261,%rax
  4028aa:	74 6f 20 
  4028ad:	48 ba 77 72 69 74 65 	movabs $0x6f74206574697277,%rdx
  4028b4:	20 74 6f 
  4028b7:	48 89 45 10          	mov    %rax,0x10(%rbp)
  4028bb:	48 89 55 18          	mov    %rdx,0x18(%rbp)
  4028bf:	48 b8 20 74 68 65 20 	movabs $0x7365722065687420,%rax
  4028c6:	72 65 73 
  4028c9:	48 ba 75 6c 74 20 73 	movabs $0x7672657320746c75,%rdx
  4028d0:	65 72 76 
  4028d3:	48 89 45 20          	mov    %rax,0x20(%rbp)
  4028d7:	48 89 55 28          	mov    %rdx,0x28(%rbp)
  4028db:	66 c7 45 30 65 72    	movw   $0x7265,0x30(%rbp)
  4028e1:	c6 45 32 00          	movb   $0x0,0x32(%rbp)
  4028e5:	89 df                	mov    %ebx,%edi
  4028e7:	e8 34 e4 ff ff       	callq  400d20 <close@plt>
  4028ec:	b8 ff ff ff ff       	mov    $0xffffffff,%eax
  4028f1:	e9 5c fd ff ff       	jmpq   402652 <submitr+0x2e7>
  4028f6:	48 b8 45 72 72 6f 72 	movabs $0x43203a726f727245,%rax
  4028fd:	3a 20 43 
  402900:	48 ba 6c 69 65 6e 74 	movabs $0x6e7520746e65696c,%rdx
  402907:	20 75 6e 
  40290a:	48 89 45 00          	mov    %rax,0x0(%rbp)
  40290e:	48 89 55 08          	mov    %rdx,0x8(%rbp)
  402912:	48 b8 61 62 6c 65 20 	movabs $0x206f7420656c6261,%rax
  402919:	74 6f 20 
  40291c:	48 ba 72 65 61 64 20 	movabs $0x7269662064616572,%rdx
  402923:	66 69 72 
  402926:	48 89 45 10          	mov    %rax,0x10(%rbp)
  40292a:	48 89 55 18          	mov    %rdx,0x18(%rbp)
  40292e:	48 b8 73 74 20 68 65 	movabs $0x6564616568207473,%rax
  402935:	61 64 65 
  402938:	48 ba 72 20 66 72 6f 	movabs $0x72206d6f72662072,%rdx
  40293f:	6d 20 72 
  402942:	48 89 45 20          	mov    %rax,0x20(%rbp)
  402946:	48 89 55 28          	mov    %rdx,0x28(%rbp)
  40294a:	48 b8 65 73 75 6c 74 	movabs $0x657320746c757365,%rax
  402951:	20 73 65 
  402954:	48 89 45 30          	mov    %rax,0x30(%rbp)
  402958:	c7 45 38 72 76 65 72 	movl   $0x72657672,0x38(%rbp)
  40295f:	c6 45 3c 00          	movb   $0x0,0x3c(%rbp)
  402963:	89 df                	mov    %ebx,%edi
  402965:	e8 b6 e3 ff ff       	callq  400d20 <close@plt>
  40296a:	b8 ff ff ff ff       	mov    $0xffffffff,%eax
  40296f:	e9 de fc ff ff       	jmpq   402652 <submitr+0x2e7>
  402974:	48 8d b4 24 50 20 00 	lea    0x2050(%rsp),%rsi
  40297b:	00 
  40297c:	48 8d 7c 24 40       	lea    0x40(%rsp),%rdi
  402981:	ba 00 20 00 00       	mov    $0x2000,%edx
  402986:	e8 29 f8 ff ff       	callq  4021b4 <rio_readlineb>
  40298b:	48 85 c0             	test   %rax,%rax
  40298e:	0f 8e 96 00 00 00    	jle    402a2a <submitr+0x6bf>
  402994:	44 8b 44 24 2c       	mov    0x2c(%rsp),%r8d
  402999:	41 81 f8 c8 00 00 00 	cmp    $0xc8,%r8d
  4029a0:	0f 85 08 01 00 00    	jne    402aae <submitr+0x743>
  4029a6:	48 8d b4 24 50 20 00 	lea    0x2050(%rsp),%rsi
  4029ad:	00 
  4029ae:	48 89 ef             	mov    %rbp,%rdi
  4029b1:	e8 fa e2 ff ff       	callq  400cb0 <strcpy@plt>
  4029b6:	89 df                	mov    %ebx,%edi
  4029b8:	e8 63 e3 ff ff       	callq  400d20 <close@plt>
  4029bd:	b9 04 00 00 00       	mov    $0x4,%ecx
  4029c2:	48 8d 3d 47 0c 00 00 	lea    0xc47(%rip),%rdi        # 403610 <trans_char+0xc0>
  4029c9:	48 89 ee             	mov    %rbp,%rsi
  4029cc:	f3 a6                	repz cmpsb %es:(%rdi),%ds:(%rsi)
  4029ce:	0f 97 c0             	seta   %al
  4029d1:	1c 00                	sbb    $0x0,%al
  4029d3:	0f be c0             	movsbl %al,%eax
  4029d6:	85 c0                	test   %eax,%eax
  4029d8:	0f 84 74 fc ff ff    	je     402652 <submitr+0x2e7>
  4029de:	b9 05 00 00 00       	mov    $0x5,%ecx
  4029e3:	48 8d 3d 2a 0c 00 00 	lea    0xc2a(%rip),%rdi        # 403614 <trans_char+0xc4>
  4029ea:	48 89 ee             	mov    %rbp,%rsi
  4029ed:	f3 a6                	repz cmpsb %es:(%rdi),%ds:(%rsi)
  4029ef:	0f 97 c0             	seta   %al
  4029f2:	1c 00                	sbb    $0x0,%al
  4029f4:	0f be c0             	movsbl %al,%eax
  4029f7:	85 c0                	test   %eax,%eax
  4029f9:	0f 84 53 fc ff ff    	je     402652 <submitr+0x2e7>
  4029ff:	b9 03 00 00 00       	mov    $0x3,%ecx
  402a04:	48 8d 3d 0e 0c 00 00 	lea    0xc0e(%rip),%rdi        # 403619 <trans_char+0xc9>
  402a0b:	48 89 ee             	mov    %rbp,%rsi
  402a0e:	f3 a6                	repz cmpsb %es:(%rdi),%ds:(%rsi)
  402a10:	0f 97 c0             	seta   %al
  402a13:	1c 00                	sbb    $0x0,%al
  402a15:	0f be c0             	movsbl %al,%eax
  402a18:	85 c0                	test   %eax,%eax
  402a1a:	0f 84 32 fc ff ff    	je     402652 <submitr+0x2e7>
  402a20:	b8 ff ff ff ff       	mov    $0xffffffff,%eax
  402a25:	e9 28 fc ff ff       	jmpq   402652 <submitr+0x2e7>
  402a2a:	48 b8 45 72 72 6f 72 	movabs $0x43203a726f727245,%rax
  402a31:	3a 20 43 
  402a34:	48 ba 6c 69 65 6e 74 	movabs $0x6e7520746e65696c,%rdx
  402a3b:	20 75 6e 
  402a3e:	48 89 45 00          	mov    %rax,0x0(%rbp)
  402a42:	48 89 55 08          	mov    %rdx,0x8(%rbp)
  402a46:	48 b8 61 62 6c 65 20 	movabs $0x206f7420656c6261,%rax
  402a4d:	74 6f 20 
  402a50:	48 ba 72 65 61 64 20 	movabs $0x6174732064616572,%rdx
  402a57:	73 74 61 
  402a5a:	48 89 45 10          	mov    %rax,0x10(%rbp)
  402a5e:	48 89 55 18          	mov    %rdx,0x18(%rbp)
  402a62:	48 b8 74 75 73 20 6d 	movabs $0x7373656d20737574,%rax
  402a69:	65 73 73 
  402a6c:	48 ba 61 67 65 20 66 	movabs $0x6d6f726620656761,%rdx
  402a73:	72 6f 6d 
  402a76:	48 89 45 20          	mov    %rax,0x20(%rbp)
  402a7a:	48 89 55 28          	mov    %rdx,0x28(%rbp)
  402a7e:	48 b8 20 72 65 73 75 	movabs $0x20746c7573657220,%rax
  402a85:	6c 74 20 
  402a88:	48 89 45 30          	mov    %rax,0x30(%rbp)
  402a8c:	c7 45 38 73 65 72 76 	movl   $0x76726573,0x38(%rbp)
  402a93:	66 c7 45 3c 65 72    	movw   $0x7265,0x3c(%rbp)
  402a99:	c6 45 3e 00          	movb   $0x0,0x3e(%rbp)
  402a9d:	89 df                	mov    %ebx,%edi
  402a9f:	e8 7c e2 ff ff       	callq  400d20 <close@plt>
  402aa4:	b8 ff ff ff ff       	mov    $0xffffffff,%eax
  402aa9:	e9 a4 fb ff ff       	jmpq   402652 <submitr+0x2e7>
  402aae:	4c 8d 8c 24 50 80 00 	lea    0x8050(%rsp),%r9
  402ab5:	00 
  402ab6:	48 8d 0d 0b 0b 00 00 	lea    0xb0b(%rip),%rcx        # 4035c8 <trans_char+0x78>
  402abd:	48 c7 c2 ff ff ff ff 	mov    $0xffffffffffffffff,%rdx
  402ac4:	be 01 00 00 00       	mov    $0x1,%esi
  402ac9:	48 89 ef             	mov    %rbp,%rdi
  402acc:	b8 00 00 00 00       	mov    $0x0,%eax
  402ad1:	e8 8a e3 ff ff       	callq  400e60 <__sprintf_chk@plt>
  402ad6:	89 df                	mov    %ebx,%edi
  402ad8:	e8 43 e2 ff ff       	callq  400d20 <close@plt>
  402add:	b8 ff ff ff ff       	mov    $0xffffffff,%eax
  402ae2:	e9 6b fb ff ff       	jmpq   402652 <submitr+0x2e7>
  402ae7:	e8 f4 e1 ff ff       	callq  400ce0 <__stack_chk_fail@plt>

0000000000402aec <init_timeout>:
  402aec:	85 ff                	test   %edi,%edi
  402aee:	74 28                	je     402b18 <init_timeout+0x2c>
  402af0:	53                   	push   %rbx
  402af1:	89 fb                	mov    %edi,%ebx
  402af3:	85 ff                	test   %edi,%edi
  402af5:	78 1a                	js     402b11 <init_timeout+0x25>
  402af7:	48 8d 35 9d f5 ff ff 	lea    -0xa63(%rip),%rsi        # 40209b <sigalrm_handler>
  402afe:	bf 0e 00 00 00       	mov    $0xe,%edi
  402b03:	e8 38 e2 ff ff       	callq  400d40 <signal@plt>
  402b08:	89 df                	mov    %ebx,%edi
  402b0a:	e8 01 e2 ff ff       	callq  400d10 <alarm@plt>
  402b0f:	5b                   	pop    %rbx
  402b10:	c3                   	retq   
  402b11:	bb 00 00 00 00       	mov    $0x0,%ebx
  402b16:	eb df                	jmp    402af7 <init_timeout+0xb>
  402b18:	f3 c3                	repz retq 

0000000000402b1a <init_driver>:
  402b1a:	41 54                	push   %r12
  402b1c:	55                   	push   %rbp
  402b1d:	53                   	push   %rbx
  402b1e:	48 83 ec 20          	sub    $0x20,%rsp
  402b22:	49 89 fc             	mov    %rdi,%r12
  402b25:	64 48 8b 04 25 28 00 	mov    %fs:0x28,%rax
  402b2c:	00 00 
  402b2e:	48 89 44 24 18       	mov    %rax,0x18(%rsp)
  402b33:	31 c0                	xor    %eax,%eax
  402b35:	be 01 00 00 00       	mov    $0x1,%esi
  402b3a:	bf 0d 00 00 00       	mov    $0xd,%edi
  402b3f:	e8 fc e1 ff ff       	callq  400d40 <signal@plt>
  402b44:	be 01 00 00 00       	mov    $0x1,%esi
  402b49:	bf 1d 00 00 00       	mov    $0x1d,%edi
  402b4e:	e8 ed e1 ff ff       	callq  400d40 <signal@plt>
  402b53:	be 01 00 00 00       	mov    $0x1,%esi
  402b58:	bf 1d 00 00 00       	mov    $0x1d,%edi
  402b5d:	e8 de e1 ff ff       	callq  400d40 <signal@plt>
  402b62:	ba 00 00 00 00       	mov    $0x0,%edx
  402b67:	be 01 00 00 00       	mov    $0x1,%esi
  402b6c:	bf 02 00 00 00       	mov    $0x2,%edi
  402b71:	e8 fa e2 ff ff       	callq  400e70 <socket@plt>
  402b76:	85 c0                	test   %eax,%eax
  402b78:	0f 88 a3 00 00 00    	js     402c21 <init_driver+0x107>
  402b7e:	89 c3                	mov    %eax,%ebx
  402b80:	48 8d 3d 95 0a 00 00 	lea    0xa95(%rip),%rdi        # 40361c <trans_char+0xcc>
  402b87:	e8 c4 e1 ff ff       	callq  400d50 <gethostbyname@plt>
  402b8c:	48 85 c0             	test   %rax,%rax
  402b8f:	0f 84 df 00 00 00    	je     402c74 <init_driver+0x15a>
  402b95:	48 89 e5             	mov    %rsp,%rbp
  402b98:	48 c7 44 24 02 00 00 	movq   $0x0,0x2(%rsp)
  402b9f:	00 00 
  402ba1:	c7 45 0a 00 00 00 00 	movl   $0x0,0xa(%rbp)
  402ba8:	66 c7 45 0e 00 00    	movw   $0x0,0xe(%rbp)
  402bae:	66 c7 04 24 02 00    	movw   $0x2,(%rsp)
  402bb4:	48 63 50 14          	movslq 0x14(%rax),%rdx
  402bb8:	48 8b 40 18          	mov    0x18(%rax),%rax
  402bbc:	48 8b 30             	mov    (%rax),%rsi
  402bbf:	48 8d 7d 04          	lea    0x4(%rbp),%rdi
  402bc3:	b9 0c 00 00 00       	mov    $0xc,%ecx
  402bc8:	e8 93 e1 ff ff       	callq  400d60 <__memmove_chk@plt>
  402bcd:	66 c7 44 24 02 3c 9a 	movw   $0x9a3c,0x2(%rsp)
  402bd4:	ba 10 00 00 00       	mov    $0x10,%edx
  402bd9:	48 89 ee             	mov    %rbp,%rsi
  402bdc:	89 df                	mov    %ebx,%edi
  402bde:	e8 5d e2 ff ff       	callq  400e40 <connect@plt>
  402be3:	85 c0                	test   %eax,%eax
  402be5:	0f 88 fb 00 00 00    	js     402ce6 <init_driver+0x1cc>
  402beb:	89 df                	mov    %ebx,%edi
  402bed:	e8 2e e1 ff ff       	callq  400d20 <close@plt>
  402bf2:	66 41 c7 04 24 4f 4b 	movw   $0x4b4f,(%r12)
  402bf9:	41 c6 44 24 02 00    	movb   $0x0,0x2(%r12)
  402bff:	b8 00 00 00 00       	mov    $0x0,%eax
  402c04:	48 8b 4c 24 18       	mov    0x18(%rsp),%rcx
  402c09:	64 48 33 0c 25 28 00 	xor    %fs:0x28,%rcx
  402c10:	00 00 
  402c12:	0f 85 28 01 00 00    	jne    402d40 <init_driver+0x226>
  402c18:	48 83 c4 20          	add    $0x20,%rsp
  402c1c:	5b                   	pop    %rbx
  402c1d:	5d                   	pop    %rbp
  402c1e:	41 5c                	pop    %r12
  402c20:	c3                   	retq   
  402c21:	48 b8 45 72 72 6f 72 	movabs $0x43203a726f727245,%rax
  402c28:	3a 20 43 
  402c2b:	48 ba 6c 69 65 6e 74 	movabs $0x6e7520746e65696c,%rdx
  402c32:	20 75 6e 
  402c35:	49 89 04 24          	mov    %rax,(%r12)
  402c39:	49 89 54 24 08       	mov    %rdx,0x8(%r12)
  402c3e:	48 b8 61 62 6c 65 20 	movabs $0x206f7420656c6261,%rax
  402c45:	74 6f 20 
  402c48:	48 ba 63 72 65 61 74 	movabs $0x7320657461657263,%rdx
  402c4f:	65 20 73 
  402c52:	49 89 44 24 10       	mov    %rax,0x10(%r12)
  402c57:	49 89 54 24 18       	mov    %rdx,0x18(%r12)
  402c5c:	41 c7 44 24 20 6f 63 	movl   $0x656b636f,0x20(%r12)
  402c63:	6b 65 
  402c65:	66 41 c7 44 24 24 74 	movw   $0x74,0x24(%r12)
  402c6c:	00 
  402c6d:	b8 ff ff ff ff       	mov    $0xffffffff,%eax
  402c72:	eb 90                	jmp    402c04 <init_driver+0xea>
  402c74:	48 b8 45 72 72 6f 72 	movabs $0x44203a726f727245,%rax
  402c7b:	3a 20 44 
  402c7e:	48 ba 4e 53 20 69 73 	movabs $0x6e7520736920534e,%rdx
  402c85:	20 75 6e 
  402c88:	49 89 04 24          	mov    %rax,(%r12)
  402c8c:	49 89 54 24 08       	mov    %rdx,0x8(%r12)
  402c91:	48 b8 61 62 6c 65 20 	movabs $0x206f7420656c6261,%rax
  402c98:	74 6f 20 
  402c9b:	48 ba 72 65 73 6f 6c 	movabs $0x2065766c6f736572,%rdx
  402ca2:	76 65 20 
  402ca5:	49 89 44 24 10       	mov    %rax,0x10(%r12)
  402caa:	49 89 54 24 18       	mov    %rdx,0x18(%r12)
  402caf:	48 b8 73 65 72 76 65 	movabs $0x6120726576726573,%rax
  402cb6:	72 20 61 
  402cb9:	49 89 44 24 20       	mov    %rax,0x20(%r12)
  402cbe:	41 c7 44 24 28 64 64 	movl   $0x65726464,0x28(%r12)
  402cc5:	72 65 
  402cc7:	66 41 c7 44 24 2c 73 	movw   $0x7373,0x2c(%r12)
  402cce:	73 
  402ccf:	41 c6 44 24 2e 00    	movb   $0x0,0x2e(%r12)
  402cd5:	89 df                	mov    %ebx,%edi
  402cd7:	e8 44 e0 ff ff       	callq  400d20 <close@plt>
  402cdc:	b8 ff ff ff ff       	mov    $0xffffffff,%eax
  402ce1:	e9 1e ff ff ff       	jmpq   402c04 <init_driver+0xea>
  402ce6:	48 b8 45 72 72 6f 72 	movabs $0x55203a726f727245,%rax
  402ced:	3a 20 55 
  402cf0:	48 ba 6e 61 62 6c 65 	movabs $0x6f7420656c62616e,%rdx
  402cf7:	20 74 6f 
  402cfa:	49 89 04 24          	mov    %rax,(%r12)
  402cfe:	49 89 54 24 08       	mov    %rdx,0x8(%r12)
  402d03:	48 b8 20 63 6f 6e 6e 	movabs $0x7463656e6e6f6320,%rax
  402d0a:	65 63 74 
  402d0d:	48 ba 20 74 6f 20 73 	movabs $0x76726573206f7420,%rdx
  402d14:	65 72 76 
  402d17:	49 89 44 24 10       	mov    %rax,0x10(%r12)
  402d1c:	49 89 54 24 18       	mov    %rdx,0x18(%r12)
  402d21:	66 41 c7 44 24 20 65 	movw   $0x7265,0x20(%r12)
  402d28:	72 
  402d29:	41 c6 44 24 22 00    	movb   $0x0,0x22(%r12)
  402d2f:	89 df                	mov    %ebx,%edi
  402d31:	e8 ea df ff ff       	callq  400d20 <close@plt>
  402d36:	b8 ff ff ff ff       	mov    $0xffffffff,%eax
  402d3b:	e9 c4 fe ff ff       	jmpq   402c04 <init_driver+0xea>
  402d40:	e8 9b df ff ff       	callq  400ce0 <__stack_chk_fail@plt>

0000000000402d45 <driver_post>:
  402d45:	53                   	push   %rbx
  402d46:	4c 89 cb             	mov    %r9,%rbx
  402d49:	45 85 c0             	test   %r8d,%r8d
  402d4c:	75 18                	jne    402d66 <driver_post+0x21>
  402d4e:	48 85 ff             	test   %rdi,%rdi
  402d51:	74 05                	je     402d58 <driver_post+0x13>
  402d53:	80 3f 00             	cmpb   $0x0,(%rdi)
  402d56:	75 37                	jne    402d8f <driver_post+0x4a>
  402d58:	66 c7 03 4f 4b       	movw   $0x4b4f,(%rbx)
  402d5d:	c6 43 02 00          	movb   $0x0,0x2(%rbx)
  402d61:	44 89 c0             	mov    %r8d,%eax
  402d64:	5b                   	pop    %rbx
  402d65:	c3                   	retq   
  402d66:	48 89 ca             	mov    %rcx,%rdx
  402d69:	48 8d 35 b8 08 00 00 	lea    0x8b8(%rip),%rsi        # 403628 <trans_char+0xd8>
  402d70:	bf 01 00 00 00       	mov    $0x1,%edi
  402d75:	b8 00 00 00 00       	mov    $0x0,%eax
  402d7a:	e8 61 e0 ff ff       	callq  400de0 <__printf_chk@plt>
  402d7f:	66 c7 03 4f 4b       	movw   $0x4b4f,(%rbx)
  402d84:	c6 43 02 00          	movb   $0x0,0x2(%rbx)
  402d88:	b8 00 00 00 00       	mov    $0x0,%eax
  402d8d:	eb d5                	jmp    402d64 <driver_post+0x1f>
  402d8f:	48 83 ec 08          	sub    $0x8,%rsp
  402d93:	41 51                	push   %r9
  402d95:	49 89 c9             	mov    %rcx,%r9
  402d98:	49 89 d0             	mov    %rdx,%r8
  402d9b:	48 89 f9             	mov    %rdi,%rcx
  402d9e:	48 89 f2             	mov    %rsi,%rdx
  402da1:	be 9a 3c 00 00       	mov    $0x3c9a,%esi
  402da6:	48 8d 3d 6f 08 00 00 	lea    0x86f(%rip),%rdi        # 40361c <trans_char+0xcc>
  402dad:	e8 b9 f5 ff ff       	callq  40236b <submitr>
  402db2:	48 83 c4 10          	add    $0x10,%rsp
  402db6:	eb ac                	jmp    402d64 <driver_post+0x1f>

0000000000402db8 <check>:
  402db8:	89 f8                	mov    %edi,%eax
  402dba:	c1 e8 1c             	shr    $0x1c,%eax
  402dbd:	85 c0                	test   %eax,%eax
  402dbf:	74 1d                	je     402dde <check+0x26>
  402dc1:	b9 00 00 00 00       	mov    $0x0,%ecx
  402dc6:	83 f9 1f             	cmp    $0x1f,%ecx
  402dc9:	7f 0d                	jg     402dd8 <check+0x20>
  402dcb:	89 f8                	mov    %edi,%eax
  402dcd:	d3 e8                	shr    %cl,%eax
  402dcf:	3c 0a                	cmp    $0xa,%al
  402dd1:	74 11                	je     402de4 <check+0x2c>
  402dd3:	83 c1 08             	add    $0x8,%ecx
  402dd6:	eb ee                	jmp    402dc6 <check+0xe>
  402dd8:	b8 01 00 00 00       	mov    $0x1,%eax
  402ddd:	c3                   	retq   
  402dde:	b8 00 00 00 00       	mov    $0x0,%eax
  402de3:	c3                   	retq   
  402de4:	b8 00 00 00 00       	mov    $0x0,%eax
  402de9:	c3                   	retq   

0000000000402dea <gencookie>:
  402dea:	53                   	push   %rbx
  402deb:	83 c7 01             	add    $0x1,%edi
  402dee:	e8 9d de ff ff       	callq  400c90 <srandom@plt>
  402df3:	e8 a8 df ff ff       	callq  400da0 <random@plt>
  402df8:	89 c3                	mov    %eax,%ebx
  402dfa:	89 c7                	mov    %eax,%edi
  402dfc:	e8 b7 ff ff ff       	callq  402db8 <check>
  402e01:	85 c0                	test   %eax,%eax
  402e03:	74 ee                	je     402df3 <gencookie+0x9>
  402e05:	89 d8                	mov    %ebx,%eax
  402e07:	5b                   	pop    %rbx
  402e08:	c3                   	retq   
  402e09:	0f 1f 80 00 00 00 00 	nopl   0x0(%rax)

0000000000402e10 <__libc_csu_init>:
  402e10:	41 57                	push   %r15
  402e12:	41 56                	push   %r14
  402e14:	49 89 d7             	mov    %rdx,%r15
  402e17:	41 55                	push   %r13
  402e19:	41 54                	push   %r12
  402e1b:	4c 8d 25 ee 0f 20 00 	lea    0x200fee(%rip),%r12        # 603e10 <__frame_dummy_init_array_entry>
  402e22:	55                   	push   %rbp
  402e23:	48 8d 2d ee 0f 20 00 	lea    0x200fee(%rip),%rbp        # 603e18 <__init_array_end>
  402e2a:	53                   	push   %rbx
  402e2b:	41 89 fd             	mov    %edi,%r13d
  402e2e:	49 89 f6             	mov    %rsi,%r14
  402e31:	4c 29 e5             	sub    %r12,%rbp
  402e34:	48 83 ec 08          	sub    $0x8,%rsp
  402e38:	48 c1 fd 03          	sar    $0x3,%rbp
  402e3c:	e8 07 de ff ff       	callq  400c48 <_init>
  402e41:	48 85 ed             	test   %rbp,%rbp
  402e44:	74 20                	je     402e66 <__libc_csu_init+0x56>
  402e46:	31 db                	xor    %ebx,%ebx
  402e48:	0f 1f 84 00 00 00 00 	nopl   0x0(%rax,%rax,1)
  402e4f:	00 
  402e50:	4c 89 fa             	mov    %r15,%rdx
  402e53:	4c 89 f6             	mov    %r14,%rsi
  402e56:	44 89 ef             	mov    %r13d,%edi
  402e59:	41 ff 14 dc          	callq  *(%r12,%rbx,8)
  402e5d:	48 83 c3 01          	add    $0x1,%rbx
  402e61:	48 39 dd             	cmp    %rbx,%rbp
  402e64:	75 ea                	jne    402e50 <__libc_csu_init+0x40>
  402e66:	48 83 c4 08          	add    $0x8,%rsp
  402e6a:	5b                   	pop    %rbx
  402e6b:	5d                   	pop    %rbp
  402e6c:	41 5c                	pop    %r12
  402e6e:	41 5d                	pop    %r13
  402e70:	41 5e                	pop    %r14
  402e72:	41 5f                	pop    %r15
  402e74:	c3                   	retq   
  402e75:	90                   	nop
  402e76:	66 2e 0f 1f 84 00 00 	nopw   %cs:0x0(%rax,%rax,1)
  402e7d:	00 00 00 

0000000000402e80 <__libc_csu_fini>:
  402e80:	f3 c3                	repz retq 

Disassembly of section .fini:

0000000000402e84 <_fini>:
  402e84:	48 83 ec 08          	sub    $0x8,%rsp
  402e88:	48 83 c4 08          	add    $0x8,%rsp
  402e8c:	c3                   	retq   
