
rtarget:     file format elf64-x86-64


Disassembly of section .init:

0000000000400c48 <_init>:
  400c48:	48 83 ec 08          	sub    $0x8,%rsp
  400c4c:	48 8b 05 a5 43 20 00 	mov    0x2043a5(%rip),%rax        # 604ff8 <_DYNAMIC+0x1d8>
  400c53:	48 85 c0             	test   %rax,%rax
  400c56:	74 02                	je     400c5a <_init+0x12>
  400c58:	ff d0                	callq  *%rax
  400c5a:	48 83 c4 08          	add    $0x8,%rsp
  400c5e:	c3                   	retq   

Disassembly of section .plt:

0000000000400c60 <strcasecmp@plt-0x10>:
  400c60:	ff 35 a2 43 20 00    	pushq  0x2043a2(%rip)        # 605008 <_GLOBAL_OFFSET_TABLE_+0x8>
  400c66:	ff 25 a4 43 20 00    	jmpq   *0x2043a4(%rip)        # 605010 <_GLOBAL_OFFSET_TABLE_+0x10>
  400c6c:	0f 1f 40 00          	nopl   0x0(%rax)

0000000000400c70 <strcasecmp@plt>:
  400c70:	ff 25 a2 43 20 00    	jmpq   *0x2043a2(%rip)        # 605018 <_GLOBAL_OFFSET_TABLE_+0x18>
  400c76:	68 00 00 00 00       	pushq  $0x0
  400c7b:	e9 e0 ff ff ff       	jmpq   400c60 <_init+0x18>

0000000000400c80 <__errno_location@plt>:
  400c80:	ff 25 9a 43 20 00    	jmpq   *0x20439a(%rip)        # 605020 <_GLOBAL_OFFSET_TABLE_+0x20>
  400c86:	68 01 00 00 00       	pushq  $0x1
  400c8b:	e9 d0 ff ff ff       	jmpq   400c60 <_init+0x18>

0000000000400c90 <srandom@plt>:
  400c90:	ff 25 92 43 20 00    	jmpq   *0x204392(%rip)        # 605028 <_GLOBAL_OFFSET_TABLE_+0x28>
  400c96:	68 02 00 00 00       	pushq  $0x2
  400c9b:	e9 c0 ff ff ff       	jmpq   400c60 <_init+0x18>

0000000000400ca0 <strncmp@plt>:
  400ca0:	ff 25 8a 43 20 00    	jmpq   *0x20438a(%rip)        # 605030 <_GLOBAL_OFFSET_TABLE_+0x30>
  400ca6:	68 03 00 00 00       	pushq  $0x3
  400cab:	e9 b0 ff ff ff       	jmpq   400c60 <_init+0x18>

0000000000400cb0 <strcpy@plt>:
  400cb0:	ff 25 82 43 20 00    	jmpq   *0x204382(%rip)        # 605038 <_GLOBAL_OFFSET_TABLE_+0x38>
  400cb6:	68 04 00 00 00       	pushq  $0x4
  400cbb:	e9 a0 ff ff ff       	jmpq   400c60 <_init+0x18>

0000000000400cc0 <puts@plt>:
  400cc0:	ff 25 7a 43 20 00    	jmpq   *0x20437a(%rip)        # 605040 <_GLOBAL_OFFSET_TABLE_+0x40>
  400cc6:	68 05 00 00 00       	pushq  $0x5
  400ccb:	e9 90 ff ff ff       	jmpq   400c60 <_init+0x18>

0000000000400cd0 <write@plt>:
  400cd0:	ff 25 72 43 20 00    	jmpq   *0x204372(%rip)        # 605048 <_GLOBAL_OFFSET_TABLE_+0x48>
  400cd6:	68 06 00 00 00       	pushq  $0x6
  400cdb:	e9 80 ff ff ff       	jmpq   400c60 <_init+0x18>

0000000000400ce0 <__stack_chk_fail@plt>:
  400ce0:	ff 25 6a 43 20 00    	jmpq   *0x20436a(%rip)        # 605050 <_GLOBAL_OFFSET_TABLE_+0x50>
  400ce6:	68 07 00 00 00       	pushq  $0x7
  400ceb:	e9 70 ff ff ff       	jmpq   400c60 <_init+0x18>

0000000000400cf0 <mmap@plt>:
  400cf0:	ff 25 62 43 20 00    	jmpq   *0x204362(%rip)        # 605058 <_GLOBAL_OFFSET_TABLE_+0x58>
  400cf6:	68 08 00 00 00       	pushq  $0x8
  400cfb:	e9 60 ff ff ff       	jmpq   400c60 <_init+0x18>

0000000000400d00 <memset@plt>:
  400d00:	ff 25 5a 43 20 00    	jmpq   *0x20435a(%rip)        # 605060 <_GLOBAL_OFFSET_TABLE_+0x60>
  400d06:	68 09 00 00 00       	pushq  $0x9
  400d0b:	e9 50 ff ff ff       	jmpq   400c60 <_init+0x18>

0000000000400d10 <alarm@plt>:
  400d10:	ff 25 52 43 20 00    	jmpq   *0x204352(%rip)        # 605068 <_GLOBAL_OFFSET_TABLE_+0x68>
  400d16:	68 0a 00 00 00       	pushq  $0xa
  400d1b:	e9 40 ff ff ff       	jmpq   400c60 <_init+0x18>

0000000000400d20 <close@plt>:
  400d20:	ff 25 4a 43 20 00    	jmpq   *0x20434a(%rip)        # 605070 <_GLOBAL_OFFSET_TABLE_+0x70>
  400d26:	68 0b 00 00 00       	pushq  $0xb
  400d2b:	e9 30 ff ff ff       	jmpq   400c60 <_init+0x18>

0000000000400d30 <read@plt>:
  400d30:	ff 25 42 43 20 00    	jmpq   *0x204342(%rip)        # 605078 <_GLOBAL_OFFSET_TABLE_+0x78>
  400d36:	68 0c 00 00 00       	pushq  $0xc
  400d3b:	e9 20 ff ff ff       	jmpq   400c60 <_init+0x18>

0000000000400d40 <signal@plt>:
  400d40:	ff 25 3a 43 20 00    	jmpq   *0x20433a(%rip)        # 605080 <_GLOBAL_OFFSET_TABLE_+0x80>
  400d46:	68 0d 00 00 00       	pushq  $0xd
  400d4b:	e9 10 ff ff ff       	jmpq   400c60 <_init+0x18>

0000000000400d50 <gethostbyname@plt>:
  400d50:	ff 25 32 43 20 00    	jmpq   *0x204332(%rip)        # 605088 <_GLOBAL_OFFSET_TABLE_+0x88>
  400d56:	68 0e 00 00 00       	pushq  $0xe
  400d5b:	e9 00 ff ff ff       	jmpq   400c60 <_init+0x18>

0000000000400d60 <__memmove_chk@plt>:
  400d60:	ff 25 2a 43 20 00    	jmpq   *0x20432a(%rip)        # 605090 <_GLOBAL_OFFSET_TABLE_+0x90>
  400d66:	68 0f 00 00 00       	pushq  $0xf
  400d6b:	e9 f0 fe ff ff       	jmpq   400c60 <_init+0x18>

0000000000400d70 <strtol@plt>:
  400d70:	ff 25 22 43 20 00    	jmpq   *0x204322(%rip)        # 605098 <_GLOBAL_OFFSET_TABLE_+0x98>
  400d76:	68 10 00 00 00       	pushq  $0x10
  400d7b:	e9 e0 fe ff ff       	jmpq   400c60 <_init+0x18>

0000000000400d80 <memcpy@plt>:
  400d80:	ff 25 1a 43 20 00    	jmpq   *0x20431a(%rip)        # 6050a0 <_GLOBAL_OFFSET_TABLE_+0xa0>
  400d86:	68 11 00 00 00       	pushq  $0x11
  400d8b:	e9 d0 fe ff ff       	jmpq   400c60 <_init+0x18>

0000000000400d90 <time@plt>:
  400d90:	ff 25 12 43 20 00    	jmpq   *0x204312(%rip)        # 6050a8 <_GLOBAL_OFFSET_TABLE_+0xa8>
  400d96:	68 12 00 00 00       	pushq  $0x12
  400d9b:	e9 c0 fe ff ff       	jmpq   400c60 <_init+0x18>

0000000000400da0 <random@plt>:
  400da0:	ff 25 0a 43 20 00    	jmpq   *0x20430a(%rip)        # 6050b0 <_GLOBAL_OFFSET_TABLE_+0xb0>
  400da6:	68 13 00 00 00       	pushq  $0x13
  400dab:	e9 b0 fe ff ff       	jmpq   400c60 <_init+0x18>

0000000000400db0 <_IO_getc@plt>:
  400db0:	ff 25 02 43 20 00    	jmpq   *0x204302(%rip)        # 6050b8 <_GLOBAL_OFFSET_TABLE_+0xb8>
  400db6:	68 14 00 00 00       	pushq  $0x14
  400dbb:	e9 a0 fe ff ff       	jmpq   400c60 <_init+0x18>

0000000000400dc0 <__isoc99_sscanf@plt>:
  400dc0:	ff 25 fa 42 20 00    	jmpq   *0x2042fa(%rip)        # 6050c0 <_GLOBAL_OFFSET_TABLE_+0xc0>
  400dc6:	68 15 00 00 00       	pushq  $0x15
  400dcb:	e9 90 fe ff ff       	jmpq   400c60 <_init+0x18>

0000000000400dd0 <munmap@plt>:
  400dd0:	ff 25 f2 42 20 00    	jmpq   *0x2042f2(%rip)        # 6050c8 <_GLOBAL_OFFSET_TABLE_+0xc8>
  400dd6:	68 16 00 00 00       	pushq  $0x16
  400ddb:	e9 80 fe ff ff       	jmpq   400c60 <_init+0x18>

0000000000400de0 <__printf_chk@plt>:
  400de0:	ff 25 ea 42 20 00    	jmpq   *0x2042ea(%rip)        # 6050d0 <_GLOBAL_OFFSET_TABLE_+0xd0>
  400de6:	68 17 00 00 00       	pushq  $0x17
  400deb:	e9 70 fe ff ff       	jmpq   400c60 <_init+0x18>

0000000000400df0 <fopen@plt>:
  400df0:	ff 25 e2 42 20 00    	jmpq   *0x2042e2(%rip)        # 6050d8 <_GLOBAL_OFFSET_TABLE_+0xd8>
  400df6:	68 18 00 00 00       	pushq  $0x18
  400dfb:	e9 60 fe ff ff       	jmpq   400c60 <_init+0x18>

0000000000400e00 <getopt@plt>:
  400e00:	ff 25 da 42 20 00    	jmpq   *0x2042da(%rip)        # 6050e0 <_GLOBAL_OFFSET_TABLE_+0xe0>
  400e06:	68 19 00 00 00       	pushq  $0x19
  400e0b:	e9 50 fe ff ff       	jmpq   400c60 <_init+0x18>

0000000000400e10 <strtoul@plt>:
  400e10:	ff 25 d2 42 20 00    	jmpq   *0x2042d2(%rip)        # 6050e8 <_GLOBAL_OFFSET_TABLE_+0xe8>
  400e16:	68 1a 00 00 00       	pushq  $0x1a
  400e1b:	e9 40 fe ff ff       	jmpq   400c60 <_init+0x18>

0000000000400e20 <gethostname@plt>:
  400e20:	ff 25 ca 42 20 00    	jmpq   *0x2042ca(%rip)        # 6050f0 <_GLOBAL_OFFSET_TABLE_+0xf0>
  400e26:	68 1b 00 00 00       	pushq  $0x1b
  400e2b:	e9 30 fe ff ff       	jmpq   400c60 <_init+0x18>

0000000000400e30 <exit@plt>:
  400e30:	ff 25 c2 42 20 00    	jmpq   *0x2042c2(%rip)        # 6050f8 <_GLOBAL_OFFSET_TABLE_+0xf8>
  400e36:	68 1c 00 00 00       	pushq  $0x1c
  400e3b:	e9 20 fe ff ff       	jmpq   400c60 <_init+0x18>

0000000000400e40 <connect@plt>:
  400e40:	ff 25 ba 42 20 00    	jmpq   *0x2042ba(%rip)        # 605100 <_GLOBAL_OFFSET_TABLE_+0x100>
  400e46:	68 1d 00 00 00       	pushq  $0x1d
  400e4b:	e9 10 fe ff ff       	jmpq   400c60 <_init+0x18>

0000000000400e50 <__fprintf_chk@plt>:
  400e50:	ff 25 b2 42 20 00    	jmpq   *0x2042b2(%rip)        # 605108 <_GLOBAL_OFFSET_TABLE_+0x108>
  400e56:	68 1e 00 00 00       	pushq  $0x1e
  400e5b:	e9 00 fe ff ff       	jmpq   400c60 <_init+0x18>

0000000000400e60 <__sprintf_chk@plt>:
  400e60:	ff 25 aa 42 20 00    	jmpq   *0x2042aa(%rip)        # 605110 <_GLOBAL_OFFSET_TABLE_+0x110>
  400e66:	68 1f 00 00 00       	pushq  $0x1f
  400e6b:	e9 f0 fd ff ff       	jmpq   400c60 <_init+0x18>

0000000000400e70 <socket@plt>:
  400e70:	ff 25 a2 42 20 00    	jmpq   *0x2042a2(%rip)        # 605118 <_GLOBAL_OFFSET_TABLE_+0x118>
  400e76:	68 20 00 00 00       	pushq  $0x20
  400e7b:	e9 e0 fd ff ff       	jmpq   400c60 <_init+0x18>

Disassembly of section .text:

0000000000400e80 <_start>:
  400e80:	31 ed                	xor    %ebp,%ebp
  400e82:	49 89 d1             	mov    %rdx,%r9
  400e85:	5e                   	pop    %rsi
  400e86:	48 89 e2             	mov    %rsp,%rdx
  400e89:	48 83 e4 f0          	and    $0xfffffffffffffff0,%rsp
  400e8d:	50                   	push   %rax
  400e8e:	54                   	push   %rsp
  400e8f:	49 c7 c0 a0 2f 40 00 	mov    $0x402fa0,%r8
  400e96:	48 c7 c1 30 2f 40 00 	mov    $0x402f30,%rcx
  400e9d:	48 c7 c7 60 11 40 00 	mov    $0x401160,%rdi
  400ea4:	ff 15 46 41 20 00    	callq  *0x204146(%rip)        # 604ff0 <_DYNAMIC+0x1d0>
  400eaa:	f4                   	hlt    
  400eab:	0f 1f 44 00 00       	nopl   0x0(%rax,%rax,1)

0000000000400eb0 <_dl_relocate_static_pie>:
  400eb0:	f3 c3                	repz retq 
  400eb2:	66 2e 0f 1f 84 00 00 	nopw   %cs:0x0(%rax,%rax,1)
  400eb9:	00 00 00 
  400ebc:	0f 1f 40 00          	nopl   0x0(%rax)

0000000000400ec0 <deregister_tm_clones>:
  400ec0:	55                   	push   %rbp
  400ec1:	b8 90 54 60 00       	mov    $0x605490,%eax
  400ec6:	48 3d 90 54 60 00    	cmp    $0x605490,%rax
  400ecc:	48 89 e5             	mov    %rsp,%rbp
  400ecf:	74 17                	je     400ee8 <deregister_tm_clones+0x28>
  400ed1:	b8 00 00 00 00       	mov    $0x0,%eax
  400ed6:	48 85 c0             	test   %rax,%rax
  400ed9:	74 0d                	je     400ee8 <deregister_tm_clones+0x28>
  400edb:	5d                   	pop    %rbp
  400edc:	bf 90 54 60 00       	mov    $0x605490,%edi
  400ee1:	ff e0                	jmpq   *%rax
  400ee3:	0f 1f 44 00 00       	nopl   0x0(%rax,%rax,1)
  400ee8:	5d                   	pop    %rbp
  400ee9:	c3                   	retq   
  400eea:	66 0f 1f 44 00 00    	nopw   0x0(%rax,%rax,1)

0000000000400ef0 <register_tm_clones>:
  400ef0:	be 90 54 60 00       	mov    $0x605490,%esi
  400ef5:	55                   	push   %rbp
  400ef6:	48 81 ee 90 54 60 00 	sub    $0x605490,%rsi
  400efd:	48 89 e5             	mov    %rsp,%rbp
  400f00:	48 c1 fe 03          	sar    $0x3,%rsi
  400f04:	48 89 f0             	mov    %rsi,%rax
  400f07:	48 c1 e8 3f          	shr    $0x3f,%rax
  400f0b:	48 01 c6             	add    %rax,%rsi
  400f0e:	48 d1 fe             	sar    %rsi
  400f11:	74 15                	je     400f28 <register_tm_clones+0x38>
  400f13:	b8 00 00 00 00       	mov    $0x0,%eax
  400f18:	48 85 c0             	test   %rax,%rax
  400f1b:	74 0b                	je     400f28 <register_tm_clones+0x38>
  400f1d:	5d                   	pop    %rbp
  400f1e:	bf 90 54 60 00       	mov    $0x605490,%edi
  400f23:	ff e0                	jmpq   *%rax
  400f25:	0f 1f 00             	nopl   (%rax)
  400f28:	5d                   	pop    %rbp
  400f29:	c3                   	retq   
  400f2a:	66 0f 1f 44 00 00    	nopw   0x0(%rax,%rax,1)

0000000000400f30 <__do_global_dtors_aux>:
  400f30:	80 3d 91 45 20 00 00 	cmpb   $0x0,0x204591(%rip)        # 6054c8 <completed.7697>
  400f37:	75 17                	jne    400f50 <__do_global_dtors_aux+0x20>
  400f39:	55                   	push   %rbp
  400f3a:	48 89 e5             	mov    %rsp,%rbp
  400f3d:	e8 7e ff ff ff       	callq  400ec0 <deregister_tm_clones>
  400f42:	c6 05 7f 45 20 00 01 	movb   $0x1,0x20457f(%rip)        # 6054c8 <completed.7697>
  400f49:	5d                   	pop    %rbp
  400f4a:	c3                   	retq   
  400f4b:	0f 1f 44 00 00       	nopl   0x0(%rax,%rax,1)
  400f50:	f3 c3                	repz retq 
  400f52:	0f 1f 40 00          	nopl   0x0(%rax)
  400f56:	66 2e 0f 1f 84 00 00 	nopw   %cs:0x0(%rax,%rax,1)
  400f5d:	00 00 00 

0000000000400f60 <frame_dummy>:
  400f60:	55                   	push   %rbp
  400f61:	48 89 e5             	mov    %rsp,%rbp
  400f64:	5d                   	pop    %rbp
  400f65:	eb 89                	jmp    400ef0 <register_tm_clones>

0000000000400f67 <usage>:
  400f67:	48 83 ec 08          	sub    $0x8,%rsp
  400f6b:	48 89 fa             	mov    %rdi,%rdx
  400f6e:	83 3d 93 45 20 00 00 	cmpl   $0x0,0x204593(%rip)        # 605508 <is_checker>
  400f75:	74 50                	je     400fc7 <usage+0x60>
  400f77:	48 8d 35 3a 20 00 00 	lea    0x203a(%rip),%rsi        # 402fb8 <_IO_stdin_used+0x8>
  400f7e:	bf 01 00 00 00       	mov    $0x1,%edi
  400f83:	b8 00 00 00 00       	mov    $0x0,%eax
  400f88:	e8 53 fe ff ff       	callq  400de0 <__printf_chk@plt>
  400f8d:	48 8d 3d 5c 20 00 00 	lea    0x205c(%rip),%rdi        # 402ff0 <_IO_stdin_used+0x40>
  400f94:	e8 27 fd ff ff       	callq  400cc0 <puts@plt>
  400f99:	48 8d 3d 88 21 00 00 	lea    0x2188(%rip),%rdi        # 403128 <_IO_stdin_used+0x178>
  400fa0:	e8 1b fd ff ff       	callq  400cc0 <puts@plt>
  400fa5:	48 8d 3d 6c 20 00 00 	lea    0x206c(%rip),%rdi        # 403018 <_IO_stdin_used+0x68>
  400fac:	e8 0f fd ff ff       	callq  400cc0 <puts@plt>
  400fb1:	48 8d 3d 8a 21 00 00 	lea    0x218a(%rip),%rdi        # 403142 <_IO_stdin_used+0x192>
  400fb8:	e8 03 fd ff ff       	callq  400cc0 <puts@plt>
  400fbd:	bf 00 00 00 00       	mov    $0x0,%edi
  400fc2:	e8 69 fe ff ff       	callq  400e30 <exit@plt>
  400fc7:	48 8d 35 90 21 00 00 	lea    0x2190(%rip),%rsi        # 40315e <_IO_stdin_used+0x1ae>
  400fce:	bf 01 00 00 00       	mov    $0x1,%edi
  400fd3:	b8 00 00 00 00       	mov    $0x0,%eax
  400fd8:	e8 03 fe ff ff       	callq  400de0 <__printf_chk@plt>
  400fdd:	48 8d 3d 5c 20 00 00 	lea    0x205c(%rip),%rdi        # 403040 <_IO_stdin_used+0x90>
  400fe4:	e8 d7 fc ff ff       	callq  400cc0 <puts@plt>
  400fe9:	48 8d 3d 78 20 00 00 	lea    0x2078(%rip),%rdi        # 403068 <_IO_stdin_used+0xb8>
  400ff0:	e8 cb fc ff ff       	callq  400cc0 <puts@plt>
  400ff5:	48 8d 3d 80 21 00 00 	lea    0x2180(%rip),%rdi        # 40317c <_IO_stdin_used+0x1cc>
  400ffc:	e8 bf fc ff ff       	callq  400cc0 <puts@plt>
  401001:	eb ba                	jmp    400fbd <usage+0x56>

0000000000401003 <initialize_target>:
  401003:	55                   	push   %rbp
  401004:	53                   	push   %rbx
  401005:	48 81 ec 18 21 00 00 	sub    $0x2118,%rsp
  40100c:	89 f5                	mov    %esi,%ebp
  40100e:	64 48 8b 04 25 28 00 	mov    %fs:0x28,%rax
  401015:	00 00 
  401017:	48 89 84 24 08 21 00 	mov    %rax,0x2108(%rsp)
  40101e:	00 
  40101f:	31 c0                	xor    %eax,%eax
  401021:	89 3d d1 44 20 00    	mov    %edi,0x2044d1(%rip)        # 6054f8 <check_level>
  401027:	8b 3d 03 41 20 00    	mov    0x204103(%rip),%edi        # 605130 <target_id>
  40102d:	e8 d6 1e 00 00       	callq  402f08 <gencookie>
  401032:	89 05 cc 44 20 00    	mov    %eax,0x2044cc(%rip)        # 605504 <cookie>
  401038:	89 c7                	mov    %eax,%edi
  40103a:	e8 c9 1e 00 00       	callq  402f08 <gencookie>
  40103f:	89 05 bb 44 20 00    	mov    %eax,0x2044bb(%rip)        # 605500 <authkey>
  401045:	8b 05 e5 40 20 00    	mov    0x2040e5(%rip),%eax        # 605130 <target_id>
  40104b:	8d 78 01             	lea    0x1(%rax),%edi
  40104e:	e8 3d fc ff ff       	callq  400c90 <srandom@plt>
  401053:	e8 48 fd ff ff       	callq  400da0 <random@plt>
  401058:	89 c7                	mov    %eax,%edi
  40105a:	e8 ec 02 00 00       	callq  40134b <scramble>
  40105f:	89 c3                	mov    %eax,%ebx
  401061:	85 ed                	test   %ebp,%ebp
  401063:	75 54                	jne    4010b9 <initialize_target+0xb6>
  401065:	b8 00 00 00 00       	mov    $0x0,%eax
  40106a:	01 d8                	add    %ebx,%eax
  40106c:	0f b7 c0             	movzwl %ax,%eax
  40106f:	8d 04 c5 00 01 00 00 	lea    0x100(,%rax,8),%eax
  401076:	89 c0                	mov    %eax,%eax
  401078:	48 89 05 01 44 20 00 	mov    %rax,0x204401(%rip)        # 605480 <buf_offset>
  40107f:	c6 05 a2 50 20 00 72 	movb   $0x72,0x2050a2(%rip)        # 606128 <target_prefix>
  401086:	83 3d fb 43 20 00 00 	cmpl   $0x0,0x2043fb(%rip)        # 605488 <notify>
  40108d:	74 09                	je     401098 <initialize_target+0x95>
  40108f:	83 3d 72 44 20 00 00 	cmpl   $0x0,0x204472(%rip)        # 605508 <is_checker>
  401096:	74 39                	je     4010d1 <initialize_target+0xce>
  401098:	48 8b 84 24 08 21 00 	mov    0x2108(%rsp),%rax
  40109f:	00 
  4010a0:	64 48 33 04 25 28 00 	xor    %fs:0x28,%rax
  4010a7:	00 00 
  4010a9:	0f 85 ac 00 00 00    	jne    40115b <initialize_target+0x158>
  4010af:	48 81 c4 18 21 00 00 	add    $0x2118,%rsp
  4010b6:	5b                   	pop    %rbx
  4010b7:	5d                   	pop    %rbp
  4010b8:	c3                   	retq   
  4010b9:	bf 00 00 00 00       	mov    $0x0,%edi
  4010be:	e8 cd fc ff ff       	callq  400d90 <time@plt>
  4010c3:	89 c7                	mov    %eax,%edi
  4010c5:	e8 c6 fb ff ff       	callq  400c90 <srandom@plt>
  4010ca:	e8 d1 fc ff ff       	callq  400da0 <random@plt>
  4010cf:	eb 99                	jmp    40106a <initialize_target+0x67>
  4010d1:	48 89 e7             	mov    %rsp,%rdi
  4010d4:	be 00 01 00 00       	mov    $0x100,%esi
  4010d9:	e8 42 fd ff ff       	callq  400e20 <gethostname@plt>
  4010de:	89 c3                	mov    %eax,%ebx
  4010e0:	85 c0                	test   %eax,%eax
  4010e2:	75 24                	jne    401108 <initialize_target+0x105>
  4010e4:	48 63 c3             	movslq %ebx,%rax
  4010e7:	48 8d 15 72 40 20 00 	lea    0x204072(%rip),%rdx        # 605160 <host_table>
  4010ee:	48 8b 3c c2          	mov    (%rdx,%rax,8),%rdi
  4010f2:	48 85 ff             	test   %rdi,%rdi
  4010f5:	74 27                	je     40111e <initialize_target+0x11b>
  4010f7:	48 89 e6             	mov    %rsp,%rsi
  4010fa:	e8 71 fb ff ff       	callq  400c70 <strcasecmp@plt>
  4010ff:	85 c0                	test   %eax,%eax
  401101:	74 1b                	je     40111e <initialize_target+0x11b>
  401103:	83 c3 01             	add    $0x1,%ebx
  401106:	eb dc                	jmp    4010e4 <initialize_target+0xe1>
  401108:	48 8d 3d 89 1f 00 00 	lea    0x1f89(%rip),%rdi        # 403098 <_IO_stdin_used+0xe8>
  40110f:	e8 ac fb ff ff       	callq  400cc0 <puts@plt>
  401114:	bf 08 00 00 00       	mov    $0x8,%edi
  401119:	e8 12 fd ff ff       	callq  400e30 <exit@plt>
  40111e:	48 8d bc 24 00 01 00 	lea    0x100(%rsp),%rdi
  401125:	00 
  401126:	e8 0d 1b 00 00       	callq  402c38 <init_driver>
  40112b:	85 c0                	test   %eax,%eax
  40112d:	0f 89 65 ff ff ff    	jns    401098 <initialize_target+0x95>
  401133:	48 8d 94 24 00 01 00 	lea    0x100(%rsp),%rdx
  40113a:	00 
  40113b:	48 8d 35 8e 1f 00 00 	lea    0x1f8e(%rip),%rsi        # 4030d0 <_IO_stdin_used+0x120>
  401142:	bf 01 00 00 00       	mov    $0x1,%edi
  401147:	b8 00 00 00 00       	mov    $0x0,%eax
  40114c:	e8 8f fc ff ff       	callq  400de0 <__printf_chk@plt>
  401151:	bf 08 00 00 00       	mov    $0x8,%edi
  401156:	e8 d5 fc ff ff       	callq  400e30 <exit@plt>
  40115b:	e8 80 fb ff ff       	callq  400ce0 <__stack_chk_fail@plt>

0000000000401160 <main>:
  401160:	41 56                	push   %r14
  401162:	41 55                	push   %r13
  401164:	41 54                	push   %r12
  401166:	55                   	push   %rbp
  401167:	53                   	push   %rbx
  401168:	41 89 fc             	mov    %edi,%r12d
  40116b:	48 89 f3             	mov    %rsi,%rbx
  40116e:	48 c7 c6 3f 1f 40 00 	mov    $0x401f3f,%rsi
  401175:	bf 0b 00 00 00       	mov    $0xb,%edi
  40117a:	e8 c1 fb ff ff       	callq  400d40 <signal@plt>
  40117f:	48 c7 c6 eb 1e 40 00 	mov    $0x401eeb,%rsi
  401186:	bf 07 00 00 00       	mov    $0x7,%edi
  40118b:	e8 b0 fb ff ff       	callq  400d40 <signal@plt>
  401190:	48 c7 c6 93 1f 40 00 	mov    $0x401f93,%rsi
  401197:	bf 04 00 00 00       	mov    $0x4,%edi
  40119c:	e8 9f fb ff ff       	callq  400d40 <signal@plt>
  4011a1:	83 3d 60 43 20 00 00 	cmpl   $0x0,0x204360(%rip)        # 605508 <is_checker>
  4011a8:	75 26                	jne    4011d0 <main+0x70>
  4011aa:	48 8d 2d e4 1f 00 00 	lea    0x1fe4(%rip),%rbp        # 403195 <_IO_stdin_used+0x1e5>
  4011b1:	48 8b 05 e8 42 20 00 	mov    0x2042e8(%rip),%rax        # 6054a0 <stdin@@GLIBC_2.2.5>
  4011b8:	48 89 05 31 43 20 00 	mov    %rax,0x204331(%rip)        # 6054f0 <infile>
  4011bf:	41 bd 00 00 00 00    	mov    $0x0,%r13d
  4011c5:	41 be 00 00 00 00    	mov    $0x0,%r14d
  4011cb:	e9 8d 00 00 00       	jmpq   40125d <main+0xfd>
  4011d0:	48 c7 c6 e7 1f 40 00 	mov    $0x401fe7,%rsi
  4011d7:	bf 0e 00 00 00       	mov    $0xe,%edi
  4011dc:	e8 5f fb ff ff       	callq  400d40 <signal@plt>
  4011e1:	bf 05 00 00 00       	mov    $0x5,%edi
  4011e6:	e8 25 fb ff ff       	callq  400d10 <alarm@plt>
  4011eb:	48 8d 2d a8 1f 00 00 	lea    0x1fa8(%rip),%rbp        # 40319a <_IO_stdin_used+0x1ea>
  4011f2:	eb bd                	jmp    4011b1 <main+0x51>
  4011f4:	48 8b 3b             	mov    (%rbx),%rdi
  4011f7:	e8 6b fd ff ff       	callq  400f67 <usage>
  4011fc:	48 8d 35 2c 22 00 00 	lea    0x222c(%rip),%rsi        # 40342f <_IO_stdin_used+0x47f>
  401203:	48 8b 3d 9e 42 20 00 	mov    0x20429e(%rip),%rdi        # 6054a8 <optarg@@GLIBC_2.2.5>
  40120a:	e8 e1 fb ff ff       	callq  400df0 <fopen@plt>
  40120f:	48 89 05 da 42 20 00 	mov    %rax,0x2042da(%rip)        # 6054f0 <infile>
  401216:	48 85 c0             	test   %rax,%rax
  401219:	75 42                	jne    40125d <main+0xfd>
  40121b:	48 8b 0d 86 42 20 00 	mov    0x204286(%rip),%rcx        # 6054a8 <optarg@@GLIBC_2.2.5>
  401222:	48 8d 15 79 1f 00 00 	lea    0x1f79(%rip),%rdx        # 4031a2 <_IO_stdin_used+0x1f2>
  401229:	be 01 00 00 00       	mov    $0x1,%esi
  40122e:	48 8b 3d 8b 42 20 00 	mov    0x20428b(%rip),%rdi        # 6054c0 <stderr@@GLIBC_2.2.5>
  401235:	e8 16 fc ff ff       	callq  400e50 <__fprintf_chk@plt>
  40123a:	b8 01 00 00 00       	mov    $0x1,%eax
  40123f:	e9 d9 00 00 00       	jmpq   40131d <main+0x1bd>
  401244:	ba 10 00 00 00       	mov    $0x10,%edx
  401249:	be 00 00 00 00       	mov    $0x0,%esi
  40124e:	48 8b 3d 53 42 20 00 	mov    0x204253(%rip),%rdi        # 6054a8 <optarg@@GLIBC_2.2.5>
  401255:	e8 b6 fb ff ff       	callq  400e10 <strtoul@plt>
  40125a:	41 89 c6             	mov    %eax,%r14d
  40125d:	48 89 ea             	mov    %rbp,%rdx
  401260:	48 89 de             	mov    %rbx,%rsi
  401263:	44 89 e7             	mov    %r12d,%edi
  401266:	e8 95 fb ff ff       	callq  400e00 <getopt@plt>
  40126b:	3c ff                	cmp    $0xff,%al
  40126d:	74 62                	je     4012d1 <main+0x171>
  40126f:	0f be d0             	movsbl %al,%edx
  401272:	83 e8 61             	sub    $0x61,%eax
  401275:	3c 10                	cmp    $0x10,%al
  401277:	77 3a                	ja     4012b3 <main+0x153>
  401279:	0f b6 c0             	movzbl %al,%eax
  40127c:	48 8d 0d 5d 1f 00 00 	lea    0x1f5d(%rip),%rcx        # 4031e0 <_IO_stdin_used+0x230>
  401283:	48 63 04 81          	movslq (%rcx,%rax,4),%rax
  401287:	48 01 c8             	add    %rcx,%rax
  40128a:	ff e0                	jmpq   *%rax
  40128c:	ba 0a 00 00 00       	mov    $0xa,%edx
  401291:	be 00 00 00 00       	mov    $0x0,%esi
  401296:	48 8b 3d 0b 42 20 00 	mov    0x20420b(%rip),%rdi        # 6054a8 <optarg@@GLIBC_2.2.5>
  40129d:	e8 ce fa ff ff       	callq  400d70 <strtol@plt>
  4012a2:	41 89 c5             	mov    %eax,%r13d
  4012a5:	eb b6                	jmp    40125d <main+0xfd>
  4012a7:	c7 05 d7 41 20 00 00 	movl   $0x0,0x2041d7(%rip)        # 605488 <notify>
  4012ae:	00 00 00 
  4012b1:	eb aa                	jmp    40125d <main+0xfd>
  4012b3:	48 8d 35 05 1f 00 00 	lea    0x1f05(%rip),%rsi        # 4031bf <_IO_stdin_used+0x20f>
  4012ba:	bf 01 00 00 00       	mov    $0x1,%edi
  4012bf:	b8 00 00 00 00       	mov    $0x0,%eax
  4012c4:	e8 17 fb ff ff       	callq  400de0 <__printf_chk@plt>
  4012c9:	48 8b 3b             	mov    (%rbx),%rdi
  4012cc:	e8 96 fc ff ff       	callq  400f67 <usage>
  4012d1:	be 01 00 00 00       	mov    $0x1,%esi
  4012d6:	44 89 ef             	mov    %r13d,%edi
  4012d9:	e8 25 fd ff ff       	callq  401003 <initialize_target>
  4012de:	83 3d 23 42 20 00 00 	cmpl   $0x0,0x204223(%rip)        # 605508 <is_checker>
  4012e5:	74 09                	je     4012f0 <main+0x190>
  4012e7:	44 39 35 12 42 20 00 	cmp    %r14d,0x204212(%rip)        # 605500 <authkey>
  4012ee:	75 36                	jne    401326 <main+0x1c6>
  4012f0:	8b 15 0e 42 20 00    	mov    0x20420e(%rip),%edx        # 605504 <cookie>
  4012f6:	48 8d 35 d5 1e 00 00 	lea    0x1ed5(%rip),%rsi        # 4031d2 <_IO_stdin_used+0x222>
  4012fd:	bf 01 00 00 00       	mov    $0x1,%edi
  401302:	b8 00 00 00 00       	mov    $0x0,%eax
  401307:	e8 d4 fa ff ff       	callq  400de0 <__printf_chk@plt>
  40130c:	48 8b 3d 6d 41 20 00 	mov    0x20416d(%rip),%rdi        # 605480 <buf_offset>
  401313:	e8 26 0d 00 00       	callq  40203e <launch>
  401318:	b8 00 00 00 00       	mov    $0x0,%eax
  40131d:	5b                   	pop    %rbx
  40131e:	5d                   	pop    %rbp
  40131f:	41 5c                	pop    %r12
  401321:	41 5d                	pop    %r13
  401323:	41 5e                	pop    %r14
  401325:	c3                   	retq   
  401326:	44 89 f2             	mov    %r14d,%edx
  401329:	48 8d 35 c8 1d 00 00 	lea    0x1dc8(%rip),%rsi        # 4030f8 <_IO_stdin_used+0x148>
  401330:	bf 01 00 00 00       	mov    $0x1,%edi
  401335:	b8 00 00 00 00       	mov    $0x0,%eax
  40133a:	e8 a1 fa ff ff       	callq  400de0 <__printf_chk@plt>
  40133f:	b8 00 00 00 00       	mov    $0x0,%eax
  401344:	e8 02 08 00 00       	callq  401b4b <check_fail>
  401349:	eb a5                	jmp    4012f0 <main+0x190>

000000000040134b <scramble>:
  40134b:	48 83 ec 38          	sub    $0x38,%rsp
  40134f:	64 48 8b 04 25 28 00 	mov    %fs:0x28,%rax
  401356:	00 00 
  401358:	48 89 44 24 28       	mov    %rax,0x28(%rsp)
  40135d:	31 c0                	xor    %eax,%eax
  40135f:	eb 10                	jmp    401371 <scramble+0x26>
  401361:	69 d0 2c 85 00 00    	imul   $0x852c,%eax,%edx
  401367:	01 fa                	add    %edi,%edx
  401369:	89 c1                	mov    %eax,%ecx
  40136b:	89 14 8c             	mov    %edx,(%rsp,%rcx,4)
  40136e:	83 c0 01             	add    $0x1,%eax
  401371:	83 f8 09             	cmp    $0x9,%eax
  401374:	76 eb                	jbe    401361 <scramble+0x16>
  401376:	8b 44 24 20          	mov    0x20(%rsp),%eax
  40137a:	69 c0 ab e8 00 00    	imul   $0xe8ab,%eax,%eax
  401380:	89 44 24 20          	mov    %eax,0x20(%rsp)
  401384:	8b 44 24 18          	mov    0x18(%rsp),%eax
  401388:	69 c0 ae 31 00 00    	imul   $0x31ae,%eax,%eax
  40138e:	89 44 24 18          	mov    %eax,0x18(%rsp)
  401392:	8b 44 24 14          	mov    0x14(%rsp),%eax
  401396:	69 c0 7a 50 00 00    	imul   $0x507a,%eax,%eax
  40139c:	89 44 24 14          	mov    %eax,0x14(%rsp)
  4013a0:	8b 44 24 20          	mov    0x20(%rsp),%eax
  4013a4:	69 c0 d9 34 00 00    	imul   $0x34d9,%eax,%eax
  4013aa:	89 44 24 20          	mov    %eax,0x20(%rsp)
  4013ae:	8b 44 24 14          	mov    0x14(%rsp),%eax
  4013b2:	69 c0 66 f8 00 00    	imul   $0xf866,%eax,%eax
  4013b8:	89 44 24 14          	mov    %eax,0x14(%rsp)
  4013bc:	8b 44 24 24          	mov    0x24(%rsp),%eax
  4013c0:	69 c0 f9 bb 00 00    	imul   $0xbbf9,%eax,%eax
  4013c6:	89 44 24 24          	mov    %eax,0x24(%rsp)
  4013ca:	8b 44 24 20          	mov    0x20(%rsp),%eax
  4013ce:	69 c0 c6 5f 00 00    	imul   $0x5fc6,%eax,%eax
  4013d4:	89 44 24 20          	mov    %eax,0x20(%rsp)
  4013d8:	8b 44 24 0c          	mov    0xc(%rsp),%eax
  4013dc:	69 c0 03 38 00 00    	imul   $0x3803,%eax,%eax
  4013e2:	89 44 24 0c          	mov    %eax,0xc(%rsp)
  4013e6:	8b 04 24             	mov    (%rsp),%eax
  4013e9:	69 c0 33 54 00 00    	imul   $0x5433,%eax,%eax
  4013ef:	89 04 24             	mov    %eax,(%rsp)
  4013f2:	8b 44 24 10          	mov    0x10(%rsp),%eax
  4013f6:	69 c0 bd d6 00 00    	imul   $0xd6bd,%eax,%eax
  4013fc:	89 44 24 10          	mov    %eax,0x10(%rsp)
  401400:	8b 44 24 08          	mov    0x8(%rsp),%eax
  401404:	69 c0 d6 dd 00 00    	imul   $0xddd6,%eax,%eax
  40140a:	89 44 24 08          	mov    %eax,0x8(%rsp)
  40140e:	8b 04 24             	mov    (%rsp),%eax
  401411:	69 c0 fe a7 00 00    	imul   $0xa7fe,%eax,%eax
  401417:	89 04 24             	mov    %eax,(%rsp)
  40141a:	8b 44 24 10          	mov    0x10(%rsp),%eax
  40141e:	69 c0 e3 99 00 00    	imul   $0x99e3,%eax,%eax
  401424:	89 44 24 10          	mov    %eax,0x10(%rsp)
  401428:	8b 44 24 1c          	mov    0x1c(%rsp),%eax
  40142c:	69 c0 92 c1 00 00    	imul   $0xc192,%eax,%eax
  401432:	89 44 24 1c          	mov    %eax,0x1c(%rsp)
  401436:	8b 44 24 14          	mov    0x14(%rsp),%eax
  40143a:	69 c0 19 6a 00 00    	imul   $0x6a19,%eax,%eax
  401440:	89 44 24 14          	mov    %eax,0x14(%rsp)
  401444:	8b 44 24 24          	mov    0x24(%rsp),%eax
  401448:	69 c0 e6 be 00 00    	imul   $0xbee6,%eax,%eax
  40144e:	89 44 24 24          	mov    %eax,0x24(%rsp)
  401452:	8b 44 24 10          	mov    0x10(%rsp),%eax
  401456:	69 c0 b0 50 00 00    	imul   $0x50b0,%eax,%eax
  40145c:	89 44 24 10          	mov    %eax,0x10(%rsp)
  401460:	8b 44 24 08          	mov    0x8(%rsp),%eax
  401464:	69 c0 e1 d2 00 00    	imul   $0xd2e1,%eax,%eax
  40146a:	89 44 24 08          	mov    %eax,0x8(%rsp)
  40146e:	8b 44 24 08          	mov    0x8(%rsp),%eax
  401472:	69 c0 57 42 00 00    	imul   $0x4257,%eax,%eax
  401478:	89 44 24 08          	mov    %eax,0x8(%rsp)
  40147c:	8b 44 24 04          	mov    0x4(%rsp),%eax
  401480:	69 c0 84 7b 00 00    	imul   $0x7b84,%eax,%eax
  401486:	89 44 24 04          	mov    %eax,0x4(%rsp)
  40148a:	8b 04 24             	mov    (%rsp),%eax
  40148d:	69 c0 0f 08 00 00    	imul   $0x80f,%eax,%eax
  401493:	89 04 24             	mov    %eax,(%rsp)
  401496:	8b 44 24 04          	mov    0x4(%rsp),%eax
  40149a:	69 c0 96 7e 00 00    	imul   $0x7e96,%eax,%eax
  4014a0:	89 44 24 04          	mov    %eax,0x4(%rsp)
  4014a4:	8b 44 24 24          	mov    0x24(%rsp),%eax
  4014a8:	69 c0 50 78 00 00    	imul   $0x7850,%eax,%eax
  4014ae:	89 44 24 24          	mov    %eax,0x24(%rsp)
  4014b2:	8b 44 24 14          	mov    0x14(%rsp),%eax
  4014b6:	69 c0 47 e5 00 00    	imul   $0xe547,%eax,%eax
  4014bc:	89 44 24 14          	mov    %eax,0x14(%rsp)
  4014c0:	8b 44 24 20          	mov    0x20(%rsp),%eax
  4014c4:	69 c0 3b 03 00 00    	imul   $0x33b,%eax,%eax
  4014ca:	89 44 24 20          	mov    %eax,0x20(%rsp)
  4014ce:	8b 44 24 24          	mov    0x24(%rsp),%eax
  4014d2:	69 c0 4b 92 00 00    	imul   $0x924b,%eax,%eax
  4014d8:	89 44 24 24          	mov    %eax,0x24(%rsp)
  4014dc:	8b 44 24 14          	mov    0x14(%rsp),%eax
  4014e0:	69 c0 c8 96 00 00    	imul   $0x96c8,%eax,%eax
  4014e6:	89 44 24 14          	mov    %eax,0x14(%rsp)
  4014ea:	8b 44 24 04          	mov    0x4(%rsp),%eax
  4014ee:	69 c0 99 59 00 00    	imul   $0x5999,%eax,%eax
  4014f4:	89 44 24 04          	mov    %eax,0x4(%rsp)
  4014f8:	8b 44 24 04          	mov    0x4(%rsp),%eax
  4014fc:	69 c0 29 d5 00 00    	imul   $0xd529,%eax,%eax
  401502:	89 44 24 04          	mov    %eax,0x4(%rsp)
  401506:	8b 44 24 14          	mov    0x14(%rsp),%eax
  40150a:	69 c0 65 6a 00 00    	imul   $0x6a65,%eax,%eax
  401510:	89 44 24 14          	mov    %eax,0x14(%rsp)
  401514:	8b 44 24 04          	mov    0x4(%rsp),%eax
  401518:	69 c0 4d 12 00 00    	imul   $0x124d,%eax,%eax
  40151e:	89 44 24 04          	mov    %eax,0x4(%rsp)
  401522:	8b 44 24 1c          	mov    0x1c(%rsp),%eax
  401526:	69 c0 08 92 00 00    	imul   $0x9208,%eax,%eax
  40152c:	89 44 24 1c          	mov    %eax,0x1c(%rsp)
  401530:	8b 44 24 0c          	mov    0xc(%rsp),%eax
  401534:	69 c0 df 19 00 00    	imul   $0x19df,%eax,%eax
  40153a:	89 44 24 0c          	mov    %eax,0xc(%rsp)
  40153e:	8b 44 24 10          	mov    0x10(%rsp),%eax
  401542:	69 c0 27 04 00 00    	imul   $0x427,%eax,%eax
  401548:	89 44 24 10          	mov    %eax,0x10(%rsp)
  40154c:	8b 04 24             	mov    (%rsp),%eax
  40154f:	69 c0 a3 6c 00 00    	imul   $0x6ca3,%eax,%eax
  401555:	89 04 24             	mov    %eax,(%rsp)
  401558:	8b 44 24 18          	mov    0x18(%rsp),%eax
  40155c:	69 c0 f4 96 00 00    	imul   $0x96f4,%eax,%eax
  401562:	89 44 24 18          	mov    %eax,0x18(%rsp)
  401566:	8b 44 24 20          	mov    0x20(%rsp),%eax
  40156a:	69 c0 2a b7 00 00    	imul   $0xb72a,%eax,%eax
  401570:	89 44 24 20          	mov    %eax,0x20(%rsp)
  401574:	8b 04 24             	mov    (%rsp),%eax
  401577:	69 c0 88 dc 00 00    	imul   $0xdc88,%eax,%eax
  40157d:	89 04 24             	mov    %eax,(%rsp)
  401580:	8b 44 24 14          	mov    0x14(%rsp),%eax
  401584:	69 c0 24 cc 00 00    	imul   $0xcc24,%eax,%eax
  40158a:	89 44 24 14          	mov    %eax,0x14(%rsp)
  40158e:	8b 44 24 04          	mov    0x4(%rsp),%eax
  401592:	69 c0 fd fb 00 00    	imul   $0xfbfd,%eax,%eax
  401598:	89 44 24 04          	mov    %eax,0x4(%rsp)
  40159c:	8b 44 24 20          	mov    0x20(%rsp),%eax
  4015a0:	69 c0 d3 7d 00 00    	imul   $0x7dd3,%eax,%eax
  4015a6:	89 44 24 20          	mov    %eax,0x20(%rsp)
  4015aa:	8b 44 24 1c          	mov    0x1c(%rsp),%eax
  4015ae:	69 c0 71 b0 00 00    	imul   $0xb071,%eax,%eax
  4015b4:	89 44 24 1c          	mov    %eax,0x1c(%rsp)
  4015b8:	8b 44 24 18          	mov    0x18(%rsp),%eax
  4015bc:	69 c0 91 c8 00 00    	imul   $0xc891,%eax,%eax
  4015c2:	89 44 24 18          	mov    %eax,0x18(%rsp)
  4015c6:	8b 44 24 10          	mov    0x10(%rsp),%eax
  4015ca:	69 c0 46 45 00 00    	imul   $0x4546,%eax,%eax
  4015d0:	89 44 24 10          	mov    %eax,0x10(%rsp)
  4015d4:	8b 44 24 24          	mov    0x24(%rsp),%eax
  4015d8:	69 c0 36 25 00 00    	imul   $0x2536,%eax,%eax
  4015de:	89 44 24 24          	mov    %eax,0x24(%rsp)
  4015e2:	8b 44 24 1c          	mov    0x1c(%rsp),%eax
  4015e6:	69 c0 fd dc 00 00    	imul   $0xdcfd,%eax,%eax
  4015ec:	89 44 24 1c          	mov    %eax,0x1c(%rsp)
  4015f0:	8b 44 24 24          	mov    0x24(%rsp),%eax
  4015f4:	69 c0 f6 d8 00 00    	imul   $0xd8f6,%eax,%eax
  4015fa:	89 44 24 24          	mov    %eax,0x24(%rsp)
  4015fe:	8b 44 24 1c          	mov    0x1c(%rsp),%eax
  401602:	69 c0 80 9a 00 00    	imul   $0x9a80,%eax,%eax
  401608:	89 44 24 1c          	mov    %eax,0x1c(%rsp)
  40160c:	8b 44 24 14          	mov    0x14(%rsp),%eax
  401610:	69 c0 ee d3 00 00    	imul   $0xd3ee,%eax,%eax
  401616:	89 44 24 14          	mov    %eax,0x14(%rsp)
  40161a:	8b 44 24 24          	mov    0x24(%rsp),%eax
  40161e:	69 c0 0c 4f 00 00    	imul   $0x4f0c,%eax,%eax
  401624:	89 44 24 24          	mov    %eax,0x24(%rsp)
  401628:	8b 44 24 08          	mov    0x8(%rsp),%eax
  40162c:	69 c0 53 1e 00 00    	imul   $0x1e53,%eax,%eax
  401632:	89 44 24 08          	mov    %eax,0x8(%rsp)
  401636:	8b 44 24 1c          	mov    0x1c(%rsp),%eax
  40163a:	69 c0 44 b5 00 00    	imul   $0xb544,%eax,%eax
  401640:	89 44 24 1c          	mov    %eax,0x1c(%rsp)
  401644:	8b 44 24 18          	mov    0x18(%rsp),%eax
  401648:	69 c0 8a fb 00 00    	imul   $0xfb8a,%eax,%eax
  40164e:	89 44 24 18          	mov    %eax,0x18(%rsp)
  401652:	8b 44 24 08          	mov    0x8(%rsp),%eax
  401656:	69 c0 f7 04 00 00    	imul   $0x4f7,%eax,%eax
  40165c:	89 44 24 08          	mov    %eax,0x8(%rsp)
  401660:	8b 44 24 10          	mov    0x10(%rsp),%eax
  401664:	69 c0 9b 53 00 00    	imul   $0x539b,%eax,%eax
  40166a:	89 44 24 10          	mov    %eax,0x10(%rsp)
  40166e:	8b 44 24 20          	mov    0x20(%rsp),%eax
  401672:	69 c0 0e 97 00 00    	imul   $0x970e,%eax,%eax
  401678:	89 44 24 20          	mov    %eax,0x20(%rsp)
  40167c:	8b 44 24 24          	mov    0x24(%rsp),%eax
  401680:	69 c0 3c 8f 00 00    	imul   $0x8f3c,%eax,%eax
  401686:	89 44 24 24          	mov    %eax,0x24(%rsp)
  40168a:	8b 44 24 24          	mov    0x24(%rsp),%eax
  40168e:	69 c0 09 e6 00 00    	imul   $0xe609,%eax,%eax
  401694:	89 44 24 24          	mov    %eax,0x24(%rsp)
  401698:	8b 44 24 14          	mov    0x14(%rsp),%eax
  40169c:	69 c0 89 51 00 00    	imul   $0x5189,%eax,%eax
  4016a2:	89 44 24 14          	mov    %eax,0x14(%rsp)
  4016a6:	8b 44 24 14          	mov    0x14(%rsp),%eax
  4016aa:	69 c0 88 f5 00 00    	imul   $0xf588,%eax,%eax
  4016b0:	89 44 24 14          	mov    %eax,0x14(%rsp)
  4016b4:	8b 44 24 1c          	mov    0x1c(%rsp),%eax
  4016b8:	69 c0 fb da 00 00    	imul   $0xdafb,%eax,%eax
  4016be:	89 44 24 1c          	mov    %eax,0x1c(%rsp)
  4016c2:	8b 44 24 1c          	mov    0x1c(%rsp),%eax
  4016c6:	69 c0 42 ae 00 00    	imul   $0xae42,%eax,%eax
  4016cc:	89 44 24 1c          	mov    %eax,0x1c(%rsp)
  4016d0:	8b 04 24             	mov    (%rsp),%eax
  4016d3:	69 c0 8b 41 00 00    	imul   $0x418b,%eax,%eax
  4016d9:	89 04 24             	mov    %eax,(%rsp)
  4016dc:	8b 44 24 24          	mov    0x24(%rsp),%eax
  4016e0:	69 c0 c7 a6 00 00    	imul   $0xa6c7,%eax,%eax
  4016e6:	89 44 24 24          	mov    %eax,0x24(%rsp)
  4016ea:	8b 44 24 04          	mov    0x4(%rsp),%eax
  4016ee:	69 c0 6a e7 00 00    	imul   $0xe76a,%eax,%eax
  4016f4:	89 44 24 04          	mov    %eax,0x4(%rsp)
  4016f8:	8b 44 24 0c          	mov    0xc(%rsp),%eax
  4016fc:	69 c0 0b 56 00 00    	imul   $0x560b,%eax,%eax
  401702:	89 44 24 0c          	mov    %eax,0xc(%rsp)
  401706:	8b 44 24 24          	mov    0x24(%rsp),%eax
  40170a:	69 c0 d3 db 00 00    	imul   $0xdbd3,%eax,%eax
  401710:	89 44 24 24          	mov    %eax,0x24(%rsp)
  401714:	8b 44 24 1c          	mov    0x1c(%rsp),%eax
  401718:	69 c0 3b db 00 00    	imul   $0xdb3b,%eax,%eax
  40171e:	89 44 24 1c          	mov    %eax,0x1c(%rsp)
  401722:	8b 44 24 20          	mov    0x20(%rsp),%eax
  401726:	69 c0 1b 9d 00 00    	imul   $0x9d1b,%eax,%eax
  40172c:	89 44 24 20          	mov    %eax,0x20(%rsp)
  401730:	8b 04 24             	mov    (%rsp),%eax
  401733:	69 c0 0c 9f 00 00    	imul   $0x9f0c,%eax,%eax
  401739:	89 04 24             	mov    %eax,(%rsp)
  40173c:	8b 44 24 18          	mov    0x18(%rsp),%eax
  401740:	69 c0 27 e1 00 00    	imul   $0xe127,%eax,%eax
  401746:	89 44 24 18          	mov    %eax,0x18(%rsp)
  40174a:	8b 44 24 24          	mov    0x24(%rsp),%eax
  40174e:	69 c0 24 c2 00 00    	imul   $0xc224,%eax,%eax
  401754:	89 44 24 24          	mov    %eax,0x24(%rsp)
  401758:	8b 44 24 14          	mov    0x14(%rsp),%eax
  40175c:	69 c0 99 7d 00 00    	imul   $0x7d99,%eax,%eax
  401762:	89 44 24 14          	mov    %eax,0x14(%rsp)
  401766:	8b 44 24 10          	mov    0x10(%rsp),%eax
  40176a:	69 c0 31 c8 00 00    	imul   $0xc831,%eax,%eax
  401770:	89 44 24 10          	mov    %eax,0x10(%rsp)
  401774:	8b 44 24 14          	mov    0x14(%rsp),%eax
  401778:	69 c0 7c d3 00 00    	imul   $0xd37c,%eax,%eax
  40177e:	89 44 24 14          	mov    %eax,0x14(%rsp)
  401782:	8b 44 24 1c          	mov    0x1c(%rsp),%eax
  401786:	69 c0 e2 45 00 00    	imul   $0x45e2,%eax,%eax
  40178c:	89 44 24 1c          	mov    %eax,0x1c(%rsp)
  401790:	ba 00 00 00 00       	mov    $0x0,%edx
  401795:	b8 00 00 00 00       	mov    $0x0,%eax
  40179a:	eb 0a                	jmp    4017a6 <scramble+0x45b>
  40179c:	89 d1                	mov    %edx,%ecx
  40179e:	8b 0c 8c             	mov    (%rsp,%rcx,4),%ecx
  4017a1:	01 c8                	add    %ecx,%eax
  4017a3:	83 c2 01             	add    $0x1,%edx
  4017a6:	83 fa 09             	cmp    $0x9,%edx
  4017a9:	76 f1                	jbe    40179c <scramble+0x451>
  4017ab:	48 8b 74 24 28       	mov    0x28(%rsp),%rsi
  4017b0:	64 48 33 34 25 28 00 	xor    %fs:0x28,%rsi
  4017b7:	00 00 
  4017b9:	75 05                	jne    4017c0 <scramble+0x475>
  4017bb:	48 83 c4 38          	add    $0x38,%rsp
  4017bf:	c3                   	retq   
  4017c0:	e8 1b f5 ff ff       	callq  400ce0 <__stack_chk_fail@plt>

00000000004017c5 <getbuf>:
  4017c5:	48 83 ec 38          	sub    $0x38,%rsp
  4017c9:	48 89 e7             	mov    %rsp,%rdi
  4017cc:	e8 b2 03 00 00       	callq  401b83 <Gets>
  4017d1:	b8 01 00 00 00       	mov    $0x1,%eax
  4017d6:	48 83 c4 38          	add    $0x38,%rsp
  4017da:	c3                   	retq   

00000000004017db <touch1>:
  4017db:	48 83 ec 08          	sub    $0x8,%rsp
  4017df:	c7 05 13 3d 20 00 01 	movl   $0x1,0x203d13(%rip)        # 6054fc <vlevel>
  4017e6:	00 00 00 
  4017e9:	48 8d 3d 90 1a 00 00 	lea    0x1a90(%rip),%rdi        # 403280 <_IO_stdin_used+0x2d0>
  4017f0:	e8 cb f4 ff ff       	callq  400cc0 <puts@plt>
  4017f5:	bf 01 00 00 00       	mov    $0x1,%edi
  4017fa:	e8 f4 05 00 00       	callq  401df3 <validate>
  4017ff:	bf 00 00 00 00       	mov    $0x0,%edi
  401804:	e8 27 f6 ff ff       	callq  400e30 <exit@plt>

0000000000401809 <touch2>:
  401809:	48 83 ec 08          	sub    $0x8,%rsp
  40180d:	89 fa                	mov    %edi,%edx
  40180f:	c7 05 e3 3c 20 00 02 	movl   $0x2,0x203ce3(%rip)        # 6054fc <vlevel>
  401816:	00 00 00 
  401819:	39 3d e5 3c 20 00    	cmp    %edi,0x203ce5(%rip)        # 605504 <cookie>
  40181f:	74 2a                	je     40184b <touch2+0x42>
  401821:	48 8d 35 a8 1a 00 00 	lea    0x1aa8(%rip),%rsi        # 4032d0 <_IO_stdin_used+0x320>
  401828:	bf 01 00 00 00       	mov    $0x1,%edi
  40182d:	b8 00 00 00 00       	mov    $0x0,%eax
  401832:	e8 a9 f5 ff ff       	callq  400de0 <__printf_chk@plt>
  401837:	bf 02 00 00 00       	mov    $0x2,%edi
  40183c:	e8 82 06 00 00       	callq  401ec3 <fail>
  401841:	bf 00 00 00 00       	mov    $0x0,%edi
  401846:	e8 e5 f5 ff ff       	callq  400e30 <exit@plt>
  40184b:	48 8d 35 56 1a 00 00 	lea    0x1a56(%rip),%rsi        # 4032a8 <_IO_stdin_used+0x2f8>
  401852:	bf 01 00 00 00       	mov    $0x1,%edi
  401857:	b8 00 00 00 00       	mov    $0x0,%eax
  40185c:	e8 7f f5 ff ff       	callq  400de0 <__printf_chk@plt>
  401861:	bf 02 00 00 00       	mov    $0x2,%edi
  401866:	e8 88 05 00 00       	callq  401df3 <validate>
  40186b:	eb d4                	jmp    401841 <touch2+0x38>

000000000040186d <hexmatch>:
  40186d:	41 54                	push   %r12
  40186f:	55                   	push   %rbp
  401870:	53                   	push   %rbx
  401871:	48 83 c4 80          	add    $0xffffffffffffff80,%rsp
  401875:	89 fd                	mov    %edi,%ebp
  401877:	48 89 f3             	mov    %rsi,%rbx
  40187a:	64 48 8b 04 25 28 00 	mov    %fs:0x28,%rax
  401881:	00 00 
  401883:	48 89 44 24 78       	mov    %rax,0x78(%rsp)
  401888:	31 c0                	xor    %eax,%eax
  40188a:	e8 11 f5 ff ff       	callq  400da0 <random@plt>
  40188f:	48 89 c1             	mov    %rax,%rcx
  401892:	48 ba 0b d7 a3 70 3d 	movabs $0xa3d70a3d70a3d70b,%rdx
  401899:	0a d7 a3 
  40189c:	48 f7 ea             	imul   %rdx
  40189f:	48 01 ca             	add    %rcx,%rdx
  4018a2:	48 c1 fa 06          	sar    $0x6,%rdx
  4018a6:	48 89 c8             	mov    %rcx,%rax
  4018a9:	48 c1 f8 3f          	sar    $0x3f,%rax
  4018ad:	48 29 c2             	sub    %rax,%rdx
  4018b0:	48 8d 04 92          	lea    (%rdx,%rdx,4),%rax
  4018b4:	48 8d 14 80          	lea    (%rax,%rax,4),%rdx
  4018b8:	48 8d 04 95 00 00 00 	lea    0x0(,%rdx,4),%rax
  4018bf:	00 
  4018c0:	48 29 c1             	sub    %rax,%rcx
  4018c3:	4c 8d 24 0c          	lea    (%rsp,%rcx,1),%r12
  4018c7:	41 89 e8             	mov    %ebp,%r8d
  4018ca:	48 8d 0d cc 19 00 00 	lea    0x19cc(%rip),%rcx        # 40329d <_IO_stdin_used+0x2ed>
  4018d1:	48 c7 c2 ff ff ff ff 	mov    $0xffffffffffffffff,%rdx
  4018d8:	be 01 00 00 00       	mov    $0x1,%esi
  4018dd:	4c 89 e7             	mov    %r12,%rdi
  4018e0:	b8 00 00 00 00       	mov    $0x0,%eax
  4018e5:	e8 76 f5 ff ff       	callq  400e60 <__sprintf_chk@plt>
  4018ea:	ba 09 00 00 00       	mov    $0x9,%edx
  4018ef:	4c 89 e6             	mov    %r12,%rsi
  4018f2:	48 89 df             	mov    %rbx,%rdi
  4018f5:	e8 a6 f3 ff ff       	callq  400ca0 <strncmp@plt>
  4018fa:	85 c0                	test   %eax,%eax
  4018fc:	0f 94 c0             	sete   %al
  4018ff:	48 8b 5c 24 78       	mov    0x78(%rsp),%rbx
  401904:	64 48 33 1c 25 28 00 	xor    %fs:0x28,%rbx
  40190b:	00 00 
  40190d:	75 0c                	jne    40191b <hexmatch+0xae>
  40190f:	0f b6 c0             	movzbl %al,%eax
  401912:	48 83 ec 80          	sub    $0xffffffffffffff80,%rsp
  401916:	5b                   	pop    %rbx
  401917:	5d                   	pop    %rbp
  401918:	41 5c                	pop    %r12
  40191a:	c3                   	retq   
  40191b:	e8 c0 f3 ff ff       	callq  400ce0 <__stack_chk_fail@plt>

0000000000401920 <touch3>:
  401920:	53                   	push   %rbx
  401921:	48 89 fb             	mov    %rdi,%rbx
  401924:	c7 05 ce 3b 20 00 03 	movl   $0x3,0x203bce(%rip)        # 6054fc <vlevel>
  40192b:	00 00 00 
  40192e:	48 89 fe             	mov    %rdi,%rsi
  401931:	8b 3d cd 3b 20 00    	mov    0x203bcd(%rip),%edi        # 605504 <cookie>
  401937:	e8 31 ff ff ff       	callq  40186d <hexmatch>
  40193c:	85 c0                	test   %eax,%eax
  40193e:	74 2d                	je     40196d <touch3+0x4d>
  401940:	48 89 da             	mov    %rbx,%rdx
  401943:	48 8d 35 ae 19 00 00 	lea    0x19ae(%rip),%rsi        # 4032f8 <_IO_stdin_used+0x348>
  40194a:	bf 01 00 00 00       	mov    $0x1,%edi
  40194f:	b8 00 00 00 00       	mov    $0x0,%eax
  401954:	e8 87 f4 ff ff       	callq  400de0 <__printf_chk@plt>
  401959:	bf 03 00 00 00       	mov    $0x3,%edi
  40195e:	e8 90 04 00 00       	callq  401df3 <validate>
  401963:	bf 00 00 00 00       	mov    $0x0,%edi
  401968:	e8 c3 f4 ff ff       	callq  400e30 <exit@plt>
  40196d:	48 89 da             	mov    %rbx,%rdx
  401970:	48 8d 35 a9 19 00 00 	lea    0x19a9(%rip),%rsi        # 403320 <_IO_stdin_used+0x370>
  401977:	bf 01 00 00 00       	mov    $0x1,%edi
  40197c:	b8 00 00 00 00       	mov    $0x0,%eax
  401981:	e8 5a f4 ff ff       	callq  400de0 <__printf_chk@plt>
  401986:	bf 03 00 00 00       	mov    $0x3,%edi
  40198b:	e8 33 05 00 00       	callq  401ec3 <fail>
  401990:	eb d1                	jmp    401963 <touch3+0x43>

0000000000401992 <test>:
  401992:	48 83 ec 08          	sub    $0x8,%rsp
  401996:	b8 00 00 00 00       	mov    $0x0,%eax
  40199b:	e8 25 fe ff ff       	callq  4017c5 <getbuf>
  4019a0:	89 c2                	mov    %eax,%edx
  4019a2:	48 8d 35 9f 19 00 00 	lea    0x199f(%rip),%rsi        # 403348 <_IO_stdin_used+0x398>
  4019a9:	bf 01 00 00 00       	mov    $0x1,%edi
  4019ae:	b8 00 00 00 00       	mov    $0x0,%eax
  4019b3:	e8 28 f4 ff ff       	callq  400de0 <__printf_chk@plt>
  4019b8:	48 83 c4 08          	add    $0x8,%rsp
  4019bc:	c3                   	retq   

00000000004019bd <start_farm>:
  4019bd:	b8 01 00 00 00       	mov    $0x1,%eax
  4019c2:	c3                   	retq   

00000000004019c3 <getval_177>:
  4019c3:	b8 48 89 c7 90       	mov    $0x90c78948,%eax
  4019c8:	c3                   	retq   

00000000004019c9 <getval_139>:
  4019c9:	b8 ba 15 8f 58       	mov    $0x588f15ba,%eax
  4019ce:	c3                   	retq   

00000000004019cf <getval_371>:
  4019cf:	b8 48 89 c7 c3       	mov    $0xc3c78948,%eax
  4019d4:	c3                   	retq   

00000000004019d5 <getval_246>:
  4019d5:	b8 58 90 90 c3       	mov    $0xc3909058,%eax
  4019da:	c3                   	retq   

00000000004019db <getval_454>:
  4019db:	b8 93 b5 48 90       	mov    $0x9048b593,%eax
  4019e0:	c3                   	retq   

00000000004019e1 <addval_162>:
  4019e1:	8d 87 08 89 c7 c3    	lea    -0x3c3876f8(%rdi),%eax
  4019e7:	c3                   	retq   

00000000004019e8 <getval_306>:
  4019e8:	b8 48 89 c7 c1       	mov    $0xc1c78948,%eax
  4019ed:	c3                   	retq   

00000000004019ee <addval_124>:
  4019ee:	8d 87 58 90 94 c3    	lea    -0x3c6b6fa8(%rdi),%eax
  4019f4:	c3                   	retq   

00000000004019f5 <mid_farm>:
  4019f5:	b8 01 00 00 00       	mov    $0x1,%eax
  4019fa:	c3                   	retq   

00000000004019fb <add_xy>:
  4019fb:	48 8d 04 37          	lea    (%rdi,%rsi,1),%rax
  4019ff:	c3                   	retq   

0000000000401a00 <addval_171>:
  401a00:	8d 87 8b d6 08 c0    	lea    -0x3ff72975(%rdi),%eax
  401a06:	c3                   	retq   

0000000000401a07 <setval_221>:
  401a07:	c7 07 89 ca 94 c9    	movl   $0xc994ca89,(%rdi)
  401a0d:	c3                   	retq   

0000000000401a0e <getval_416>:
  401a0e:	b8 48 88 e0 c3       	mov    $0xc3e08848,%eax
  401a13:	c3                   	retq   

0000000000401a14 <getval_400>:
  401a14:	b8 09 ca 90 c3       	mov    $0xc390ca09,%eax
  401a19:	c3                   	retq   

0000000000401a1a <setval_250>:
  401a1a:	c7 07 68 89 e0 90    	movl   $0x90e08968,(%rdi)
  401a20:	c3                   	retq   

0000000000401a21 <setval_381>:
  401a21:	c7 07 c9 c1 38 db    	movl   $0xdb38c1c9,(%rdi)
  401a27:	c3                   	retq   

0000000000401a28 <addval_464>:
  401a28:	8d 87 48 89 e0 c1    	lea    -0x3e1f76b8(%rdi),%eax
  401a2e:	c3                   	retq   

0000000000401a2f <addval_404>:
  401a2f:	8d 87 89 d6 20 d2    	lea    -0x2ddf2977(%rdi),%eax
  401a35:	c3                   	retq   

0000000000401a36 <getval_477>:
  401a36:	b8 89 c1 08 c0       	mov    $0xc008c189,%eax
  401a3b:	c3                   	retq   

0000000000401a3c <addval_262>:
  401a3c:	8d 87 09 ca 20 db    	lea    -0x24df35f7(%rdi),%eax
  401a42:	c3                   	retq   

0000000000401a43 <getval_499>:
  401a43:	b8 8b d6 90 c3       	mov    $0xc390d68b,%eax
  401a48:	c3                   	retq   

0000000000401a49 <setval_201>:
  401a49:	c7 07 88 c1 08 c9    	movl   $0xc908c188,(%rdi)
  401a4f:	c3                   	retq   

0000000000401a50 <addval_430>:
  401a50:	8d 87 09 d6 38 d2    	lea    -0x2dc729f7(%rdi),%eax
  401a56:	c3                   	retq   

0000000000401a57 <addval_155>:
  401a57:	8d 87 48 89 e0 90    	lea    -0x6f1f76b8(%rdi),%eax
  401a5d:	c3                   	retq   

0000000000401a5e <addval_361>:
  401a5e:	8d 87 89 d6 90 c7    	lea    -0x386f2977(%rdi),%eax
  401a64:	c3                   	retq   

0000000000401a65 <getval_427>:
  401a65:	b8 8d c1 38 db       	mov    $0xdb38c18d,%eax
  401a6a:	c3                   	retq   

0000000000401a6b <getval_344>:
  401a6b:	b8 89 c1 a4 c0       	mov    $0xc0a4c189,%eax
  401a70:	c3                   	retq   

0000000000401a71 <getval_462>:
  401a71:	b8 89 c1 94 c3       	mov    $0xc394c189,%eax
  401a76:	c3                   	retq   

0000000000401a77 <getval_157>:
  401a77:	b8 a9 d6 08 c9       	mov    $0xc908d6a9,%eax
  401a7c:	c3                   	retq   

0000000000401a7d <addval_487>:
  401a7d:	8d 87 89 c1 30 db    	lea    -0x24cf3e77(%rdi),%eax
  401a83:	c3                   	retq   

0000000000401a84 <addval_258>:
  401a84:	8d 87 b7 40 89 e0    	lea    -0x1f76bf49(%rdi),%eax
  401a8a:	c3                   	retq   

0000000000401a8b <getval_498>:
  401a8b:	b8 89 d6 60 d2       	mov    $0xd260d689,%eax
  401a90:	c3                   	retq   

0000000000401a91 <setval_307>:
  401a91:	c7 07 48 89 e0 90    	movl   $0x90e08948,(%rdi)
  401a97:	c3                   	retq   

0000000000401a98 <addval_349>:
  401a98:	8d 87 00 58 89 e0    	lea    -0x1f76a800(%rdi),%eax
  401a9e:	c3                   	retq   

0000000000401a9f <addval_473>:
  401a9f:	8d 87 89 ca 94 db    	lea    -0x246b3577(%rdi),%eax
  401aa5:	c3                   	retq   

0000000000401aa6 <getval_242>:
  401aa6:	b8 48 89 e0 c1       	mov    $0xc1e08948,%eax
  401aab:	c3                   	retq   

0000000000401aac <getval_189>:
  401aac:	b8 89 ca 92 c3       	mov    $0xc392ca89,%eax
  401ab1:	c3                   	retq   

0000000000401ab2 <addval_392>:
  401ab2:	8d 87 89 ca 90 c3    	lea    -0x3c6f3577(%rdi),%eax
  401ab8:	c3                   	retq   

0000000000401ab9 <addval_448>:
  401ab9:	8d 87 89 c1 38 d2    	lea    -0x2dc73e77(%rdi),%eax
  401abf:	c3                   	retq   

0000000000401ac0 <addval_324>:
  401ac0:	8d 87 89 ca 20 db    	lea    -0x24df3577(%rdi),%eax
  401ac6:	c3                   	retq   

0000000000401ac7 <addval_140>:
  401ac7:	8d 87 99 ca 90 90    	lea    -0x6f6f3567(%rdi),%eax
  401acd:	c3                   	retq   

0000000000401ace <setval_123>:
  401ace:	c7 07 89 d6 84 d2    	movl   $0xd284d689,(%rdi)
  401ad4:	c3                   	retq   

0000000000401ad5 <end_farm>:
  401ad5:	b8 01 00 00 00       	mov    $0x1,%eax
  401ada:	c3                   	retq   

0000000000401adb <save_char>:
  401adb:	8b 05 43 46 20 00    	mov    0x204643(%rip),%eax        # 606124 <gets_cnt>
  401ae1:	3d ff 03 00 00       	cmp    $0x3ff,%eax
  401ae6:	7f 4a                	jg     401b32 <save_char+0x57>
  401ae8:	89 f9                	mov    %edi,%ecx
  401aea:	c0 e9 04             	shr    $0x4,%cl
  401aed:	8d 14 40             	lea    (%rax,%rax,2),%edx
  401af0:	4c 8d 05 79 1b 00 00 	lea    0x1b79(%rip),%r8        # 403670 <trans_char>
  401af7:	83 e1 0f             	and    $0xf,%ecx
  401afa:	45 0f b6 0c 08       	movzbl (%r8,%rcx,1),%r9d
  401aff:	48 8d 0d 1a 3a 20 00 	lea    0x203a1a(%rip),%rcx        # 605520 <gets_buf>
  401b06:	48 63 f2             	movslq %edx,%rsi
  401b09:	44 88 0c 31          	mov    %r9b,(%rcx,%rsi,1)
  401b0d:	8d 72 01             	lea    0x1(%rdx),%esi
  401b10:	83 e7 0f             	and    $0xf,%edi
  401b13:	41 0f b6 3c 38       	movzbl (%r8,%rdi,1),%edi
  401b18:	48 63 f6             	movslq %esi,%rsi
  401b1b:	40 88 3c 31          	mov    %dil,(%rcx,%rsi,1)
  401b1f:	83 c2 02             	add    $0x2,%edx
  401b22:	48 63 d2             	movslq %edx,%rdx
  401b25:	c6 04 11 20          	movb   $0x20,(%rcx,%rdx,1)
  401b29:	83 c0 01             	add    $0x1,%eax
  401b2c:	89 05 f2 45 20 00    	mov    %eax,0x2045f2(%rip)        # 606124 <gets_cnt>
  401b32:	f3 c3                	repz retq 

0000000000401b34 <save_term>:
  401b34:	8b 05 ea 45 20 00    	mov    0x2045ea(%rip),%eax        # 606124 <gets_cnt>
  401b3a:	8d 04 40             	lea    (%rax,%rax,2),%eax
  401b3d:	48 98                	cltq   
  401b3f:	48 8d 15 da 39 20 00 	lea    0x2039da(%rip),%rdx        # 605520 <gets_buf>
  401b46:	c6 04 02 00          	movb   $0x0,(%rdx,%rax,1)
  401b4a:	c3                   	retq   

0000000000401b4b <check_fail>:
  401b4b:	48 83 ec 08          	sub    $0x8,%rsp
  401b4f:	0f be 15 d2 45 20 00 	movsbl 0x2045d2(%rip),%edx        # 606128 <target_prefix>
  401b56:	4c 8d 05 c3 39 20 00 	lea    0x2039c3(%rip),%r8        # 605520 <gets_buf>
  401b5d:	8b 0d 95 39 20 00    	mov    0x203995(%rip),%ecx        # 6054f8 <check_level>
  401b63:	48 8d 35 01 18 00 00 	lea    0x1801(%rip),%rsi        # 40336b <_IO_stdin_used+0x3bb>
  401b6a:	bf 01 00 00 00       	mov    $0x1,%edi
  401b6f:	b8 00 00 00 00       	mov    $0x0,%eax
  401b74:	e8 67 f2 ff ff       	callq  400de0 <__printf_chk@plt>
  401b79:	bf 01 00 00 00       	mov    $0x1,%edi
  401b7e:	e8 ad f2 ff ff       	callq  400e30 <exit@plt>

0000000000401b83 <Gets>:
  401b83:	41 54                	push   %r12
  401b85:	55                   	push   %rbp
  401b86:	53                   	push   %rbx
  401b87:	49 89 fc             	mov    %rdi,%r12
  401b8a:	c7 05 90 45 20 00 00 	movl   $0x0,0x204590(%rip)        # 606124 <gets_cnt>
  401b91:	00 00 00 
  401b94:	48 89 fb             	mov    %rdi,%rbx
  401b97:	eb 11                	jmp    401baa <Gets+0x27>
  401b99:	48 8d 6b 01          	lea    0x1(%rbx),%rbp
  401b9d:	88 03                	mov    %al,(%rbx)
  401b9f:	0f b6 f8             	movzbl %al,%edi
  401ba2:	e8 34 ff ff ff       	callq  401adb <save_char>
  401ba7:	48 89 eb             	mov    %rbp,%rbx
  401baa:	48 8b 3d 3f 39 20 00 	mov    0x20393f(%rip),%rdi        # 6054f0 <infile>
  401bb1:	e8 fa f1 ff ff       	callq  400db0 <_IO_getc@plt>
  401bb6:	83 f8 ff             	cmp    $0xffffffff,%eax
  401bb9:	74 05                	je     401bc0 <Gets+0x3d>
  401bbb:	83 f8 0a             	cmp    $0xa,%eax
  401bbe:	75 d9                	jne    401b99 <Gets+0x16>
  401bc0:	c6 03 00             	movb   $0x0,(%rbx)
  401bc3:	b8 00 00 00 00       	mov    $0x0,%eax
  401bc8:	e8 67 ff ff ff       	callq  401b34 <save_term>
  401bcd:	4c 89 e0             	mov    %r12,%rax
  401bd0:	5b                   	pop    %rbx
  401bd1:	5d                   	pop    %rbp
  401bd2:	41 5c                	pop    %r12
  401bd4:	c3                   	retq   

0000000000401bd5 <notify_server>:
  401bd5:	55                   	push   %rbp
  401bd6:	53                   	push   %rbx
  401bd7:	48 81 ec 18 40 00 00 	sub    $0x4018,%rsp
  401bde:	64 48 8b 04 25 28 00 	mov    %fs:0x28,%rax
  401be5:	00 00 
  401be7:	48 89 84 24 08 40 00 	mov    %rax,0x4008(%rsp)
  401bee:	00 
  401bef:	31 c0                	xor    %eax,%eax
  401bf1:	83 3d 10 39 20 00 00 	cmpl   $0x0,0x203910(%rip)        # 605508 <is_checker>
  401bf8:	0f 85 d2 00 00 00    	jne    401cd0 <notify_server+0xfb>
  401bfe:	89 fb                	mov    %edi,%ebx
  401c00:	8b 05 1e 45 20 00    	mov    0x20451e(%rip),%eax        # 606124 <gets_cnt>
  401c06:	83 c0 64             	add    $0x64,%eax
  401c09:	3d 00 20 00 00       	cmp    $0x2000,%eax
  401c0e:	0f 8f dd 00 00 00    	jg     401cf1 <notify_server+0x11c>
  401c14:	0f be 05 0d 45 20 00 	movsbl 0x20450d(%rip),%eax        # 606128 <target_prefix>
  401c1b:	83 3d 66 38 20 00 00 	cmpl   $0x0,0x203866(%rip)        # 605488 <notify>
  401c22:	0f 84 e9 00 00 00    	je     401d11 <notify_server+0x13c>
  401c28:	8b 15 d2 38 20 00    	mov    0x2038d2(%rip),%edx        # 605500 <authkey>
  401c2e:	85 db                	test   %ebx,%ebx
  401c30:	0f 84 e5 00 00 00    	je     401d1b <notify_server+0x146>
  401c36:	48 8d 2d 44 17 00 00 	lea    0x1744(%rip),%rbp        # 403381 <_IO_stdin_used+0x3d1>
  401c3d:	48 89 e7             	mov    %rsp,%rdi
  401c40:	48 8d 0d d9 38 20 00 	lea    0x2038d9(%rip),%rcx        # 605520 <gets_buf>
  401c47:	51                   	push   %rcx
  401c48:	56                   	push   %rsi
  401c49:	50                   	push   %rax
  401c4a:	52                   	push   %rdx
  401c4b:	49 89 e9             	mov    %rbp,%r9
  401c4e:	4c 8b 05 db 34 20 00 	mov    0x2034db(%rip),%r8        # 605130 <target_id>
  401c55:	48 8d 0d 2f 17 00 00 	lea    0x172f(%rip),%rcx        # 40338b <_IO_stdin_used+0x3db>
  401c5c:	ba 00 20 00 00       	mov    $0x2000,%edx
  401c61:	be 01 00 00 00       	mov    $0x1,%esi
  401c66:	b8 00 00 00 00       	mov    $0x0,%eax
  401c6b:	e8 f0 f1 ff ff       	callq  400e60 <__sprintf_chk@plt>
  401c70:	48 83 c4 20          	add    $0x20,%rsp
  401c74:	83 3d 0d 38 20 00 00 	cmpl   $0x0,0x20380d(%rip)        # 605488 <notify>
  401c7b:	0f 84 df 00 00 00    	je     401d60 <notify_server+0x18b>
  401c81:	85 db                	test   %ebx,%ebx
  401c83:	0f 84 c6 00 00 00    	je     401d4f <notify_server+0x17a>
  401c89:	48 89 e1             	mov    %rsp,%rcx
  401c8c:	4c 8d 8c 24 00 20 00 	lea    0x2000(%rsp),%r9
  401c93:	00 
  401c94:	41 b8 00 00 00 00    	mov    $0x0,%r8d
  401c9a:	48 8b 15 a7 34 20 00 	mov    0x2034a7(%rip),%rdx        # 605148 <lab>
  401ca1:	48 8b 35 a8 34 20 00 	mov    0x2034a8(%rip),%rsi        # 605150 <course>
  401ca8:	48 8b 3d 91 34 20 00 	mov    0x203491(%rip),%rdi        # 605140 <user_id>
  401caf:	e8 af 11 00 00       	callq  402e63 <driver_post>
  401cb4:	85 c0                	test   %eax,%eax
  401cb6:	78 6f                	js     401d27 <notify_server+0x152>
  401cb8:	48 8d 3d 11 18 00 00 	lea    0x1811(%rip),%rdi        # 4034d0 <_IO_stdin_used+0x520>
  401cbf:	e8 fc ef ff ff       	callq  400cc0 <puts@plt>
  401cc4:	48 8d 3d ea 16 00 00 	lea    0x16ea(%rip),%rdi        # 4033b5 <_IO_stdin_used+0x405>
  401ccb:	e8 f0 ef ff ff       	callq  400cc0 <puts@plt>
  401cd0:	48 8b 84 24 08 40 00 	mov    0x4008(%rsp),%rax
  401cd7:	00 
  401cd8:	64 48 33 04 25 28 00 	xor    %fs:0x28,%rax
  401cdf:	00 00 
  401ce1:	0f 85 07 01 00 00    	jne    401dee <notify_server+0x219>
  401ce7:	48 81 c4 18 40 00 00 	add    $0x4018,%rsp
  401cee:	5b                   	pop    %rbx
  401cef:	5d                   	pop    %rbp
  401cf0:	c3                   	retq   
  401cf1:	48 8d 35 a8 17 00 00 	lea    0x17a8(%rip),%rsi        # 4034a0 <_IO_stdin_used+0x4f0>
  401cf8:	bf 01 00 00 00       	mov    $0x1,%edi
  401cfd:	b8 00 00 00 00       	mov    $0x0,%eax
  401d02:	e8 d9 f0 ff ff       	callq  400de0 <__printf_chk@plt>
  401d07:	bf 01 00 00 00       	mov    $0x1,%edi
  401d0c:	e8 1f f1 ff ff       	callq  400e30 <exit@plt>
  401d11:	ba ff ff ff ff       	mov    $0xffffffff,%edx
  401d16:	e9 13 ff ff ff       	jmpq   401c2e <notify_server+0x59>
  401d1b:	48 8d 2d 64 16 00 00 	lea    0x1664(%rip),%rbp        # 403386 <_IO_stdin_used+0x3d6>
  401d22:	e9 16 ff ff ff       	jmpq   401c3d <notify_server+0x68>
  401d27:	48 8d 94 24 00 20 00 	lea    0x2000(%rsp),%rdx
  401d2e:	00 
  401d2f:	48 8d 35 73 16 00 00 	lea    0x1673(%rip),%rsi        # 4033a9 <_IO_stdin_used+0x3f9>
  401d36:	bf 01 00 00 00       	mov    $0x1,%edi
  401d3b:	b8 00 00 00 00       	mov    $0x0,%eax
  401d40:	e8 9b f0 ff ff       	callq  400de0 <__printf_chk@plt>
  401d45:	bf 01 00 00 00       	mov    $0x1,%edi
  401d4a:	e8 e1 f0 ff ff       	callq  400e30 <exit@plt>
  401d4f:	48 8d 3d 69 16 00 00 	lea    0x1669(%rip),%rdi        # 4033bf <_IO_stdin_used+0x40f>
  401d56:	e8 65 ef ff ff       	callq  400cc0 <puts@plt>
  401d5b:	e9 70 ff ff ff       	jmpq   401cd0 <notify_server+0xfb>
  401d60:	48 89 ea             	mov    %rbp,%rdx
  401d63:	48 8d 35 9e 17 00 00 	lea    0x179e(%rip),%rsi        # 403508 <_IO_stdin_used+0x558>
  401d6a:	bf 01 00 00 00       	mov    $0x1,%edi
  401d6f:	b8 00 00 00 00       	mov    $0x0,%eax
  401d74:	e8 67 f0 ff ff       	callq  400de0 <__printf_chk@plt>
  401d79:	48 8b 15 c0 33 20 00 	mov    0x2033c0(%rip),%rdx        # 605140 <user_id>
  401d80:	48 8d 35 3f 16 00 00 	lea    0x163f(%rip),%rsi        # 4033c6 <_IO_stdin_used+0x416>
  401d87:	bf 01 00 00 00       	mov    $0x1,%edi
  401d8c:	b8 00 00 00 00       	mov    $0x0,%eax
  401d91:	e8 4a f0 ff ff       	callq  400de0 <__printf_chk@plt>
  401d96:	48 8b 15 b3 33 20 00 	mov    0x2033b3(%rip),%rdx        # 605150 <course>
  401d9d:	48 8d 35 2f 16 00 00 	lea    0x162f(%rip),%rsi        # 4033d3 <_IO_stdin_used+0x423>
  401da4:	bf 01 00 00 00       	mov    $0x1,%edi
  401da9:	b8 00 00 00 00       	mov    $0x0,%eax
  401dae:	e8 2d f0 ff ff       	callq  400de0 <__printf_chk@plt>
  401db3:	48 8b 15 8e 33 20 00 	mov    0x20338e(%rip),%rdx        # 605148 <lab>
  401dba:	48 8d 35 1e 16 00 00 	lea    0x161e(%rip),%rsi        # 4033df <_IO_stdin_used+0x42f>
  401dc1:	bf 01 00 00 00       	mov    $0x1,%edi
  401dc6:	b8 00 00 00 00       	mov    $0x0,%eax
  401dcb:	e8 10 f0 ff ff       	callq  400de0 <__printf_chk@plt>
  401dd0:	48 89 e2             	mov    %rsp,%rdx
  401dd3:	48 8d 35 0e 16 00 00 	lea    0x160e(%rip),%rsi        # 4033e8 <_IO_stdin_used+0x438>
  401dda:	bf 01 00 00 00       	mov    $0x1,%edi
  401ddf:	b8 00 00 00 00       	mov    $0x0,%eax
  401de4:	e8 f7 ef ff ff       	callq  400de0 <__printf_chk@plt>
  401de9:	e9 e2 fe ff ff       	jmpq   401cd0 <notify_server+0xfb>
  401dee:	e8 ed ee ff ff       	callq  400ce0 <__stack_chk_fail@plt>

0000000000401df3 <validate>:
  401df3:	53                   	push   %rbx
  401df4:	89 fb                	mov    %edi,%ebx
  401df6:	83 3d 0b 37 20 00 00 	cmpl   $0x0,0x20370b(%rip)        # 605508 <is_checker>
  401dfd:	74 72                	je     401e71 <validate+0x7e>
  401dff:	39 3d f7 36 20 00    	cmp    %edi,0x2036f7(%rip)        # 6054fc <vlevel>
  401e05:	75 32                	jne    401e39 <validate+0x46>
  401e07:	8b 15 eb 36 20 00    	mov    0x2036eb(%rip),%edx        # 6054f8 <check_level>
  401e0d:	39 fa                	cmp    %edi,%edx
  401e0f:	75 3e                	jne    401e4f <validate+0x5c>
  401e11:	0f be 15 10 43 20 00 	movsbl 0x204310(%rip),%edx        # 606128 <target_prefix>
  401e18:	4c 8d 05 01 37 20 00 	lea    0x203701(%rip),%r8        # 605520 <gets_buf>
  401e1f:	89 f9                	mov    %edi,%ecx
  401e21:	48 8d 35 ea 15 00 00 	lea    0x15ea(%rip),%rsi        # 403412 <_IO_stdin_used+0x462>
  401e28:	bf 01 00 00 00       	mov    $0x1,%edi
  401e2d:	b8 00 00 00 00       	mov    $0x0,%eax
  401e32:	e8 a9 ef ff ff       	callq  400de0 <__printf_chk@plt>
  401e37:	5b                   	pop    %rbx
  401e38:	c3                   	retq   
  401e39:	48 8d 3d b4 15 00 00 	lea    0x15b4(%rip),%rdi        # 4033f4 <_IO_stdin_used+0x444>
  401e40:	e8 7b ee ff ff       	callq  400cc0 <puts@plt>
  401e45:	b8 00 00 00 00       	mov    $0x0,%eax
  401e4a:	e8 fc fc ff ff       	callq  401b4b <check_fail>
  401e4f:	89 f9                	mov    %edi,%ecx
  401e51:	48 8d 35 d8 16 00 00 	lea    0x16d8(%rip),%rsi        # 403530 <_IO_stdin_used+0x580>
  401e58:	bf 01 00 00 00       	mov    $0x1,%edi
  401e5d:	b8 00 00 00 00       	mov    $0x0,%eax
  401e62:	e8 79 ef ff ff       	callq  400de0 <__printf_chk@plt>
  401e67:	b8 00 00 00 00       	mov    $0x0,%eax
  401e6c:	e8 da fc ff ff       	callq  401b4b <check_fail>
  401e71:	39 3d 85 36 20 00    	cmp    %edi,0x203685(%rip)        # 6054fc <vlevel>
  401e77:	74 1a                	je     401e93 <validate+0xa0>
  401e79:	48 8d 3d 74 15 00 00 	lea    0x1574(%rip),%rdi        # 4033f4 <_IO_stdin_used+0x444>
  401e80:	e8 3b ee ff ff       	callq  400cc0 <puts@plt>
  401e85:	89 de                	mov    %ebx,%esi
  401e87:	bf 00 00 00 00       	mov    $0x0,%edi
  401e8c:	e8 44 fd ff ff       	callq  401bd5 <notify_server>
  401e91:	eb a4                	jmp    401e37 <validate+0x44>
  401e93:	0f be 0d 8e 42 20 00 	movsbl 0x20428e(%rip),%ecx        # 606128 <target_prefix>
  401e9a:	89 fa                	mov    %edi,%edx
  401e9c:	48 8d 35 b5 16 00 00 	lea    0x16b5(%rip),%rsi        # 403558 <_IO_stdin_used+0x5a8>
  401ea3:	bf 01 00 00 00       	mov    $0x1,%edi
  401ea8:	b8 00 00 00 00       	mov    $0x0,%eax
  401ead:	e8 2e ef ff ff       	callq  400de0 <__printf_chk@plt>
  401eb2:	89 de                	mov    %ebx,%esi
  401eb4:	bf 01 00 00 00       	mov    $0x1,%edi
  401eb9:	e8 17 fd ff ff       	callq  401bd5 <notify_server>
  401ebe:	e9 74 ff ff ff       	jmpq   401e37 <validate+0x44>

0000000000401ec3 <fail>:
  401ec3:	48 83 ec 08          	sub    $0x8,%rsp
  401ec7:	83 3d 3a 36 20 00 00 	cmpl   $0x0,0x20363a(%rip)        # 605508 <is_checker>
  401ece:	75 11                	jne    401ee1 <fail+0x1e>
  401ed0:	89 fe                	mov    %edi,%esi
  401ed2:	bf 00 00 00 00       	mov    $0x0,%edi
  401ed7:	e8 f9 fc ff ff       	callq  401bd5 <notify_server>
  401edc:	48 83 c4 08          	add    $0x8,%rsp
  401ee0:	c3                   	retq   
  401ee1:	b8 00 00 00 00       	mov    $0x0,%eax
  401ee6:	e8 60 fc ff ff       	callq  401b4b <check_fail>

0000000000401eeb <bushandler>:
  401eeb:	48 83 ec 08          	sub    $0x8,%rsp
  401eef:	83 3d 12 36 20 00 00 	cmpl   $0x0,0x203612(%rip)        # 605508 <is_checker>
  401ef6:	74 16                	je     401f0e <bushandler+0x23>
  401ef8:	48 8d 3d 28 15 00 00 	lea    0x1528(%rip),%rdi        # 403427 <_IO_stdin_used+0x477>
  401eff:	e8 bc ed ff ff       	callq  400cc0 <puts@plt>
  401f04:	b8 00 00 00 00       	mov    $0x0,%eax
  401f09:	e8 3d fc ff ff       	callq  401b4b <check_fail>
  401f0e:	48 8d 3d 7b 16 00 00 	lea    0x167b(%rip),%rdi        # 403590 <_IO_stdin_used+0x5e0>
  401f15:	e8 a6 ed ff ff       	callq  400cc0 <puts@plt>
  401f1a:	48 8d 3d 10 15 00 00 	lea    0x1510(%rip),%rdi        # 403431 <_IO_stdin_used+0x481>
  401f21:	e8 9a ed ff ff       	callq  400cc0 <puts@plt>
  401f26:	be 00 00 00 00       	mov    $0x0,%esi
  401f2b:	bf 00 00 00 00       	mov    $0x0,%edi
  401f30:	e8 a0 fc ff ff       	callq  401bd5 <notify_server>
  401f35:	bf 01 00 00 00       	mov    $0x1,%edi
  401f3a:	e8 f1 ee ff ff       	callq  400e30 <exit@plt>

0000000000401f3f <seghandler>:
  401f3f:	48 83 ec 08          	sub    $0x8,%rsp
  401f43:	83 3d be 35 20 00 00 	cmpl   $0x0,0x2035be(%rip)        # 605508 <is_checker>
  401f4a:	74 16                	je     401f62 <seghandler+0x23>
  401f4c:	48 8d 3d f4 14 00 00 	lea    0x14f4(%rip),%rdi        # 403447 <_IO_stdin_used+0x497>
  401f53:	e8 68 ed ff ff       	callq  400cc0 <puts@plt>
  401f58:	b8 00 00 00 00       	mov    $0x0,%eax
  401f5d:	e8 e9 fb ff ff       	callq  401b4b <check_fail>
  401f62:	48 8d 3d 47 16 00 00 	lea    0x1647(%rip),%rdi        # 4035b0 <_IO_stdin_used+0x600>
  401f69:	e8 52 ed ff ff       	callq  400cc0 <puts@plt>
  401f6e:	48 8d 3d bc 14 00 00 	lea    0x14bc(%rip),%rdi        # 403431 <_IO_stdin_used+0x481>
  401f75:	e8 46 ed ff ff       	callq  400cc0 <puts@plt>
  401f7a:	be 00 00 00 00       	mov    $0x0,%esi
  401f7f:	bf 00 00 00 00       	mov    $0x0,%edi
  401f84:	e8 4c fc ff ff       	callq  401bd5 <notify_server>
  401f89:	bf 01 00 00 00       	mov    $0x1,%edi
  401f8e:	e8 9d ee ff ff       	callq  400e30 <exit@plt>

0000000000401f93 <illegalhandler>:
  401f93:	48 83 ec 08          	sub    $0x8,%rsp
  401f97:	83 3d 6a 35 20 00 00 	cmpl   $0x0,0x20356a(%rip)        # 605508 <is_checker>
  401f9e:	74 16                	je     401fb6 <illegalhandler+0x23>
  401fa0:	48 8d 3d b3 14 00 00 	lea    0x14b3(%rip),%rdi        # 40345a <_IO_stdin_used+0x4aa>
  401fa7:	e8 14 ed ff ff       	callq  400cc0 <puts@plt>
  401fac:	b8 00 00 00 00       	mov    $0x0,%eax
  401fb1:	e8 95 fb ff ff       	callq  401b4b <check_fail>
  401fb6:	48 8d 3d 1b 16 00 00 	lea    0x161b(%rip),%rdi        # 4035d8 <_IO_stdin_used+0x628>
  401fbd:	e8 fe ec ff ff       	callq  400cc0 <puts@plt>
  401fc2:	48 8d 3d 68 14 00 00 	lea    0x1468(%rip),%rdi        # 403431 <_IO_stdin_used+0x481>
  401fc9:	e8 f2 ec ff ff       	callq  400cc0 <puts@plt>
  401fce:	be 00 00 00 00       	mov    $0x0,%esi
  401fd3:	bf 00 00 00 00       	mov    $0x0,%edi
  401fd8:	e8 f8 fb ff ff       	callq  401bd5 <notify_server>
  401fdd:	bf 01 00 00 00       	mov    $0x1,%edi
  401fe2:	e8 49 ee ff ff       	callq  400e30 <exit@plt>

0000000000401fe7 <sigalrmhandler>:
  401fe7:	48 83 ec 08          	sub    $0x8,%rsp
  401feb:	83 3d 16 35 20 00 00 	cmpl   $0x0,0x203516(%rip)        # 605508 <is_checker>
  401ff2:	74 16                	je     40200a <sigalrmhandler+0x23>
  401ff4:	48 8d 3d 73 14 00 00 	lea    0x1473(%rip),%rdi        # 40346e <_IO_stdin_used+0x4be>
  401ffb:	e8 c0 ec ff ff       	callq  400cc0 <puts@plt>
  402000:	b8 00 00 00 00       	mov    $0x0,%eax
  402005:	e8 41 fb ff ff       	callq  401b4b <check_fail>
  40200a:	ba 05 00 00 00       	mov    $0x5,%edx
  40200f:	48 8d 35 f2 15 00 00 	lea    0x15f2(%rip),%rsi        # 403608 <_IO_stdin_used+0x658>
  402016:	bf 01 00 00 00       	mov    $0x1,%edi
  40201b:	b8 00 00 00 00       	mov    $0x0,%eax
  402020:	e8 bb ed ff ff       	callq  400de0 <__printf_chk@plt>
  402025:	be 00 00 00 00       	mov    $0x0,%esi
  40202a:	bf 00 00 00 00       	mov    $0x0,%edi
  40202f:	e8 a1 fb ff ff       	callq  401bd5 <notify_server>
  402034:	bf 01 00 00 00       	mov    $0x1,%edi
  402039:	e8 f2 ed ff ff       	callq  400e30 <exit@plt>

000000000040203e <launch>:
  40203e:	55                   	push   %rbp
  40203f:	48 89 e5             	mov    %rsp,%rbp
  402042:	48 83 ec 10          	sub    $0x10,%rsp
  402046:	48 89 fa             	mov    %rdi,%rdx
  402049:	64 48 8b 04 25 28 00 	mov    %fs:0x28,%rax
  402050:	00 00 
  402052:	48 89 45 f8          	mov    %rax,-0x8(%rbp)
  402056:	31 c0                	xor    %eax,%eax
  402058:	48 8d 47 1e          	lea    0x1e(%rdi),%rax
  40205c:	48 83 e0 f0          	and    $0xfffffffffffffff0,%rax
  402060:	48 29 c4             	sub    %rax,%rsp
  402063:	48 8d 7c 24 0f       	lea    0xf(%rsp),%rdi
  402068:	48 83 e7 f0          	and    $0xfffffffffffffff0,%rdi
  40206c:	be f4 00 00 00       	mov    $0xf4,%esi
  402071:	e8 8a ec ff ff       	callq  400d00 <memset@plt>
  402076:	48 8b 05 23 34 20 00 	mov    0x203423(%rip),%rax        # 6054a0 <stdin@@GLIBC_2.2.5>
  40207d:	48 39 05 6c 34 20 00 	cmp    %rax,0x20346c(%rip)        # 6054f0 <infile>
  402084:	74 3a                	je     4020c0 <launch+0x82>
  402086:	c7 05 6c 34 20 00 00 	movl   $0x0,0x20346c(%rip)        # 6054fc <vlevel>
  40208d:	00 00 00 
  402090:	b8 00 00 00 00       	mov    $0x0,%eax
  402095:	e8 f8 f8 ff ff       	callq  401992 <test>
  40209a:	83 3d 67 34 20 00 00 	cmpl   $0x0,0x203467(%rip)        # 605508 <is_checker>
  4020a1:	75 35                	jne    4020d8 <launch+0x9a>
  4020a3:	48 8d 3d e4 13 00 00 	lea    0x13e4(%rip),%rdi        # 40348e <_IO_stdin_used+0x4de>
  4020aa:	e8 11 ec ff ff       	callq  400cc0 <puts@plt>
  4020af:	48 8b 45 f8          	mov    -0x8(%rbp),%rax
  4020b3:	64 48 33 04 25 28 00 	xor    %fs:0x28,%rax
  4020ba:	00 00 
  4020bc:	75 30                	jne    4020ee <launch+0xb0>
  4020be:	c9                   	leaveq 
  4020bf:	c3                   	retq   
  4020c0:	48 8d 35 af 13 00 00 	lea    0x13af(%rip),%rsi        # 403476 <_IO_stdin_used+0x4c6>
  4020c7:	bf 01 00 00 00       	mov    $0x1,%edi
  4020cc:	b8 00 00 00 00       	mov    $0x0,%eax
  4020d1:	e8 0a ed ff ff       	callq  400de0 <__printf_chk@plt>
  4020d6:	eb ae                	jmp    402086 <launch+0x48>
  4020d8:	48 8d 3d a4 13 00 00 	lea    0x13a4(%rip),%rdi        # 403483 <_IO_stdin_used+0x4d3>
  4020df:	e8 dc eb ff ff       	callq  400cc0 <puts@plt>
  4020e4:	b8 00 00 00 00       	mov    $0x0,%eax
  4020e9:	e8 5d fa ff ff       	callq  401b4b <check_fail>
  4020ee:	e8 ed eb ff ff       	callq  400ce0 <__stack_chk_fail@plt>

00000000004020f3 <stable_launch>:
  4020f3:	53                   	push   %rbx
  4020f4:	48 89 3d ed 33 20 00 	mov    %rdi,0x2033ed(%rip)        # 6054e8 <global_offset>
  4020fb:	41 b9 00 00 00 00    	mov    $0x0,%r9d
  402101:	41 b8 00 00 00 00    	mov    $0x0,%r8d
  402107:	b9 32 01 00 00       	mov    $0x132,%ecx
  40210c:	ba 07 00 00 00       	mov    $0x7,%edx
  402111:	be 00 00 10 00       	mov    $0x100000,%esi
  402116:	bf 00 60 58 55       	mov    $0x55586000,%edi
  40211b:	e8 d0 eb ff ff       	callq  400cf0 <mmap@plt>
  402120:	48 89 c3             	mov    %rax,%rbx
  402123:	48 3d 00 60 58 55    	cmp    $0x55586000,%rax
  402129:	75 43                	jne    40216e <stable_launch+0x7b>
  40212b:	48 8d 90 f8 ff 0f 00 	lea    0xffff8(%rax),%rdx
  402132:	48 89 15 f7 3f 20 00 	mov    %rdx,0x203ff7(%rip)        # 606130 <stack_top>
  402139:	48 89 e0             	mov    %rsp,%rax
  40213c:	48 89 d4             	mov    %rdx,%rsp
  40213f:	48 89 c2             	mov    %rax,%rdx
  402142:	48 89 15 97 33 20 00 	mov    %rdx,0x203397(%rip)        # 6054e0 <global_save_stack>
  402149:	48 8b 3d 98 33 20 00 	mov    0x203398(%rip),%rdi        # 6054e8 <global_offset>
  402150:	e8 e9 fe ff ff       	callq  40203e <launch>
  402155:	48 8b 05 84 33 20 00 	mov    0x203384(%rip),%rax        # 6054e0 <global_save_stack>
  40215c:	48 89 c4             	mov    %rax,%rsp
  40215f:	be 00 00 10 00       	mov    $0x100000,%esi
  402164:	48 89 df             	mov    %rbx,%rdi
  402167:	e8 64 ec ff ff       	callq  400dd0 <munmap@plt>
  40216c:	5b                   	pop    %rbx
  40216d:	c3                   	retq   
  40216e:	be 00 00 10 00       	mov    $0x100000,%esi
  402173:	48 89 c7             	mov    %rax,%rdi
  402176:	e8 55 ec ff ff       	callq  400dd0 <munmap@plt>
  40217b:	b9 00 60 58 55       	mov    $0x55586000,%ecx
  402180:	48 8d 15 b9 14 00 00 	lea    0x14b9(%rip),%rdx        # 403640 <_IO_stdin_used+0x690>
  402187:	be 01 00 00 00       	mov    $0x1,%esi
  40218c:	48 8b 3d 2d 33 20 00 	mov    0x20332d(%rip),%rdi        # 6054c0 <stderr@@GLIBC_2.2.5>
  402193:	b8 00 00 00 00       	mov    $0x0,%eax
  402198:	e8 b3 ec ff ff       	callq  400e50 <__fprintf_chk@plt>
  40219d:	bf 01 00 00 00       	mov    $0x1,%edi
  4021a2:	e8 89 ec ff ff       	callq  400e30 <exit@plt>

00000000004021a7 <rio_readinitb>:
  4021a7:	89 37                	mov    %esi,(%rdi)
  4021a9:	c7 47 04 00 00 00 00 	movl   $0x0,0x4(%rdi)
  4021b0:	48 8d 47 10          	lea    0x10(%rdi),%rax
  4021b4:	48 89 47 08          	mov    %rax,0x8(%rdi)
  4021b8:	c3                   	retq   

00000000004021b9 <sigalrm_handler>:
  4021b9:	48 83 ec 08          	sub    $0x8,%rsp
  4021bd:	b9 00 00 00 00       	mov    $0x0,%ecx
  4021c2:	48 8d 15 b7 14 00 00 	lea    0x14b7(%rip),%rdx        # 403680 <trans_char+0x10>
  4021c9:	be 01 00 00 00       	mov    $0x1,%esi
  4021ce:	48 8b 3d eb 32 20 00 	mov    0x2032eb(%rip),%rdi        # 6054c0 <stderr@@GLIBC_2.2.5>
  4021d5:	b8 00 00 00 00       	mov    $0x0,%eax
  4021da:	e8 71 ec ff ff       	callq  400e50 <__fprintf_chk@plt>
  4021df:	bf 01 00 00 00       	mov    $0x1,%edi
  4021e4:	e8 47 ec ff ff       	callq  400e30 <exit@plt>

00000000004021e9 <rio_writen>:
  4021e9:	41 55                	push   %r13
  4021eb:	41 54                	push   %r12
  4021ed:	55                   	push   %rbp
  4021ee:	53                   	push   %rbx
  4021ef:	48 83 ec 08          	sub    $0x8,%rsp
  4021f3:	41 89 fc             	mov    %edi,%r12d
  4021f6:	48 89 f5             	mov    %rsi,%rbp
  4021f9:	49 89 d5             	mov    %rdx,%r13
  4021fc:	48 89 d3             	mov    %rdx,%rbx
  4021ff:	eb 06                	jmp    402207 <rio_writen+0x1e>
  402201:	48 29 c3             	sub    %rax,%rbx
  402204:	48 01 c5             	add    %rax,%rbp
  402207:	48 85 db             	test   %rbx,%rbx
  40220a:	74 24                	je     402230 <rio_writen+0x47>
  40220c:	48 89 da             	mov    %rbx,%rdx
  40220f:	48 89 ee             	mov    %rbp,%rsi
  402212:	44 89 e7             	mov    %r12d,%edi
  402215:	e8 b6 ea ff ff       	callq  400cd0 <write@plt>
  40221a:	48 85 c0             	test   %rax,%rax
  40221d:	7f e2                	jg     402201 <rio_writen+0x18>
  40221f:	e8 5c ea ff ff       	callq  400c80 <__errno_location@plt>
  402224:	83 38 04             	cmpl   $0x4,(%rax)
  402227:	75 15                	jne    40223e <rio_writen+0x55>
  402229:	b8 00 00 00 00       	mov    $0x0,%eax
  40222e:	eb d1                	jmp    402201 <rio_writen+0x18>
  402230:	4c 89 e8             	mov    %r13,%rax
  402233:	48 83 c4 08          	add    $0x8,%rsp
  402237:	5b                   	pop    %rbx
  402238:	5d                   	pop    %rbp
  402239:	41 5c                	pop    %r12
  40223b:	41 5d                	pop    %r13
  40223d:	c3                   	retq   
  40223e:	48 c7 c0 ff ff ff ff 	mov    $0xffffffffffffffff,%rax
  402245:	eb ec                	jmp    402233 <rio_writen+0x4a>

0000000000402247 <rio_read>:
  402247:	41 55                	push   %r13
  402249:	41 54                	push   %r12
  40224b:	55                   	push   %rbp
  40224c:	53                   	push   %rbx
  40224d:	48 83 ec 08          	sub    $0x8,%rsp
  402251:	48 89 fb             	mov    %rdi,%rbx
  402254:	49 89 f5             	mov    %rsi,%r13
  402257:	49 89 d4             	mov    %rdx,%r12
  40225a:	eb 0a                	jmp    402266 <rio_read+0x1f>
  40225c:	e8 1f ea ff ff       	callq  400c80 <__errno_location@plt>
  402261:	83 38 04             	cmpl   $0x4,(%rax)
  402264:	75 5c                	jne    4022c2 <rio_read+0x7b>
  402266:	8b 6b 04             	mov    0x4(%rbx),%ebp
  402269:	85 ed                	test   %ebp,%ebp
  40226b:	7f 24                	jg     402291 <rio_read+0x4a>
  40226d:	48 8d 6b 10          	lea    0x10(%rbx),%rbp
  402271:	8b 3b                	mov    (%rbx),%edi
  402273:	ba 00 20 00 00       	mov    $0x2000,%edx
  402278:	48 89 ee             	mov    %rbp,%rsi
  40227b:	e8 b0 ea ff ff       	callq  400d30 <read@plt>
  402280:	89 43 04             	mov    %eax,0x4(%rbx)
  402283:	85 c0                	test   %eax,%eax
  402285:	78 d5                	js     40225c <rio_read+0x15>
  402287:	85 c0                	test   %eax,%eax
  402289:	74 40                	je     4022cb <rio_read+0x84>
  40228b:	48 89 6b 08          	mov    %rbp,0x8(%rbx)
  40228f:	eb d5                	jmp    402266 <rio_read+0x1f>
  402291:	89 e8                	mov    %ebp,%eax
  402293:	4c 39 e0             	cmp    %r12,%rax
  402296:	72 03                	jb     40229b <rio_read+0x54>
  402298:	44 89 e5             	mov    %r12d,%ebp
  40229b:	4c 63 e5             	movslq %ebp,%r12
  40229e:	48 8b 73 08          	mov    0x8(%rbx),%rsi
  4022a2:	4c 89 e2             	mov    %r12,%rdx
  4022a5:	4c 89 ef             	mov    %r13,%rdi
  4022a8:	e8 d3 ea ff ff       	callq  400d80 <memcpy@plt>
  4022ad:	4c 01 63 08          	add    %r12,0x8(%rbx)
  4022b1:	29 6b 04             	sub    %ebp,0x4(%rbx)
  4022b4:	4c 89 e0             	mov    %r12,%rax
  4022b7:	48 83 c4 08          	add    $0x8,%rsp
  4022bb:	5b                   	pop    %rbx
  4022bc:	5d                   	pop    %rbp
  4022bd:	41 5c                	pop    %r12
  4022bf:	41 5d                	pop    %r13
  4022c1:	c3                   	retq   
  4022c2:	48 c7 c0 ff ff ff ff 	mov    $0xffffffffffffffff,%rax
  4022c9:	eb ec                	jmp    4022b7 <rio_read+0x70>
  4022cb:	b8 00 00 00 00       	mov    $0x0,%eax
  4022d0:	eb e5                	jmp    4022b7 <rio_read+0x70>

00000000004022d2 <rio_readlineb>:
  4022d2:	41 55                	push   %r13
  4022d4:	41 54                	push   %r12
  4022d6:	55                   	push   %rbp
  4022d7:	53                   	push   %rbx
  4022d8:	48 83 ec 18          	sub    $0x18,%rsp
  4022dc:	49 89 fd             	mov    %rdi,%r13
  4022df:	48 89 f5             	mov    %rsi,%rbp
  4022e2:	49 89 d4             	mov    %rdx,%r12
  4022e5:	64 48 8b 04 25 28 00 	mov    %fs:0x28,%rax
  4022ec:	00 00 
  4022ee:	48 89 44 24 08       	mov    %rax,0x8(%rsp)
  4022f3:	31 c0                	xor    %eax,%eax
  4022f5:	bb 01 00 00 00       	mov    $0x1,%ebx
  4022fa:	4c 39 e3             	cmp    %r12,%rbx
  4022fd:	73 47                	jae    402346 <rio_readlineb+0x74>
  4022ff:	48 8d 74 24 07       	lea    0x7(%rsp),%rsi
  402304:	ba 01 00 00 00       	mov    $0x1,%edx
  402309:	4c 89 ef             	mov    %r13,%rdi
  40230c:	e8 36 ff ff ff       	callq  402247 <rio_read>
  402311:	83 f8 01             	cmp    $0x1,%eax
  402314:	75 1c                	jne    402332 <rio_readlineb+0x60>
  402316:	48 8d 45 01          	lea    0x1(%rbp),%rax
  40231a:	0f b6 54 24 07       	movzbl 0x7(%rsp),%edx
  40231f:	88 55 00             	mov    %dl,0x0(%rbp)
  402322:	80 7c 24 07 0a       	cmpb   $0xa,0x7(%rsp)
  402327:	74 1a                	je     402343 <rio_readlineb+0x71>
  402329:	48 83 c3 01          	add    $0x1,%rbx
  40232d:	48 89 c5             	mov    %rax,%rbp
  402330:	eb c8                	jmp    4022fa <rio_readlineb+0x28>
  402332:	85 c0                	test   %eax,%eax
  402334:	75 32                	jne    402368 <rio_readlineb+0x96>
  402336:	48 83 fb 01          	cmp    $0x1,%rbx
  40233a:	75 0a                	jne    402346 <rio_readlineb+0x74>
  40233c:	b8 00 00 00 00       	mov    $0x0,%eax
  402341:	eb 0a                	jmp    40234d <rio_readlineb+0x7b>
  402343:	48 89 c5             	mov    %rax,%rbp
  402346:	c6 45 00 00          	movb   $0x0,0x0(%rbp)
  40234a:	48 89 d8             	mov    %rbx,%rax
  40234d:	48 8b 4c 24 08       	mov    0x8(%rsp),%rcx
  402352:	64 48 33 0c 25 28 00 	xor    %fs:0x28,%rcx
  402359:	00 00 
  40235b:	75 14                	jne    402371 <rio_readlineb+0x9f>
  40235d:	48 83 c4 18          	add    $0x18,%rsp
  402361:	5b                   	pop    %rbx
  402362:	5d                   	pop    %rbp
  402363:	41 5c                	pop    %r12
  402365:	41 5d                	pop    %r13
  402367:	c3                   	retq   
  402368:	48 c7 c0 ff ff ff ff 	mov    $0xffffffffffffffff,%rax
  40236f:	eb dc                	jmp    40234d <rio_readlineb+0x7b>
  402371:	e8 6a e9 ff ff       	callq  400ce0 <__stack_chk_fail@plt>

0000000000402376 <urlencode>:
  402376:	41 54                	push   %r12
  402378:	55                   	push   %rbp
  402379:	53                   	push   %rbx
  40237a:	48 83 ec 10          	sub    $0x10,%rsp
  40237e:	48 89 fb             	mov    %rdi,%rbx
  402381:	48 89 f5             	mov    %rsi,%rbp
  402384:	64 48 8b 04 25 28 00 	mov    %fs:0x28,%rax
  40238b:	00 00 
  40238d:	48 89 44 24 08       	mov    %rax,0x8(%rsp)
  402392:	31 c0                	xor    %eax,%eax
  402394:	48 c7 c1 ff ff ff ff 	mov    $0xffffffffffffffff,%rcx
  40239b:	f2 ae                	repnz scas %es:(%rdi),%al
  40239d:	48 89 ce             	mov    %rcx,%rsi
  4023a0:	48 f7 d6             	not    %rsi
  4023a3:	8d 46 ff             	lea    -0x1(%rsi),%eax
  4023a6:	eb 0f                	jmp    4023b7 <urlencode+0x41>
  4023a8:	44 88 45 00          	mov    %r8b,0x0(%rbp)
  4023ac:	48 8d 6d 01          	lea    0x1(%rbp),%rbp
  4023b0:	48 83 c3 01          	add    $0x1,%rbx
  4023b4:	44 89 e0             	mov    %r12d,%eax
  4023b7:	44 8d 60 ff          	lea    -0x1(%rax),%r12d
  4023bb:	85 c0                	test   %eax,%eax
  4023bd:	0f 84 a8 00 00 00    	je     40246b <urlencode+0xf5>
  4023c3:	44 0f b6 03          	movzbl (%rbx),%r8d
  4023c7:	41 80 f8 2a          	cmp    $0x2a,%r8b
  4023cb:	0f 94 c2             	sete   %dl
  4023ce:	41 80 f8 2d          	cmp    $0x2d,%r8b
  4023d2:	0f 94 c0             	sete   %al
  4023d5:	08 c2                	or     %al,%dl
  4023d7:	75 cf                	jne    4023a8 <urlencode+0x32>
  4023d9:	41 80 f8 2e          	cmp    $0x2e,%r8b
  4023dd:	74 c9                	je     4023a8 <urlencode+0x32>
  4023df:	41 80 f8 5f          	cmp    $0x5f,%r8b
  4023e3:	74 c3                	je     4023a8 <urlencode+0x32>
  4023e5:	41 8d 40 d0          	lea    -0x30(%r8),%eax
  4023e9:	3c 09                	cmp    $0x9,%al
  4023eb:	76 bb                	jbe    4023a8 <urlencode+0x32>
  4023ed:	41 8d 40 bf          	lea    -0x41(%r8),%eax
  4023f1:	3c 19                	cmp    $0x19,%al
  4023f3:	76 b3                	jbe    4023a8 <urlencode+0x32>
  4023f5:	41 8d 40 9f          	lea    -0x61(%r8),%eax
  4023f9:	3c 19                	cmp    $0x19,%al
  4023fb:	76 ab                	jbe    4023a8 <urlencode+0x32>
  4023fd:	41 80 f8 20          	cmp    $0x20,%r8b
  402401:	74 56                	je     402459 <urlencode+0xe3>
  402403:	41 8d 40 e0          	lea    -0x20(%r8),%eax
  402407:	3c 5f                	cmp    $0x5f,%al
  402409:	0f 96 c2             	setbe  %dl
  40240c:	41 80 f8 09          	cmp    $0x9,%r8b
  402410:	0f 94 c0             	sete   %al
  402413:	08 c2                	or     %al,%dl
  402415:	74 4f                	je     402466 <urlencode+0xf0>
  402417:	48 89 e7             	mov    %rsp,%rdi
  40241a:	45 0f b6 c0          	movzbl %r8b,%r8d
  40241e:	48 8d 0d f3 12 00 00 	lea    0x12f3(%rip),%rcx        # 403718 <trans_char+0xa8>
  402425:	ba 08 00 00 00       	mov    $0x8,%edx
  40242a:	be 01 00 00 00       	mov    $0x1,%esi
  40242f:	b8 00 00 00 00       	mov    $0x0,%eax
  402434:	e8 27 ea ff ff       	callq  400e60 <__sprintf_chk@plt>
  402439:	0f b6 04 24          	movzbl (%rsp),%eax
  40243d:	88 45 00             	mov    %al,0x0(%rbp)
  402440:	0f b6 44 24 01       	movzbl 0x1(%rsp),%eax
  402445:	88 45 01             	mov    %al,0x1(%rbp)
  402448:	0f b6 44 24 02       	movzbl 0x2(%rsp),%eax
  40244d:	88 45 02             	mov    %al,0x2(%rbp)
  402450:	48 8d 6d 03          	lea    0x3(%rbp),%rbp
  402454:	e9 57 ff ff ff       	jmpq   4023b0 <urlencode+0x3a>
  402459:	c6 45 00 2b          	movb   $0x2b,0x0(%rbp)
  40245d:	48 8d 6d 01          	lea    0x1(%rbp),%rbp
  402461:	e9 4a ff ff ff       	jmpq   4023b0 <urlencode+0x3a>
  402466:	b8 ff ff ff ff       	mov    $0xffffffff,%eax
  40246b:	48 8b 74 24 08       	mov    0x8(%rsp),%rsi
  402470:	64 48 33 34 25 28 00 	xor    %fs:0x28,%rsi
  402477:	00 00 
  402479:	75 09                	jne    402484 <urlencode+0x10e>
  40247b:	48 83 c4 10          	add    $0x10,%rsp
  40247f:	5b                   	pop    %rbx
  402480:	5d                   	pop    %rbp
  402481:	41 5c                	pop    %r12
  402483:	c3                   	retq   
  402484:	e8 57 e8 ff ff       	callq  400ce0 <__stack_chk_fail@plt>

0000000000402489 <submitr>:
  402489:	41 57                	push   %r15
  40248b:	41 56                	push   %r14
  40248d:	41 55                	push   %r13
  40248f:	41 54                	push   %r12
  402491:	55                   	push   %rbp
  402492:	53                   	push   %rbx
  402493:	48 81 ec 68 a0 00 00 	sub    $0xa068,%rsp
  40249a:	49 89 fd             	mov    %rdi,%r13
  40249d:	89 74 24 14          	mov    %esi,0x14(%rsp)
  4024a1:	49 89 d7             	mov    %rdx,%r15
  4024a4:	48 89 4c 24 08       	mov    %rcx,0x8(%rsp)
  4024a9:	4c 89 44 24 18       	mov    %r8,0x18(%rsp)
  4024ae:	4d 89 ce             	mov    %r9,%r14
  4024b1:	48 8b ac 24 a0 a0 00 	mov    0xa0a0(%rsp),%rbp
  4024b8:	00 
  4024b9:	64 48 8b 04 25 28 00 	mov    %fs:0x28,%rax
  4024c0:	00 00 
  4024c2:	48 89 84 24 58 a0 00 	mov    %rax,0xa058(%rsp)
  4024c9:	00 
  4024ca:	31 c0                	xor    %eax,%eax
  4024cc:	c7 44 24 2c 00 00 00 	movl   $0x0,0x2c(%rsp)
  4024d3:	00 
  4024d4:	ba 00 00 00 00       	mov    $0x0,%edx
  4024d9:	be 01 00 00 00       	mov    $0x1,%esi
  4024de:	bf 02 00 00 00       	mov    $0x2,%edi
  4024e3:	e8 88 e9 ff ff       	callq  400e70 <socket@plt>
  4024e8:	85 c0                	test   %eax,%eax
  4024ea:	0f 88 a9 02 00 00    	js     402799 <submitr+0x310>
  4024f0:	89 c3                	mov    %eax,%ebx
  4024f2:	4c 89 ef             	mov    %r13,%rdi
  4024f5:	e8 56 e8 ff ff       	callq  400d50 <gethostbyname@plt>
  4024fa:	48 85 c0             	test   %rax,%rax
  4024fd:	0f 84 e2 02 00 00    	je     4027e5 <submitr+0x35c>
  402503:	4c 8d 64 24 30       	lea    0x30(%rsp),%r12
  402508:	48 c7 44 24 32 00 00 	movq   $0x0,0x32(%rsp)
  40250f:	00 00 
  402511:	c7 44 24 3a 00 00 00 	movl   $0x0,0x3a(%rsp)
  402518:	00 
  402519:	66 c7 44 24 3e 00 00 	movw   $0x0,0x3e(%rsp)
  402520:	66 c7 44 24 30 02 00 	movw   $0x2,0x30(%rsp)
  402527:	48 63 50 14          	movslq 0x14(%rax),%rdx
  40252b:	48 8b 40 18          	mov    0x18(%rax),%rax
  40252f:	48 8b 30             	mov    (%rax),%rsi
  402532:	48 8d 7c 24 34       	lea    0x34(%rsp),%rdi
  402537:	b9 0c 00 00 00       	mov    $0xc,%ecx
  40253c:	e8 1f e8 ff ff       	callq  400d60 <__memmove_chk@plt>
  402541:	0f b7 44 24 14       	movzwl 0x14(%rsp),%eax
  402546:	66 c1 c8 08          	ror    $0x8,%ax
  40254a:	66 89 44 24 32       	mov    %ax,0x32(%rsp)
  40254f:	ba 10 00 00 00       	mov    $0x10,%edx
  402554:	4c 89 e6             	mov    %r12,%rsi
  402557:	89 df                	mov    %ebx,%edi
  402559:	e8 e2 e8 ff ff       	callq  400e40 <connect@plt>
  40255e:	85 c0                	test   %eax,%eax
  402560:	0f 88 e7 02 00 00    	js     40284d <submitr+0x3c4>
  402566:	48 c7 c6 ff ff ff ff 	mov    $0xffffffffffffffff,%rsi
  40256d:	b8 00 00 00 00       	mov    $0x0,%eax
  402572:	48 89 f1             	mov    %rsi,%rcx
  402575:	4c 89 f7             	mov    %r14,%rdi
  402578:	f2 ae                	repnz scas %es:(%rdi),%al
  40257a:	48 89 ca             	mov    %rcx,%rdx
  40257d:	48 f7 d2             	not    %rdx
  402580:	48 89 f1             	mov    %rsi,%rcx
  402583:	4c 89 ff             	mov    %r15,%rdi
  402586:	f2 ae                	repnz scas %es:(%rdi),%al
  402588:	48 f7 d1             	not    %rcx
  40258b:	49 89 c8             	mov    %rcx,%r8
  40258e:	48 89 f1             	mov    %rsi,%rcx
  402591:	48 8b 7c 24 08       	mov    0x8(%rsp),%rdi
  402596:	f2 ae                	repnz scas %es:(%rdi),%al
  402598:	48 f7 d1             	not    %rcx
  40259b:	4d 8d 44 08 fe       	lea    -0x2(%r8,%rcx,1),%r8
  4025a0:	48 89 f1             	mov    %rsi,%rcx
  4025a3:	48 8b 7c 24 18       	mov    0x18(%rsp),%rdi
  4025a8:	f2 ae                	repnz scas %es:(%rdi),%al
  4025aa:	48 89 c8             	mov    %rcx,%rax
  4025ad:	48 f7 d0             	not    %rax
  4025b0:	49 8d 4c 00 ff       	lea    -0x1(%r8,%rax,1),%rcx
  4025b5:	48 8d 44 52 fd       	lea    -0x3(%rdx,%rdx,2),%rax
  4025ba:	48 8d 84 01 80 00 00 	lea    0x80(%rcx,%rax,1),%rax
  4025c1:	00 
  4025c2:	48 3d 00 20 00 00    	cmp    $0x2000,%rax
  4025c8:	0f 87 d9 02 00 00    	ja     4028a7 <submitr+0x41e>
  4025ce:	48 8d b4 24 50 40 00 	lea    0x4050(%rsp),%rsi
  4025d5:	00 
  4025d6:	b9 00 04 00 00       	mov    $0x400,%ecx
  4025db:	b8 00 00 00 00       	mov    $0x0,%eax
  4025e0:	48 89 f7             	mov    %rsi,%rdi
  4025e3:	f3 48 ab             	rep stos %rax,%es:(%rdi)
  4025e6:	4c 89 f7             	mov    %r14,%rdi
  4025e9:	e8 88 fd ff ff       	callq  402376 <urlencode>
  4025ee:	85 c0                	test   %eax,%eax
  4025f0:	0f 88 24 03 00 00    	js     40291a <submitr+0x491>
  4025f6:	4c 8d a4 24 50 20 00 	lea    0x2050(%rsp),%r12
  4025fd:	00 
  4025fe:	41 55                	push   %r13
  402600:	48 8d 84 24 58 40 00 	lea    0x4058(%rsp),%rax
  402607:	00 
  402608:	50                   	push   %rax
  402609:	4d 89 f9             	mov    %r15,%r9
  40260c:	4c 8b 44 24 18       	mov    0x18(%rsp),%r8
  402611:	48 8d 0d 90 10 00 00 	lea    0x1090(%rip),%rcx        # 4036a8 <trans_char+0x38>
  402618:	ba 00 20 00 00       	mov    $0x2000,%edx
  40261d:	be 01 00 00 00       	mov    $0x1,%esi
  402622:	4c 89 e7             	mov    %r12,%rdi
  402625:	b8 00 00 00 00       	mov    $0x0,%eax
  40262a:	e8 31 e8 ff ff       	callq  400e60 <__sprintf_chk@plt>
  40262f:	48 c7 c1 ff ff ff ff 	mov    $0xffffffffffffffff,%rcx
  402636:	b8 00 00 00 00       	mov    $0x0,%eax
  40263b:	4c 89 e7             	mov    %r12,%rdi
  40263e:	f2 ae                	repnz scas %es:(%rdi),%al
  402640:	48 89 ca             	mov    %rcx,%rdx
  402643:	48 f7 d2             	not    %rdx
  402646:	48 8d 52 ff          	lea    -0x1(%rdx),%rdx
  40264a:	4c 89 e6             	mov    %r12,%rsi
  40264d:	89 df                	mov    %ebx,%edi
  40264f:	e8 95 fb ff ff       	callq  4021e9 <rio_writen>
  402654:	48 83 c4 10          	add    $0x10,%rsp
  402658:	48 85 c0             	test   %rax,%rax
  40265b:	0f 88 44 03 00 00    	js     4029a5 <submitr+0x51c>
  402661:	4c 8d 64 24 40       	lea    0x40(%rsp),%r12
  402666:	89 de                	mov    %ebx,%esi
  402668:	4c 89 e7             	mov    %r12,%rdi
  40266b:	e8 37 fb ff ff       	callq  4021a7 <rio_readinitb>
  402670:	48 8d b4 24 50 20 00 	lea    0x2050(%rsp),%rsi
  402677:	00 
  402678:	ba 00 20 00 00       	mov    $0x2000,%edx
  40267d:	4c 89 e7             	mov    %r12,%rdi
  402680:	e8 4d fc ff ff       	callq  4022d2 <rio_readlineb>
  402685:	48 85 c0             	test   %rax,%rax
  402688:	0f 8e 86 03 00 00    	jle    402a14 <submitr+0x58b>
  40268e:	48 8d 4c 24 2c       	lea    0x2c(%rsp),%rcx
  402693:	48 8d 94 24 50 60 00 	lea    0x6050(%rsp),%rdx
  40269a:	00 
  40269b:	48 8d bc 24 50 20 00 	lea    0x2050(%rsp),%rdi
  4026a2:	00 
  4026a3:	4c 8d 84 24 50 80 00 	lea    0x8050(%rsp),%r8
  4026aa:	00 
  4026ab:	48 8d 35 6d 10 00 00 	lea    0x106d(%rip),%rsi        # 40371f <trans_char+0xaf>
  4026b2:	b8 00 00 00 00       	mov    $0x0,%eax
  4026b7:	e8 04 e7 ff ff       	callq  400dc0 <__isoc99_sscanf@plt>
  4026bc:	48 8d b4 24 50 20 00 	lea    0x2050(%rsp),%rsi
  4026c3:	00 
  4026c4:	b9 03 00 00 00       	mov    $0x3,%ecx
  4026c9:	48 8d 3d 66 10 00 00 	lea    0x1066(%rip),%rdi        # 403736 <trans_char+0xc6>
  4026d0:	f3 a6                	repz cmpsb %es:(%rdi),%ds:(%rsi)
  4026d2:	0f 97 c0             	seta   %al
  4026d5:	1c 00                	sbb    $0x0,%al
  4026d7:	84 c0                	test   %al,%al
  4026d9:	0f 84 b3 03 00 00    	je     402a92 <submitr+0x609>
  4026df:	48 8d b4 24 50 20 00 	lea    0x2050(%rsp),%rsi
  4026e6:	00 
  4026e7:	48 8d 7c 24 40       	lea    0x40(%rsp),%rdi
  4026ec:	ba 00 20 00 00       	mov    $0x2000,%edx
  4026f1:	e8 dc fb ff ff       	callq  4022d2 <rio_readlineb>
  4026f6:	48 85 c0             	test   %rax,%rax
  4026f9:	7f c1                	jg     4026bc <submitr+0x233>
  4026fb:	48 b8 45 72 72 6f 72 	movabs $0x43203a726f727245,%rax
  402702:	3a 20 43 
  402705:	48 ba 6c 69 65 6e 74 	movabs $0x6e7520746e65696c,%rdx
  40270c:	20 75 6e 
  40270f:	48 89 45 00          	mov    %rax,0x0(%rbp)
  402713:	48 89 55 08          	mov    %rdx,0x8(%rbp)
  402717:	48 b8 61 62 6c 65 20 	movabs $0x206f7420656c6261,%rax
  40271e:	74 6f 20 
  402721:	48 ba 72 65 61 64 20 	movabs $0x6165682064616572,%rdx
  402728:	68 65 61 
  40272b:	48 89 45 10          	mov    %rax,0x10(%rbp)
  40272f:	48 89 55 18          	mov    %rdx,0x18(%rbp)
  402733:	48 b8 64 65 72 73 20 	movabs $0x6f72662073726564,%rax
  40273a:	66 72 6f 
  40273d:	48 ba 6d 20 74 68 65 	movabs $0x657220656874206d,%rdx
  402744:	20 72 65 
  402747:	48 89 45 20          	mov    %rax,0x20(%rbp)
  40274b:	48 89 55 28          	mov    %rdx,0x28(%rbp)
  40274f:	48 b8 73 75 6c 74 20 	movabs $0x72657320746c7573,%rax
  402756:	73 65 72 
  402759:	48 89 45 30          	mov    %rax,0x30(%rbp)
  40275d:	c7 45 38 76 65 72 00 	movl   $0x726576,0x38(%rbp)
  402764:	89 df                	mov    %ebx,%edi
  402766:	e8 b5 e5 ff ff       	callq  400d20 <close@plt>
  40276b:	b8 ff ff ff ff       	mov    $0xffffffff,%eax
  402770:	48 8b 9c 24 58 a0 00 	mov    0xa058(%rsp),%rbx
  402777:	00 
  402778:	64 48 33 1c 25 28 00 	xor    %fs:0x28,%rbx
  40277f:	00 00 
  402781:	0f 85 7e 04 00 00    	jne    402c05 <submitr+0x77c>
  402787:	48 81 c4 68 a0 00 00 	add    $0xa068,%rsp
  40278e:	5b                   	pop    %rbx
  40278f:	5d                   	pop    %rbp
  402790:	41 5c                	pop    %r12
  402792:	41 5d                	pop    %r13
  402794:	41 5e                	pop    %r14
  402796:	41 5f                	pop    %r15
  402798:	c3                   	retq   
  402799:	48 b8 45 72 72 6f 72 	movabs $0x43203a726f727245,%rax
  4027a0:	3a 20 43 
  4027a3:	48 ba 6c 69 65 6e 74 	movabs $0x6e7520746e65696c,%rdx
  4027aa:	20 75 6e 
  4027ad:	48 89 45 00          	mov    %rax,0x0(%rbp)
  4027b1:	48 89 55 08          	mov    %rdx,0x8(%rbp)
  4027b5:	48 b8 61 62 6c 65 20 	movabs $0x206f7420656c6261,%rax
  4027bc:	74 6f 20 
  4027bf:	48 ba 63 72 65 61 74 	movabs $0x7320657461657263,%rdx
  4027c6:	65 20 73 
  4027c9:	48 89 45 10          	mov    %rax,0x10(%rbp)
  4027cd:	48 89 55 18          	mov    %rdx,0x18(%rbp)
  4027d1:	c7 45 20 6f 63 6b 65 	movl   $0x656b636f,0x20(%rbp)
  4027d8:	66 c7 45 24 74 00    	movw   $0x74,0x24(%rbp)
  4027de:	b8 ff ff ff ff       	mov    $0xffffffff,%eax
  4027e3:	eb 8b                	jmp    402770 <submitr+0x2e7>
  4027e5:	48 b8 45 72 72 6f 72 	movabs $0x44203a726f727245,%rax
  4027ec:	3a 20 44 
  4027ef:	48 ba 4e 53 20 69 73 	movabs $0x6e7520736920534e,%rdx
  4027f6:	20 75 6e 
  4027f9:	48 89 45 00          	mov    %rax,0x0(%rbp)
  4027fd:	48 89 55 08          	mov    %rdx,0x8(%rbp)
  402801:	48 b8 61 62 6c 65 20 	movabs $0x206f7420656c6261,%rax
  402808:	74 6f 20 
  40280b:	48 ba 72 65 73 6f 6c 	movabs $0x2065766c6f736572,%rdx
  402812:	76 65 20 
  402815:	48 89 45 10          	mov    %rax,0x10(%rbp)
  402819:	48 89 55 18          	mov    %rdx,0x18(%rbp)
  40281d:	48 b8 73 65 72 76 65 	movabs $0x6120726576726573,%rax
  402824:	72 20 61 
  402827:	48 89 45 20          	mov    %rax,0x20(%rbp)
  40282b:	c7 45 28 64 64 72 65 	movl   $0x65726464,0x28(%rbp)
  402832:	66 c7 45 2c 73 73    	movw   $0x7373,0x2c(%rbp)
  402838:	c6 45 2e 00          	movb   $0x0,0x2e(%rbp)
  40283c:	89 df                	mov    %ebx,%edi
  40283e:	e8 dd e4 ff ff       	callq  400d20 <close@plt>
  402843:	b8 ff ff ff ff       	mov    $0xffffffff,%eax
  402848:	e9 23 ff ff ff       	jmpq   402770 <submitr+0x2e7>
  40284d:	48 b8 45 72 72 6f 72 	movabs $0x55203a726f727245,%rax
  402854:	3a 20 55 
  402857:	48 ba 6e 61 62 6c 65 	movabs $0x6f7420656c62616e,%rdx
  40285e:	20 74 6f 
  402861:	48 89 45 00          	mov    %rax,0x0(%rbp)
  402865:	48 89 55 08          	mov    %rdx,0x8(%rbp)
  402869:	48 b8 20 63 6f 6e 6e 	movabs $0x7463656e6e6f6320,%rax
  402870:	65 63 74 
  402873:	48 ba 20 74 6f 20 74 	movabs $0x20656874206f7420,%rdx
  40287a:	68 65 20 
  40287d:	48 89 45 10          	mov    %rax,0x10(%rbp)
  402881:	48 89 55 18          	mov    %rdx,0x18(%rbp)
  402885:	c7 45 20 73 65 72 76 	movl   $0x76726573,0x20(%rbp)
  40288c:	66 c7 45 24 65 72    	movw   $0x7265,0x24(%rbp)
  402892:	c6 45 26 00          	movb   $0x0,0x26(%rbp)
  402896:	89 df                	mov    %ebx,%edi
  402898:	e8 83 e4 ff ff       	callq  400d20 <close@plt>
  40289d:	b8 ff ff ff ff       	mov    $0xffffffff,%eax
  4028a2:	e9 c9 fe ff ff       	jmpq   402770 <submitr+0x2e7>
  4028a7:	48 b8 45 72 72 6f 72 	movabs $0x52203a726f727245,%rax
  4028ae:	3a 20 52 
  4028b1:	48 ba 65 73 75 6c 74 	movabs $0x747320746c757365,%rdx
  4028b8:	20 73 74 
  4028bb:	48 89 45 00          	mov    %rax,0x0(%rbp)
  4028bf:	48 89 55 08          	mov    %rdx,0x8(%rbp)
  4028c3:	48 b8 72 69 6e 67 20 	movabs $0x6f6f7420676e6972,%rax
  4028ca:	74 6f 6f 
  4028cd:	48 ba 20 6c 61 72 67 	movabs $0x202e656772616c20,%rdx
  4028d4:	65 2e 20 
  4028d7:	48 89 45 10          	mov    %rax,0x10(%rbp)
  4028db:	48 89 55 18          	mov    %rdx,0x18(%rbp)
  4028df:	48 b8 49 6e 63 72 65 	movabs $0x6573616572636e49,%rax
  4028e6:	61 73 65 
  4028e9:	48 ba 20 53 55 42 4d 	movabs $0x5254494d42555320,%rdx
  4028f0:	49 54 52 
  4028f3:	48 89 45 20          	mov    %rax,0x20(%rbp)
  4028f7:	48 89 55 28          	mov    %rdx,0x28(%rbp)
  4028fb:	48 b8 5f 4d 41 58 42 	movabs $0x46554258414d5f,%rax
  402902:	55 46 00 
  402905:	48 89 45 30          	mov    %rax,0x30(%rbp)
  402909:	89 df                	mov    %ebx,%edi
  40290b:	e8 10 e4 ff ff       	callq  400d20 <close@plt>
  402910:	b8 ff ff ff ff       	mov    $0xffffffff,%eax
  402915:	e9 56 fe ff ff       	jmpq   402770 <submitr+0x2e7>
  40291a:	48 b8 45 72 72 6f 72 	movabs $0x52203a726f727245,%rax
  402921:	3a 20 52 
  402924:	48 ba 65 73 75 6c 74 	movabs $0x747320746c757365,%rdx
  40292b:	20 73 74 
  40292e:	48 89 45 00          	mov    %rax,0x0(%rbp)
  402932:	48 89 55 08          	mov    %rdx,0x8(%rbp)
  402936:	48 b8 72 69 6e 67 20 	movabs $0x6e6f6320676e6972,%rax
  40293d:	63 6f 6e 
  402940:	48 ba 74 61 69 6e 73 	movabs $0x6e6120736e696174,%rdx
  402947:	20 61 6e 
  40294a:	48 89 45 10          	mov    %rax,0x10(%rbp)
  40294e:	48 89 55 18          	mov    %rdx,0x18(%rbp)
  402952:	48 b8 20 69 6c 6c 65 	movabs $0x6c6167656c6c6920,%rax
  402959:	67 61 6c 
  40295c:	48 ba 20 6f 72 20 75 	movabs $0x72706e7520726f20,%rdx
  402963:	6e 70 72 
  402966:	48 89 45 20          	mov    %rax,0x20(%rbp)
  40296a:	48 89 55 28          	mov    %rdx,0x28(%rbp)
  40296e:	48 b8 69 6e 74 61 62 	movabs $0x20656c6261746e69,%rax
  402975:	6c 65 20 
  402978:	48 ba 63 68 61 72 61 	movabs $0x6574636172616863,%rdx
  40297f:	63 74 65 
  402982:	48 89 45 30          	mov    %rax,0x30(%rbp)
  402986:	48 89 55 38          	mov    %rdx,0x38(%rbp)
  40298a:	66 c7 45 40 72 2e    	movw   $0x2e72,0x40(%rbp)
  402990:	c6 45 42 00          	movb   $0x0,0x42(%rbp)
  402994:	89 df                	mov    %ebx,%edi
  402996:	e8 85 e3 ff ff       	callq  400d20 <close@plt>
  40299b:	b8 ff ff ff ff       	mov    $0xffffffff,%eax
  4029a0:	e9 cb fd ff ff       	jmpq   402770 <submitr+0x2e7>
  4029a5:	48 b8 45 72 72 6f 72 	movabs $0x43203a726f727245,%rax
  4029ac:	3a 20 43 
  4029af:	48 ba 6c 69 65 6e 74 	movabs $0x6e7520746e65696c,%rdx
  4029b6:	20 75 6e 
  4029b9:	48 89 45 00          	mov    %rax,0x0(%rbp)
  4029bd:	48 89 55 08          	mov    %rdx,0x8(%rbp)
  4029c1:	48 b8 61 62 6c 65 20 	movabs $0x206f7420656c6261,%rax
  4029c8:	74 6f 20 
  4029cb:	48 ba 77 72 69 74 65 	movabs $0x6f74206574697277,%rdx
  4029d2:	20 74 6f 
  4029d5:	48 89 45 10          	mov    %rax,0x10(%rbp)
  4029d9:	48 89 55 18          	mov    %rdx,0x18(%rbp)
  4029dd:	48 b8 20 74 68 65 20 	movabs $0x7365722065687420,%rax
  4029e4:	72 65 73 
  4029e7:	48 ba 75 6c 74 20 73 	movabs $0x7672657320746c75,%rdx
  4029ee:	65 72 76 
  4029f1:	48 89 45 20          	mov    %rax,0x20(%rbp)
  4029f5:	48 89 55 28          	mov    %rdx,0x28(%rbp)
  4029f9:	66 c7 45 30 65 72    	movw   $0x7265,0x30(%rbp)
  4029ff:	c6 45 32 00          	movb   $0x0,0x32(%rbp)
  402a03:	89 df                	mov    %ebx,%edi
  402a05:	e8 16 e3 ff ff       	callq  400d20 <close@plt>
  402a0a:	b8 ff ff ff ff       	mov    $0xffffffff,%eax
  402a0f:	e9 5c fd ff ff       	jmpq   402770 <submitr+0x2e7>
  402a14:	48 b8 45 72 72 6f 72 	movabs $0x43203a726f727245,%rax
  402a1b:	3a 20 43 
  402a1e:	48 ba 6c 69 65 6e 74 	movabs $0x6e7520746e65696c,%rdx
  402a25:	20 75 6e 
  402a28:	48 89 45 00          	mov    %rax,0x0(%rbp)
  402a2c:	48 89 55 08          	mov    %rdx,0x8(%rbp)
  402a30:	48 b8 61 62 6c 65 20 	movabs $0x206f7420656c6261,%rax
  402a37:	74 6f 20 
  402a3a:	48 ba 72 65 61 64 20 	movabs $0x7269662064616572,%rdx
  402a41:	66 69 72 
  402a44:	48 89 45 10          	mov    %rax,0x10(%rbp)
  402a48:	48 89 55 18          	mov    %rdx,0x18(%rbp)
  402a4c:	48 b8 73 74 20 68 65 	movabs $0x6564616568207473,%rax
  402a53:	61 64 65 
  402a56:	48 ba 72 20 66 72 6f 	movabs $0x72206d6f72662072,%rdx
  402a5d:	6d 20 72 
  402a60:	48 89 45 20          	mov    %rax,0x20(%rbp)
  402a64:	48 89 55 28          	mov    %rdx,0x28(%rbp)
  402a68:	48 b8 65 73 75 6c 74 	movabs $0x657320746c757365,%rax
  402a6f:	20 73 65 
  402a72:	48 89 45 30          	mov    %rax,0x30(%rbp)
  402a76:	c7 45 38 72 76 65 72 	movl   $0x72657672,0x38(%rbp)
  402a7d:	c6 45 3c 00          	movb   $0x0,0x3c(%rbp)
  402a81:	89 df                	mov    %ebx,%edi
  402a83:	e8 98 e2 ff ff       	callq  400d20 <close@plt>
  402a88:	b8 ff ff ff ff       	mov    $0xffffffff,%eax
  402a8d:	e9 de fc ff ff       	jmpq   402770 <submitr+0x2e7>
  402a92:	48 8d b4 24 50 20 00 	lea    0x2050(%rsp),%rsi
  402a99:	00 
  402a9a:	48 8d 7c 24 40       	lea    0x40(%rsp),%rdi
  402a9f:	ba 00 20 00 00       	mov    $0x2000,%edx
  402aa4:	e8 29 f8 ff ff       	callq  4022d2 <rio_readlineb>
  402aa9:	48 85 c0             	test   %rax,%rax
  402aac:	0f 8e 96 00 00 00    	jle    402b48 <submitr+0x6bf>
  402ab2:	44 8b 44 24 2c       	mov    0x2c(%rsp),%r8d
  402ab7:	41 81 f8 c8 00 00 00 	cmp    $0xc8,%r8d
  402abe:	0f 85 08 01 00 00    	jne    402bcc <submitr+0x743>
  402ac4:	48 8d b4 24 50 20 00 	lea    0x2050(%rsp),%rsi
  402acb:	00 
  402acc:	48 89 ef             	mov    %rbp,%rdi
  402acf:	e8 dc e1 ff ff       	callq  400cb0 <strcpy@plt>
  402ad4:	89 df                	mov    %ebx,%edi
  402ad6:	e8 45 e2 ff ff       	callq  400d20 <close@plt>
  402adb:	b9 04 00 00 00       	mov    $0x4,%ecx
  402ae0:	48 8d 3d 49 0c 00 00 	lea    0xc49(%rip),%rdi        # 403730 <trans_char+0xc0>
  402ae7:	48 89 ee             	mov    %rbp,%rsi
  402aea:	f3 a6                	repz cmpsb %es:(%rdi),%ds:(%rsi)
  402aec:	0f 97 c0             	seta   %al
  402aef:	1c 00                	sbb    $0x0,%al
  402af1:	0f be c0             	movsbl %al,%eax
  402af4:	85 c0                	test   %eax,%eax
  402af6:	0f 84 74 fc ff ff    	je     402770 <submitr+0x2e7>
  402afc:	b9 05 00 00 00       	mov    $0x5,%ecx
  402b01:	48 8d 3d 2c 0c 00 00 	lea    0xc2c(%rip),%rdi        # 403734 <trans_char+0xc4>
  402b08:	48 89 ee             	mov    %rbp,%rsi
  402b0b:	f3 a6                	repz cmpsb %es:(%rdi),%ds:(%rsi)
  402b0d:	0f 97 c0             	seta   %al
  402b10:	1c 00                	sbb    $0x0,%al
  402b12:	0f be c0             	movsbl %al,%eax
  402b15:	85 c0                	test   %eax,%eax
  402b17:	0f 84 53 fc ff ff    	je     402770 <submitr+0x2e7>
  402b1d:	b9 03 00 00 00       	mov    $0x3,%ecx
  402b22:	48 8d 3d 10 0c 00 00 	lea    0xc10(%rip),%rdi        # 403739 <trans_char+0xc9>
  402b29:	48 89 ee             	mov    %rbp,%rsi
  402b2c:	f3 a6                	repz cmpsb %es:(%rdi),%ds:(%rsi)
  402b2e:	0f 97 c0             	seta   %al
  402b31:	1c 00                	sbb    $0x0,%al
  402b33:	0f be c0             	movsbl %al,%eax
  402b36:	85 c0                	test   %eax,%eax
  402b38:	0f 84 32 fc ff ff    	je     402770 <submitr+0x2e7>
  402b3e:	b8 ff ff ff ff       	mov    $0xffffffff,%eax
  402b43:	e9 28 fc ff ff       	jmpq   402770 <submitr+0x2e7>
  402b48:	48 b8 45 72 72 6f 72 	movabs $0x43203a726f727245,%rax
  402b4f:	3a 20 43 
  402b52:	48 ba 6c 69 65 6e 74 	movabs $0x6e7520746e65696c,%rdx
  402b59:	20 75 6e 
  402b5c:	48 89 45 00          	mov    %rax,0x0(%rbp)
  402b60:	48 89 55 08          	mov    %rdx,0x8(%rbp)
  402b64:	48 b8 61 62 6c 65 20 	movabs $0x206f7420656c6261,%rax
  402b6b:	74 6f 20 
  402b6e:	48 ba 72 65 61 64 20 	movabs $0x6174732064616572,%rdx
  402b75:	73 74 61 
  402b78:	48 89 45 10          	mov    %rax,0x10(%rbp)
  402b7c:	48 89 55 18          	mov    %rdx,0x18(%rbp)
  402b80:	48 b8 74 75 73 20 6d 	movabs $0x7373656d20737574,%rax
  402b87:	65 73 73 
  402b8a:	48 ba 61 67 65 20 66 	movabs $0x6d6f726620656761,%rdx
  402b91:	72 6f 6d 
  402b94:	48 89 45 20          	mov    %rax,0x20(%rbp)
  402b98:	48 89 55 28          	mov    %rdx,0x28(%rbp)
  402b9c:	48 b8 20 72 65 73 75 	movabs $0x20746c7573657220,%rax
  402ba3:	6c 74 20 
  402ba6:	48 89 45 30          	mov    %rax,0x30(%rbp)
  402baa:	c7 45 38 73 65 72 76 	movl   $0x76726573,0x38(%rbp)
  402bb1:	66 c7 45 3c 65 72    	movw   $0x7265,0x3c(%rbp)
  402bb7:	c6 45 3e 00          	movb   $0x0,0x3e(%rbp)
  402bbb:	89 df                	mov    %ebx,%edi
  402bbd:	e8 5e e1 ff ff       	callq  400d20 <close@plt>
  402bc2:	b8 ff ff ff ff       	mov    $0xffffffff,%eax
  402bc7:	e9 a4 fb ff ff       	jmpq   402770 <submitr+0x2e7>
  402bcc:	4c 8d 8c 24 50 80 00 	lea    0x8050(%rsp),%r9
  402bd3:	00 
  402bd4:	48 8d 0d 0d 0b 00 00 	lea    0xb0d(%rip),%rcx        # 4036e8 <trans_char+0x78>
  402bdb:	48 c7 c2 ff ff ff ff 	mov    $0xffffffffffffffff,%rdx
  402be2:	be 01 00 00 00       	mov    $0x1,%esi
  402be7:	48 89 ef             	mov    %rbp,%rdi
  402bea:	b8 00 00 00 00       	mov    $0x0,%eax
  402bef:	e8 6c e2 ff ff       	callq  400e60 <__sprintf_chk@plt>
  402bf4:	89 df                	mov    %ebx,%edi
  402bf6:	e8 25 e1 ff ff       	callq  400d20 <close@plt>
  402bfb:	b8 ff ff ff ff       	mov    $0xffffffff,%eax
  402c00:	e9 6b fb ff ff       	jmpq   402770 <submitr+0x2e7>
  402c05:	e8 d6 e0 ff ff       	callq  400ce0 <__stack_chk_fail@plt>

0000000000402c0a <init_timeout>:
  402c0a:	85 ff                	test   %edi,%edi
  402c0c:	74 28                	je     402c36 <init_timeout+0x2c>
  402c0e:	53                   	push   %rbx
  402c0f:	89 fb                	mov    %edi,%ebx
  402c11:	85 ff                	test   %edi,%edi
  402c13:	78 1a                	js     402c2f <init_timeout+0x25>
  402c15:	48 8d 35 9d f5 ff ff 	lea    -0xa63(%rip),%rsi        # 4021b9 <sigalrm_handler>
  402c1c:	bf 0e 00 00 00       	mov    $0xe,%edi
  402c21:	e8 1a e1 ff ff       	callq  400d40 <signal@plt>
  402c26:	89 df                	mov    %ebx,%edi
  402c28:	e8 e3 e0 ff ff       	callq  400d10 <alarm@plt>
  402c2d:	5b                   	pop    %rbx
  402c2e:	c3                   	retq   
  402c2f:	bb 00 00 00 00       	mov    $0x0,%ebx
  402c34:	eb df                	jmp    402c15 <init_timeout+0xb>
  402c36:	f3 c3                	repz retq 

0000000000402c38 <init_driver>:
  402c38:	41 54                	push   %r12
  402c3a:	55                   	push   %rbp
  402c3b:	53                   	push   %rbx
  402c3c:	48 83 ec 20          	sub    $0x20,%rsp
  402c40:	49 89 fc             	mov    %rdi,%r12
  402c43:	64 48 8b 04 25 28 00 	mov    %fs:0x28,%rax
  402c4a:	00 00 
  402c4c:	48 89 44 24 18       	mov    %rax,0x18(%rsp)
  402c51:	31 c0                	xor    %eax,%eax
  402c53:	be 01 00 00 00       	mov    $0x1,%esi
  402c58:	bf 0d 00 00 00       	mov    $0xd,%edi
  402c5d:	e8 de e0 ff ff       	callq  400d40 <signal@plt>
  402c62:	be 01 00 00 00       	mov    $0x1,%esi
  402c67:	bf 1d 00 00 00       	mov    $0x1d,%edi
  402c6c:	e8 cf e0 ff ff       	callq  400d40 <signal@plt>
  402c71:	be 01 00 00 00       	mov    $0x1,%esi
  402c76:	bf 1d 00 00 00       	mov    $0x1d,%edi
  402c7b:	e8 c0 e0 ff ff       	callq  400d40 <signal@plt>
  402c80:	ba 00 00 00 00       	mov    $0x0,%edx
  402c85:	be 01 00 00 00       	mov    $0x1,%esi
  402c8a:	bf 02 00 00 00       	mov    $0x2,%edi
  402c8f:	e8 dc e1 ff ff       	callq  400e70 <socket@plt>
  402c94:	85 c0                	test   %eax,%eax
  402c96:	0f 88 a3 00 00 00    	js     402d3f <init_driver+0x107>
  402c9c:	89 c3                	mov    %eax,%ebx
  402c9e:	48 8d 3d 97 0a 00 00 	lea    0xa97(%rip),%rdi        # 40373c <trans_char+0xcc>
  402ca5:	e8 a6 e0 ff ff       	callq  400d50 <gethostbyname@plt>
  402caa:	48 85 c0             	test   %rax,%rax
  402cad:	0f 84 df 00 00 00    	je     402d92 <init_driver+0x15a>
  402cb3:	48 89 e5             	mov    %rsp,%rbp
  402cb6:	48 c7 44 24 02 00 00 	movq   $0x0,0x2(%rsp)
  402cbd:	00 00 
  402cbf:	c7 45 0a 00 00 00 00 	movl   $0x0,0xa(%rbp)
  402cc6:	66 c7 45 0e 00 00    	movw   $0x0,0xe(%rbp)
  402ccc:	66 c7 04 24 02 00    	movw   $0x2,(%rsp)
  402cd2:	48 63 50 14          	movslq 0x14(%rax),%rdx
  402cd6:	48 8b 40 18          	mov    0x18(%rax),%rax
  402cda:	48 8b 30             	mov    (%rax),%rsi
  402cdd:	48 8d 7d 04          	lea    0x4(%rbp),%rdi
  402ce1:	b9 0c 00 00 00       	mov    $0xc,%ecx
  402ce6:	e8 75 e0 ff ff       	callq  400d60 <__memmove_chk@plt>
  402ceb:	66 c7 44 24 02 3c 9a 	movw   $0x9a3c,0x2(%rsp)
  402cf2:	ba 10 00 00 00       	mov    $0x10,%edx
  402cf7:	48 89 ee             	mov    %rbp,%rsi
  402cfa:	89 df                	mov    %ebx,%edi
  402cfc:	e8 3f e1 ff ff       	callq  400e40 <connect@plt>
  402d01:	85 c0                	test   %eax,%eax
  402d03:	0f 88 fb 00 00 00    	js     402e04 <init_driver+0x1cc>
  402d09:	89 df                	mov    %ebx,%edi
  402d0b:	e8 10 e0 ff ff       	callq  400d20 <close@plt>
  402d10:	66 41 c7 04 24 4f 4b 	movw   $0x4b4f,(%r12)
  402d17:	41 c6 44 24 02 00    	movb   $0x0,0x2(%r12)
  402d1d:	b8 00 00 00 00       	mov    $0x0,%eax
  402d22:	48 8b 4c 24 18       	mov    0x18(%rsp),%rcx
  402d27:	64 48 33 0c 25 28 00 	xor    %fs:0x28,%rcx
  402d2e:	00 00 
  402d30:	0f 85 28 01 00 00    	jne    402e5e <init_driver+0x226>
  402d36:	48 83 c4 20          	add    $0x20,%rsp
  402d3a:	5b                   	pop    %rbx
  402d3b:	5d                   	pop    %rbp
  402d3c:	41 5c                	pop    %r12
  402d3e:	c3                   	retq   
  402d3f:	48 b8 45 72 72 6f 72 	movabs $0x43203a726f727245,%rax
  402d46:	3a 20 43 
  402d49:	48 ba 6c 69 65 6e 74 	movabs $0x6e7520746e65696c,%rdx
  402d50:	20 75 6e 
  402d53:	49 89 04 24          	mov    %rax,(%r12)
  402d57:	49 89 54 24 08       	mov    %rdx,0x8(%r12)
  402d5c:	48 b8 61 62 6c 65 20 	movabs $0x206f7420656c6261,%rax
  402d63:	74 6f 20 
  402d66:	48 ba 63 72 65 61 74 	movabs $0x7320657461657263,%rdx
  402d6d:	65 20 73 
  402d70:	49 89 44 24 10       	mov    %rax,0x10(%r12)
  402d75:	49 89 54 24 18       	mov    %rdx,0x18(%r12)
  402d7a:	41 c7 44 24 20 6f 63 	movl   $0x656b636f,0x20(%r12)
  402d81:	6b 65 
  402d83:	66 41 c7 44 24 24 74 	movw   $0x74,0x24(%r12)
  402d8a:	00 
  402d8b:	b8 ff ff ff ff       	mov    $0xffffffff,%eax
  402d90:	eb 90                	jmp    402d22 <init_driver+0xea>
  402d92:	48 b8 45 72 72 6f 72 	movabs $0x44203a726f727245,%rax
  402d99:	3a 20 44 
  402d9c:	48 ba 4e 53 20 69 73 	movabs $0x6e7520736920534e,%rdx
  402da3:	20 75 6e 
  402da6:	49 89 04 24          	mov    %rax,(%r12)
  402daa:	49 89 54 24 08       	mov    %rdx,0x8(%r12)
  402daf:	48 b8 61 62 6c 65 20 	movabs $0x206f7420656c6261,%rax
  402db6:	74 6f 20 
  402db9:	48 ba 72 65 73 6f 6c 	movabs $0x2065766c6f736572,%rdx
  402dc0:	76 65 20 
  402dc3:	49 89 44 24 10       	mov    %rax,0x10(%r12)
  402dc8:	49 89 54 24 18       	mov    %rdx,0x18(%r12)
  402dcd:	48 b8 73 65 72 76 65 	movabs $0x6120726576726573,%rax
  402dd4:	72 20 61 
  402dd7:	49 89 44 24 20       	mov    %rax,0x20(%r12)
  402ddc:	41 c7 44 24 28 64 64 	movl   $0x65726464,0x28(%r12)
  402de3:	72 65 
  402de5:	66 41 c7 44 24 2c 73 	movw   $0x7373,0x2c(%r12)
  402dec:	73 
  402ded:	41 c6 44 24 2e 00    	movb   $0x0,0x2e(%r12)
  402df3:	89 df                	mov    %ebx,%edi
  402df5:	e8 26 df ff ff       	callq  400d20 <close@plt>
  402dfa:	b8 ff ff ff ff       	mov    $0xffffffff,%eax
  402dff:	e9 1e ff ff ff       	jmpq   402d22 <init_driver+0xea>
  402e04:	48 b8 45 72 72 6f 72 	movabs $0x55203a726f727245,%rax
  402e0b:	3a 20 55 
  402e0e:	48 ba 6e 61 62 6c 65 	movabs $0x6f7420656c62616e,%rdx
  402e15:	20 74 6f 
  402e18:	49 89 04 24          	mov    %rax,(%r12)
  402e1c:	49 89 54 24 08       	mov    %rdx,0x8(%r12)
  402e21:	48 b8 20 63 6f 6e 6e 	movabs $0x7463656e6e6f6320,%rax
  402e28:	65 63 74 
  402e2b:	48 ba 20 74 6f 20 73 	movabs $0x76726573206f7420,%rdx
  402e32:	65 72 76 
  402e35:	49 89 44 24 10       	mov    %rax,0x10(%r12)
  402e3a:	49 89 54 24 18       	mov    %rdx,0x18(%r12)
  402e3f:	66 41 c7 44 24 20 65 	movw   $0x7265,0x20(%r12)
  402e46:	72 
  402e47:	41 c6 44 24 22 00    	movb   $0x0,0x22(%r12)
  402e4d:	89 df                	mov    %ebx,%edi
  402e4f:	e8 cc de ff ff       	callq  400d20 <close@plt>
  402e54:	b8 ff ff ff ff       	mov    $0xffffffff,%eax
  402e59:	e9 c4 fe ff ff       	jmpq   402d22 <init_driver+0xea>
  402e5e:	e8 7d de ff ff       	callq  400ce0 <__stack_chk_fail@plt>

0000000000402e63 <driver_post>:
  402e63:	53                   	push   %rbx
  402e64:	4c 89 cb             	mov    %r9,%rbx
  402e67:	45 85 c0             	test   %r8d,%r8d
  402e6a:	75 18                	jne    402e84 <driver_post+0x21>
  402e6c:	48 85 ff             	test   %rdi,%rdi
  402e6f:	74 05                	je     402e76 <driver_post+0x13>
  402e71:	80 3f 00             	cmpb   $0x0,(%rdi)
  402e74:	75 37                	jne    402ead <driver_post+0x4a>
  402e76:	66 c7 03 4f 4b       	movw   $0x4b4f,(%rbx)
  402e7b:	c6 43 02 00          	movb   $0x0,0x2(%rbx)
  402e7f:	44 89 c0             	mov    %r8d,%eax
  402e82:	5b                   	pop    %rbx
  402e83:	c3                   	retq   
  402e84:	48 89 ca             	mov    %rcx,%rdx
  402e87:	48 8d 35 ba 08 00 00 	lea    0x8ba(%rip),%rsi        # 403748 <trans_char+0xd8>
  402e8e:	bf 01 00 00 00       	mov    $0x1,%edi
  402e93:	b8 00 00 00 00       	mov    $0x0,%eax
  402e98:	e8 43 df ff ff       	callq  400de0 <__printf_chk@plt>
  402e9d:	66 c7 03 4f 4b       	movw   $0x4b4f,(%rbx)
  402ea2:	c6 43 02 00          	movb   $0x0,0x2(%rbx)
  402ea6:	b8 00 00 00 00       	mov    $0x0,%eax
  402eab:	eb d5                	jmp    402e82 <driver_post+0x1f>
  402ead:	48 83 ec 08          	sub    $0x8,%rsp
  402eb1:	41 51                	push   %r9
  402eb3:	49 89 c9             	mov    %rcx,%r9
  402eb6:	49 89 d0             	mov    %rdx,%r8
  402eb9:	48 89 f9             	mov    %rdi,%rcx
  402ebc:	48 89 f2             	mov    %rsi,%rdx
  402ebf:	be 9a 3c 00 00       	mov    $0x3c9a,%esi
  402ec4:	48 8d 3d 71 08 00 00 	lea    0x871(%rip),%rdi        # 40373c <trans_char+0xcc>
  402ecb:	e8 b9 f5 ff ff       	callq  402489 <submitr>
  402ed0:	48 83 c4 10          	add    $0x10,%rsp
  402ed4:	eb ac                	jmp    402e82 <driver_post+0x1f>

0000000000402ed6 <check>:
  402ed6:	89 f8                	mov    %edi,%eax
  402ed8:	c1 e8 1c             	shr    $0x1c,%eax
  402edb:	85 c0                	test   %eax,%eax
  402edd:	74 1d                	je     402efc <check+0x26>
  402edf:	b9 00 00 00 00       	mov    $0x0,%ecx
  402ee4:	83 f9 1f             	cmp    $0x1f,%ecx
  402ee7:	7f 0d                	jg     402ef6 <check+0x20>
  402ee9:	89 f8                	mov    %edi,%eax
  402eeb:	d3 e8                	shr    %cl,%eax
  402eed:	3c 0a                	cmp    $0xa,%al
  402eef:	74 11                	je     402f02 <check+0x2c>
  402ef1:	83 c1 08             	add    $0x8,%ecx
  402ef4:	eb ee                	jmp    402ee4 <check+0xe>
  402ef6:	b8 01 00 00 00       	mov    $0x1,%eax
  402efb:	c3                   	retq   
  402efc:	b8 00 00 00 00       	mov    $0x0,%eax
  402f01:	c3                   	retq   
  402f02:	b8 00 00 00 00       	mov    $0x0,%eax
  402f07:	c3                   	retq   

0000000000402f08 <gencookie>:
  402f08:	53                   	push   %rbx
  402f09:	83 c7 01             	add    $0x1,%edi
  402f0c:	e8 7f dd ff ff       	callq  400c90 <srandom@plt>
  402f11:	e8 8a de ff ff       	callq  400da0 <random@plt>
  402f16:	89 c3                	mov    %eax,%ebx
  402f18:	89 c7                	mov    %eax,%edi
  402f1a:	e8 b7 ff ff ff       	callq  402ed6 <check>
  402f1f:	85 c0                	test   %eax,%eax
  402f21:	74 ee                	je     402f11 <gencookie+0x9>
  402f23:	89 d8                	mov    %ebx,%eax
  402f25:	5b                   	pop    %rbx
  402f26:	c3                   	retq   
  402f27:	66 0f 1f 84 00 00 00 	nopw   0x0(%rax,%rax,1)
  402f2e:	00 00 

0000000000402f30 <__libc_csu_init>:
  402f30:	41 57                	push   %r15
  402f32:	41 56                	push   %r14
  402f34:	49 89 d7             	mov    %rdx,%r15
  402f37:	41 55                	push   %r13
  402f39:	41 54                	push   %r12
  402f3b:	4c 8d 25 ce 1e 20 00 	lea    0x201ece(%rip),%r12        # 604e10 <__frame_dummy_init_array_entry>
  402f42:	55                   	push   %rbp
  402f43:	48 8d 2d ce 1e 20 00 	lea    0x201ece(%rip),%rbp        # 604e18 <__init_array_end>
  402f4a:	53                   	push   %rbx
  402f4b:	41 89 fd             	mov    %edi,%r13d
  402f4e:	49 89 f6             	mov    %rsi,%r14
  402f51:	4c 29 e5             	sub    %r12,%rbp
  402f54:	48 83 ec 08          	sub    $0x8,%rsp
  402f58:	48 c1 fd 03          	sar    $0x3,%rbp
  402f5c:	e8 e7 dc ff ff       	callq  400c48 <_init>
  402f61:	48 85 ed             	test   %rbp,%rbp
  402f64:	74 20                	je     402f86 <__libc_csu_init+0x56>
  402f66:	31 db                	xor    %ebx,%ebx
  402f68:	0f 1f 84 00 00 00 00 	nopl   0x0(%rax,%rax,1)
  402f6f:	00 
  402f70:	4c 89 fa             	mov    %r15,%rdx
  402f73:	4c 89 f6             	mov    %r14,%rsi
  402f76:	44 89 ef             	mov    %r13d,%edi
  402f79:	41 ff 14 dc          	callq  *(%r12,%rbx,8)
  402f7d:	48 83 c3 01          	add    $0x1,%rbx
  402f81:	48 39 dd             	cmp    %rbx,%rbp
  402f84:	75 ea                	jne    402f70 <__libc_csu_init+0x40>
  402f86:	48 83 c4 08          	add    $0x8,%rsp
  402f8a:	5b                   	pop    %rbx
  402f8b:	5d                   	pop    %rbp
  402f8c:	41 5c                	pop    %r12
  402f8e:	41 5d                	pop    %r13
  402f90:	41 5e                	pop    %r14
  402f92:	41 5f                	pop    %r15
  402f94:	c3                   	retq   
  402f95:	90                   	nop
  402f96:	66 2e 0f 1f 84 00 00 	nopw   %cs:0x0(%rax,%rax,1)
  402f9d:	00 00 00 

0000000000402fa0 <__libc_csu_fini>:
  402fa0:	f3 c3                	repz retq 

Disassembly of section .fini:

0000000000402fa4 <_fini>:
  402fa4:	48 83 ec 08          	sub    $0x8,%rsp
  402fa8:	48 83 c4 08          	add    $0x8,%rsp
  402fac:	c3                   	retq   
