
ctarget:     file format elf64-x86-64


Disassembly of section .init:

0000000000400c48 <_init>:
  400c48:	48 83 ec 08          	sub    $0x8,%rsp
  400c4c:	48 8b 05 a5 33 20 00 	mov    0x2033a5(%rip),%rax        # 603ff8 <_DYNAMIC+0x1d8>
  400c53:	48 85 c0             	test   %rax,%rax
  400c56:	74 02                	je     400c5a <_init+0x12>
  400c58:	ff d0                	callq  *%rax
  400c5a:	48 83 c4 08          	add    $0x8,%rsp
  400c5e:	c3                   	retq   

Disassembly of section .plt:

0000000000400c60 <strcasecmp@plt-0x10>:
  400c60:	ff 35 a2 33 20 00    	pushq  0x2033a2(%rip)        # 604008 <_GLOBAL_OFFSET_TABLE_+0x8>
  400c66:	ff 25 a4 33 20 00    	jmpq   *0x2033a4(%rip)        # 604010 <_GLOBAL_OFFSET_TABLE_+0x10>
  400c6c:	0f 1f 40 00          	nopl   0x0(%rax)

0000000000400c70 <strcasecmp@plt>:
  400c70:	ff 25 a2 33 20 00    	jmpq   *0x2033a2(%rip)        # 604018 <_GLOBAL_OFFSET_TABLE_+0x18>
  400c76:	68 00 00 00 00       	pushq  $0x0
  400c7b:	e9 e0 ff ff ff       	jmpq   400c60 <_init+0x18>

0000000000400c80 <__errno_location@plt>:
  400c80:	ff 25 9a 33 20 00    	jmpq   *0x20339a(%rip)        # 604020 <_GLOBAL_OFFSET_TABLE_+0x20>
  400c86:	68 01 00 00 00       	pushq  $0x1
  400c8b:	e9 d0 ff ff ff       	jmpq   400c60 <_init+0x18>

0000000000400c90 <srandom@plt>:
  400c90:	ff 25 92 33 20 00    	jmpq   *0x203392(%rip)        # 604028 <_GLOBAL_OFFSET_TABLE_+0x28>
  400c96:	68 02 00 00 00       	pushq  $0x2
  400c9b:	e9 c0 ff ff ff       	jmpq   400c60 <_init+0x18>

0000000000400ca0 <strncmp@plt>:
  400ca0:	ff 25 8a 33 20 00    	jmpq   *0x20338a(%rip)        # 604030 <_GLOBAL_OFFSET_TABLE_+0x30>
  400ca6:	68 03 00 00 00       	pushq  $0x3
  400cab:	e9 b0 ff ff ff       	jmpq   400c60 <_init+0x18>

0000000000400cb0 <strcpy@plt>:
  400cb0:	ff 25 82 33 20 00    	jmpq   *0x203382(%rip)        # 604038 <_GLOBAL_OFFSET_TABLE_+0x38>
  400cb6:	68 04 00 00 00       	pushq  $0x4
  400cbb:	e9 a0 ff ff ff       	jmpq   400c60 <_init+0x18>

0000000000400cc0 <puts@plt>:
  400cc0:	ff 25 7a 33 20 00    	jmpq   *0x20337a(%rip)        # 604040 <_GLOBAL_OFFSET_TABLE_+0x40>
  400cc6:	68 05 00 00 00       	pushq  $0x5
  400ccb:	e9 90 ff ff ff       	jmpq   400c60 <_init+0x18>

0000000000400cd0 <write@plt>:
  400cd0:	ff 25 72 33 20 00    	jmpq   *0x203372(%rip)        # 604048 <_GLOBAL_OFFSET_TABLE_+0x48>
  400cd6:	68 06 00 00 00       	pushq  $0x6
  400cdb:	e9 80 ff ff ff       	jmpq   400c60 <_init+0x18>

0000000000400ce0 <__stack_chk_fail@plt>:
  400ce0:	ff 25 6a 33 20 00    	jmpq   *0x20336a(%rip)        # 604050 <_GLOBAL_OFFSET_TABLE_+0x50>
  400ce6:	68 07 00 00 00       	pushq  $0x7
  400ceb:	e9 70 ff ff ff       	jmpq   400c60 <_init+0x18>

0000000000400cf0 <mmap@plt>:
  400cf0:	ff 25 62 33 20 00    	jmpq   *0x203362(%rip)        # 604058 <_GLOBAL_OFFSET_TABLE_+0x58>
  400cf6:	68 08 00 00 00       	pushq  $0x8
  400cfb:	e9 60 ff ff ff       	jmpq   400c60 <_init+0x18>

0000000000400d00 <memset@plt>:
  400d00:	ff 25 5a 33 20 00    	jmpq   *0x20335a(%rip)        # 604060 <_GLOBAL_OFFSET_TABLE_+0x60>
  400d06:	68 09 00 00 00       	pushq  $0x9
  400d0b:	e9 50 ff ff ff       	jmpq   400c60 <_init+0x18>

0000000000400d10 <alarm@plt>:
  400d10:	ff 25 52 33 20 00    	jmpq   *0x203352(%rip)        # 604068 <_GLOBAL_OFFSET_TABLE_+0x68>
  400d16:	68 0a 00 00 00       	pushq  $0xa
  400d1b:	e9 40 ff ff ff       	jmpq   400c60 <_init+0x18>

0000000000400d20 <close@plt>:
  400d20:	ff 25 4a 33 20 00    	jmpq   *0x20334a(%rip)        # 604070 <_GLOBAL_OFFSET_TABLE_+0x70>
  400d26:	68 0b 00 00 00       	pushq  $0xb
  400d2b:	e9 30 ff ff ff       	jmpq   400c60 <_init+0x18>

0000000000400d30 <read@plt>:
  400d30:	ff 25 42 33 20 00    	jmpq   *0x203342(%rip)        # 604078 <_GLOBAL_OFFSET_TABLE_+0x78>
  400d36:	68 0c 00 00 00       	pushq  $0xc
  400d3b:	e9 20 ff ff ff       	jmpq   400c60 <_init+0x18>

0000000000400d40 <signal@plt>:
  400d40:	ff 25 3a 33 20 00    	jmpq   *0x20333a(%rip)        # 604080 <_GLOBAL_OFFSET_TABLE_+0x80>
  400d46:	68 0d 00 00 00       	pushq  $0xd
  400d4b:	e9 10 ff ff ff       	jmpq   400c60 <_init+0x18>

0000000000400d50 <gethostbyname@plt>:
  400d50:	ff 25 32 33 20 00    	jmpq   *0x203332(%rip)        # 604088 <_GLOBAL_OFFSET_TABLE_+0x88>
  400d56:	68 0e 00 00 00       	pushq  $0xe
  400d5b:	e9 00 ff ff ff       	jmpq   400c60 <_init+0x18>

0000000000400d60 <__memmove_chk@plt>:
  400d60:	ff 25 2a 33 20 00    	jmpq   *0x20332a(%rip)        # 604090 <_GLOBAL_OFFSET_TABLE_+0x90>
  400d66:	68 0f 00 00 00       	pushq  $0xf
  400d6b:	e9 f0 fe ff ff       	jmpq   400c60 <_init+0x18>

0000000000400d70 <strtol@plt>:
  400d70:	ff 25 22 33 20 00    	jmpq   *0x203322(%rip)        # 604098 <_GLOBAL_OFFSET_TABLE_+0x98>
  400d76:	68 10 00 00 00       	pushq  $0x10
  400d7b:	e9 e0 fe ff ff       	jmpq   400c60 <_init+0x18>

0000000000400d80 <memcpy@plt>:
  400d80:	ff 25 1a 33 20 00    	jmpq   *0x20331a(%rip)        # 6040a0 <_GLOBAL_OFFSET_TABLE_+0xa0>
  400d86:	68 11 00 00 00       	pushq  $0x11
  400d8b:	e9 d0 fe ff ff       	jmpq   400c60 <_init+0x18>

0000000000400d90 <time@plt>:
  400d90:	ff 25 12 33 20 00    	jmpq   *0x203312(%rip)        # 6040a8 <_GLOBAL_OFFSET_TABLE_+0xa8>
  400d96:	68 12 00 00 00       	pushq  $0x12
  400d9b:	e9 c0 fe ff ff       	jmpq   400c60 <_init+0x18>

0000000000400da0 <random@plt>:
  400da0:	ff 25 0a 33 20 00    	jmpq   *0x20330a(%rip)        # 6040b0 <_GLOBAL_OFFSET_TABLE_+0xb0>
  400da6:	68 13 00 00 00       	pushq  $0x13
  400dab:	e9 b0 fe ff ff       	jmpq   400c60 <_init+0x18>

0000000000400db0 <_IO_getc@plt>:
  400db0:	ff 25 02 33 20 00    	jmpq   *0x203302(%rip)        # 6040b8 <_GLOBAL_OFFSET_TABLE_+0xb8>
  400db6:	68 14 00 00 00       	pushq  $0x14
  400dbb:	e9 a0 fe ff ff       	jmpq   400c60 <_init+0x18>

0000000000400dc0 <__isoc99_sscanf@plt>:
  400dc0:	ff 25 fa 32 20 00    	jmpq   *0x2032fa(%rip)        # 6040c0 <_GLOBAL_OFFSET_TABLE_+0xc0>
  400dc6:	68 15 00 00 00       	pushq  $0x15
  400dcb:	e9 90 fe ff ff       	jmpq   400c60 <_init+0x18>

0000000000400dd0 <munmap@plt>:
  400dd0:	ff 25 f2 32 20 00    	jmpq   *0x2032f2(%rip)        # 6040c8 <_GLOBAL_OFFSET_TABLE_+0xc8>
  400dd6:	68 16 00 00 00       	pushq  $0x16
  400ddb:	e9 80 fe ff ff       	jmpq   400c60 <_init+0x18>

0000000000400de0 <__printf_chk@plt>:
  400de0:	ff 25 ea 32 20 00    	jmpq   *0x2032ea(%rip)        # 6040d0 <_GLOBAL_OFFSET_TABLE_+0xd0>
  400de6:	68 17 00 00 00       	pushq  $0x17
  400deb:	e9 70 fe ff ff       	jmpq   400c60 <_init+0x18>

0000000000400df0 <fopen@plt>:
  400df0:	ff 25 e2 32 20 00    	jmpq   *0x2032e2(%rip)        # 6040d8 <_GLOBAL_OFFSET_TABLE_+0xd8>
  400df6:	68 18 00 00 00       	pushq  $0x18
  400dfb:	e9 60 fe ff ff       	jmpq   400c60 <_init+0x18>

0000000000400e00 <getopt@plt>:
  400e00:	ff 25 da 32 20 00    	jmpq   *0x2032da(%rip)        # 6040e0 <_GLOBAL_OFFSET_TABLE_+0xe0>
  400e06:	68 19 00 00 00       	pushq  $0x19
  400e0b:	e9 50 fe ff ff       	jmpq   400c60 <_init+0x18>

0000000000400e10 <strtoul@plt>:
  400e10:	ff 25 d2 32 20 00    	jmpq   *0x2032d2(%rip)        # 6040e8 <_GLOBAL_OFFSET_TABLE_+0xe8>
  400e16:	68 1a 00 00 00       	pushq  $0x1a
  400e1b:	e9 40 fe ff ff       	jmpq   400c60 <_init+0x18>

0000000000400e20 <gethostname@plt>:
  400e20:	ff 25 ca 32 20 00    	jmpq   *0x2032ca(%rip)        # 6040f0 <_GLOBAL_OFFSET_TABLE_+0xf0>
  400e26:	68 1b 00 00 00       	pushq  $0x1b
  400e2b:	e9 30 fe ff ff       	jmpq   400c60 <_init+0x18>

0000000000400e30 <exit@plt>:
  400e30:	ff 25 c2 32 20 00    	jmpq   *0x2032c2(%rip)        # 6040f8 <_GLOBAL_OFFSET_TABLE_+0xf8>
  400e36:	68 1c 00 00 00       	pushq  $0x1c
  400e3b:	e9 20 fe ff ff       	jmpq   400c60 <_init+0x18>

0000000000400e40 <connect@plt>:
  400e40:	ff 25 ba 32 20 00    	jmpq   *0x2032ba(%rip)        # 604100 <_GLOBAL_OFFSET_TABLE_+0x100>
  400e46:	68 1d 00 00 00       	pushq  $0x1d
  400e4b:	e9 10 fe ff ff       	jmpq   400c60 <_init+0x18>

0000000000400e50 <__fprintf_chk@plt>:
  400e50:	ff 25 b2 32 20 00    	jmpq   *0x2032b2(%rip)        # 604108 <_GLOBAL_OFFSET_TABLE_+0x108>
  400e56:	68 1e 00 00 00       	pushq  $0x1e
  400e5b:	e9 00 fe ff ff       	jmpq   400c60 <_init+0x18>

0000000000400e60 <__sprintf_chk@plt>:
  400e60:	ff 25 aa 32 20 00    	jmpq   *0x2032aa(%rip)        # 604110 <_GLOBAL_OFFSET_TABLE_+0x110>
  400e66:	68 1f 00 00 00       	pushq  $0x1f
  400e6b:	e9 f0 fd ff ff       	jmpq   400c60 <_init+0x18>

0000000000400e70 <socket@plt>:
  400e70:	ff 25 a2 32 20 00    	jmpq   *0x2032a2(%rip)        # 604118 <_GLOBAL_OFFSET_TABLE_+0x118>
  400e76:	68 20 00 00 00       	pushq  $0x20
  400e7b:	e9 e0 fd ff ff       	jmpq   400c60 <_init+0x18>

Disassembly of section .text:

0000000000400e80 <_start>:
  400e80:	31 ed                	xor    %ebp,%ebp
  400e82:	49 89 d1             	mov    %rdx,%r9
  400e85:	5e                   	pop    %rsi
  400e86:	48 89 e2             	mov    %rsp,%rdx
  400e89:	48 83 e4 f0          	and    $0xfffffffffffffff0,%rsp
  400e8d:	50                   	push   %rax
  400e8e:	54                   	push   %rsp
  400e8f:	49 c7 c0 f0 2e 40 00 	mov    $0x402ef0,%r8
  400e96:	48 c7 c1 80 2e 40 00 	mov    $0x402e80,%rcx
  400e9d:	48 c7 c7 60 11 40 00 	mov    $0x401160,%rdi
  400ea4:	ff 15 46 31 20 00    	callq  *0x203146(%rip)        # 603ff0 <_DYNAMIC+0x1d0>
  400eaa:	f4                   	hlt    
  400eab:	0f 1f 44 00 00       	nopl   0x0(%rax,%rax,1)

0000000000400eb0 <_dl_relocate_static_pie>:
  400eb0:	f3 c3                	repz retq 
  400eb2:	66 2e 0f 1f 84 00 00 	nopw   %cs:0x0(%rax,%rax,1)
  400eb9:	00 00 00 
  400ebc:	0f 1f 40 00          	nopl   0x0(%rax)

0000000000400ec0 <deregister_tm_clones>:
  400ec0:	55                   	push   %rbp
  400ec1:	b8 90 44 60 00       	mov    $0x604490,%eax
  400ec6:	48 3d 90 44 60 00    	cmp    $0x604490,%rax
  400ecc:	48 89 e5             	mov    %rsp,%rbp
  400ecf:	74 17                	je     400ee8 <deregister_tm_clones+0x28>
  400ed1:	b8 00 00 00 00       	mov    $0x0,%eax
  400ed6:	48 85 c0             	test   %rax,%rax
  400ed9:	74 0d                	je     400ee8 <deregister_tm_clones+0x28>
  400edb:	5d                   	pop    %rbp
  400edc:	bf 90 44 60 00       	mov    $0x604490,%edi
  400ee1:	ff e0                	jmpq   *%rax
  400ee3:	0f 1f 44 00 00       	nopl   0x0(%rax,%rax,1)
  400ee8:	5d                   	pop    %rbp
  400ee9:	c3                   	retq   
  400eea:	66 0f 1f 44 00 00    	nopw   0x0(%rax,%rax,1)

0000000000400ef0 <register_tm_clones>:
  400ef0:	be 90 44 60 00       	mov    $0x604490,%esi
  400ef5:	55                   	push   %rbp
  400ef6:	48 81 ee 90 44 60 00 	sub    $0x604490,%rsi
  400efd:	48 89 e5             	mov    %rsp,%rbp
  400f00:	48 c1 fe 03          	sar    $0x3,%rsi
  400f04:	48 89 f0             	mov    %rsi,%rax
  400f07:	48 c1 e8 3f          	shr    $0x3f,%rax
  400f0b:	48 01 c6             	add    %rax,%rsi
  400f0e:	48 d1 fe             	sar    %rsi
  400f11:	74 15                	je     400f28 <register_tm_clones+0x38>
  400f13:	b8 00 00 00 00       	mov    $0x0,%eax
  400f18:	48 85 c0             	test   %rax,%rax
  400f1b:	74 0b                	je     400f28 <register_tm_clones+0x38>
  400f1d:	5d                   	pop    %rbp
  400f1e:	bf 90 44 60 00       	mov    $0x604490,%edi
  400f23:	ff e0                	jmpq   *%rax
  400f25:	0f 1f 00             	nopl   (%rax)
  400f28:	5d                   	pop    %rbp
  400f29:	c3                   	retq   
  400f2a:	66 0f 1f 44 00 00    	nopw   0x0(%rax,%rax,1)

0000000000400f30 <__do_global_dtors_aux>:
  400f30:	80 3d 91 35 20 00 00 	cmpb   $0x0,0x203591(%rip)        # 6044c8 <completed.7697>
  400f37:	75 17                	jne    400f50 <__do_global_dtors_aux+0x20>
  400f39:	55                   	push   %rbp
  400f3a:	48 89 e5             	mov    %rsp,%rbp
  400f3d:	e8 7e ff ff ff       	callq  400ec0 <deregister_tm_clones>
  400f42:	c6 05 7f 35 20 00 01 	movb   $0x1,0x20357f(%rip)        # 6044c8 <completed.7697>
  400f49:	5d                   	pop    %rbp
  400f4a:	c3                   	retq   
  400f4b:	0f 1f 44 00 00       	nopl   0x0(%rax,%rax,1)
  400f50:	f3 c3                	repz retq 
  400f52:	0f 1f 40 00          	nopl   0x0(%rax)
  400f56:	66 2e 0f 1f 84 00 00 	nopw   %cs:0x0(%rax,%rax,1)
  400f5d:	00 00 00 

0000000000400f60 <frame_dummy>:
  400f60:	55                   	push   %rbp
  400f61:	48 89 e5             	mov    %rsp,%rbp
  400f64:	5d                   	pop    %rbp
  400f65:	eb 89                	jmp    400ef0 <register_tm_clones>

0000000000400f67 <usage>:
  400f67:	48 83 ec 08          	sub    $0x8,%rsp
  400f6b:	48 89 fa             	mov    %rdi,%rdx
  400f6e:	83 3d 93 35 20 00 00 	cmpl   $0x0,0x203593(%rip)        # 604508 <is_checker>
  400f75:	74 50                	je     400fc7 <usage+0x60>
  400f77:	48 8d 35 8a 1f 00 00 	lea    0x1f8a(%rip),%rsi        # 402f08 <_IO_stdin_used+0x8>
  400f7e:	bf 01 00 00 00       	mov    $0x1,%edi
  400f83:	b8 00 00 00 00       	mov    $0x0,%eax
  400f88:	e8 53 fe ff ff       	callq  400de0 <__printf_chk@plt>
  400f8d:	48 8d 3d ac 1f 00 00 	lea    0x1fac(%rip),%rdi        # 402f40 <_IO_stdin_used+0x40>
  400f94:	e8 27 fd ff ff       	callq  400cc0 <puts@plt>
  400f99:	48 8d 3d d8 20 00 00 	lea    0x20d8(%rip),%rdi        # 403078 <_IO_stdin_used+0x178>
  400fa0:	e8 1b fd ff ff       	callq  400cc0 <puts@plt>
  400fa5:	48 8d 3d bc 1f 00 00 	lea    0x1fbc(%rip),%rdi        # 402f68 <_IO_stdin_used+0x68>
  400fac:	e8 0f fd ff ff       	callq  400cc0 <puts@plt>
  400fb1:	48 8d 3d da 20 00 00 	lea    0x20da(%rip),%rdi        # 403092 <_IO_stdin_used+0x192>
  400fb8:	e8 03 fd ff ff       	callq  400cc0 <puts@plt>
  400fbd:	bf 00 00 00 00       	mov    $0x0,%edi
  400fc2:	e8 69 fe ff ff       	callq  400e30 <exit@plt>
  400fc7:	48 8d 35 e0 20 00 00 	lea    0x20e0(%rip),%rsi        # 4030ae <_IO_stdin_used+0x1ae>
  400fce:	bf 01 00 00 00       	mov    $0x1,%edi
  400fd3:	b8 00 00 00 00       	mov    $0x0,%eax
  400fd8:	e8 03 fe ff ff       	callq  400de0 <__printf_chk@plt>
  400fdd:	48 8d 3d ac 1f 00 00 	lea    0x1fac(%rip),%rdi        # 402f90 <_IO_stdin_used+0x90>
  400fe4:	e8 d7 fc ff ff       	callq  400cc0 <puts@plt>
  400fe9:	48 8d 3d c8 1f 00 00 	lea    0x1fc8(%rip),%rdi        # 402fb8 <_IO_stdin_used+0xb8>
  400ff0:	e8 cb fc ff ff       	callq  400cc0 <puts@plt>
  400ff5:	48 8d 3d d0 20 00 00 	lea    0x20d0(%rip),%rdi        # 4030cc <_IO_stdin_used+0x1cc>
  400ffc:	e8 bf fc ff ff       	callq  400cc0 <puts@plt>
  401001:	eb ba                	jmp    400fbd <usage+0x56>

0000000000401003 <initialize_target>:
  401003:	55                   	push   %rbp
  401004:	53                   	push   %rbx
  401005:	48 81 ec 18 21 00 00 	sub    $0x2118,%rsp
  40100c:	89 f5                	mov    %esi,%ebp
  40100e:	64 48 8b 04 25 28 00 	mov    %fs:0x28,%rax
  401015:	00 00 
  401017:	48 89 84 24 08 21 00 	mov    %rax,0x2108(%rsp)
  40101e:	00 
  40101f:	31 c0                	xor    %eax,%eax
  401021:	89 3d d1 34 20 00    	mov    %edi,0x2034d1(%rip)        # 6044f8 <check_level>
  401027:	8b 3d 03 31 20 00    	mov    0x203103(%rip),%edi        # 604130 <target_id>
  40102d:	e8 20 1e 00 00       	callq  402e52 <gencookie>
  401032:	89 05 cc 34 20 00    	mov    %eax,0x2034cc(%rip)        # 604504 <cookie>
  401038:	89 c7                	mov    %eax,%edi
  40103a:	e8 13 1e 00 00       	callq  402e52 <gencookie>
  40103f:	89 05 bb 34 20 00    	mov    %eax,0x2034bb(%rip)        # 604500 <authkey>
  401045:	8b 05 e5 30 20 00    	mov    0x2030e5(%rip),%eax        # 604130 <target_id>
  40104b:	8d 78 01             	lea    0x1(%rax),%edi
  40104e:	e8 3d fc ff ff       	callq  400c90 <srandom@plt>
  401053:	e8 48 fd ff ff       	callq  400da0 <random@plt>
  401058:	89 c7                	mov    %eax,%edi
  40105a:	e8 ec 02 00 00       	callq  40134b <scramble>
  40105f:	89 c3                	mov    %eax,%ebx
  401061:	85 ed                	test   %ebp,%ebp
  401063:	75 54                	jne    4010b9 <initialize_target+0xb6>
  401065:	b8 00 00 00 00       	mov    $0x0,%eax
  40106a:	01 d8                	add    %ebx,%eax
  40106c:	0f b7 c0             	movzwl %ax,%eax
  40106f:	8d 04 c5 00 01 00 00 	lea    0x100(,%rax,8),%eax
  401076:	89 c0                	mov    %eax,%eax
  401078:	48 89 05 01 34 20 00 	mov    %rax,0x203401(%rip)        # 604480 <buf_offset>
  40107f:	c6 05 a2 40 20 00 63 	movb   $0x63,0x2040a2(%rip)        # 605128 <target_prefix>
  401086:	83 3d fb 33 20 00 00 	cmpl   $0x0,0x2033fb(%rip)        # 604488 <notify>
  40108d:	74 09                	je     401098 <initialize_target+0x95>
  40108f:	83 3d 72 34 20 00 00 	cmpl   $0x0,0x203472(%rip)        # 604508 <is_checker>
  401096:	74 39                	je     4010d1 <initialize_target+0xce>
  401098:	48 8b 84 24 08 21 00 	mov    0x2108(%rsp),%rax
  40109f:	00 
  4010a0:	64 48 33 04 25 28 00 	xor    %fs:0x28,%rax
  4010a7:	00 00 
  4010a9:	0f 85 ac 00 00 00    	jne    40115b <initialize_target+0x158>
  4010af:	48 81 c4 18 21 00 00 	add    $0x2118,%rsp
  4010b6:	5b                   	pop    %rbx
  4010b7:	5d                   	pop    %rbp
  4010b8:	c3                   	retq   
  4010b9:	bf 00 00 00 00       	mov    $0x0,%edi
  4010be:	e8 cd fc ff ff       	callq  400d90 <time@plt>
  4010c3:	89 c7                	mov    %eax,%edi
  4010c5:	e8 c6 fb ff ff       	callq  400c90 <srandom@plt>
  4010ca:	e8 d1 fc ff ff       	callq  400da0 <random@plt>
  4010cf:	eb 99                	jmp    40106a <initialize_target+0x67>
  4010d1:	48 89 e7             	mov    %rsp,%rdi
  4010d4:	be 00 01 00 00       	mov    $0x100,%esi
  4010d9:	e8 42 fd ff ff       	callq  400e20 <gethostname@plt>
  4010de:	89 c3                	mov    %eax,%ebx
  4010e0:	85 c0                	test   %eax,%eax
  4010e2:	75 24                	jne    401108 <initialize_target+0x105>
  4010e4:	48 63 c3             	movslq %ebx,%rax
  4010e7:	48 8d 15 72 30 20 00 	lea    0x203072(%rip),%rdx        # 604160 <host_table>
  4010ee:	48 8b 3c c2          	mov    (%rdx,%rax,8),%rdi
  4010f2:	48 85 ff             	test   %rdi,%rdi
  4010f5:	74 27                	je     40111e <initialize_target+0x11b>
  4010f7:	48 89 e6             	mov    %rsp,%rsi
  4010fa:	e8 71 fb ff ff       	callq  400c70 <strcasecmp@plt>
  4010ff:	85 c0                	test   %eax,%eax
  401101:	74 1b                	je     40111e <initialize_target+0x11b>
  401103:	83 c3 01             	add    $0x1,%ebx
  401106:	eb dc                	jmp    4010e4 <initialize_target+0xe1>
  401108:	48 8d 3d d9 1e 00 00 	lea    0x1ed9(%rip),%rdi        # 402fe8 <_IO_stdin_used+0xe8>
  40110f:	e8 ac fb ff ff       	callq  400cc0 <puts@plt>
  401114:	bf 08 00 00 00       	mov    $0x8,%edi
  401119:	e8 12 fd ff ff       	callq  400e30 <exit@plt>
  40111e:	48 8d bc 24 00 01 00 	lea    0x100(%rsp),%rdi
  401125:	00 
  401126:	e8 57 1a 00 00       	callq  402b82 <init_driver>
  40112b:	85 c0                	test   %eax,%eax
  40112d:	0f 89 65 ff ff ff    	jns    401098 <initialize_target+0x95>
  401133:	48 8d 94 24 00 01 00 	lea    0x100(%rsp),%rdx
  40113a:	00 
  40113b:	48 8d 35 de 1e 00 00 	lea    0x1ede(%rip),%rsi        # 403020 <_IO_stdin_used+0x120>
  401142:	bf 01 00 00 00       	mov    $0x1,%edi
  401147:	b8 00 00 00 00       	mov    $0x0,%eax
  40114c:	e8 8f fc ff ff       	callq  400de0 <__printf_chk@plt>
  401151:	bf 08 00 00 00       	mov    $0x8,%edi
  401156:	e8 d5 fc ff ff       	callq  400e30 <exit@plt>
  40115b:	e8 80 fb ff ff       	callq  400ce0 <__stack_chk_fail@plt>

0000000000401160 <main>:
  401160:	41 56                	push   %r14
  401162:	41 55                	push   %r13
  401164:	41 54                	push   %r12
  401166:	55                   	push   %rbp
  401167:	53                   	push   %rbx
  401168:	41 89 fc             	mov    %edi,%r12d
  40116b:	48 89 f3             	mov    %rsi,%rbx
  40116e:	48 c7 c6 89 1e 40 00 	mov    $0x401e89,%rsi
  401175:	bf 0b 00 00 00       	mov    $0xb,%edi
  40117a:	e8 c1 fb ff ff       	callq  400d40 <signal@plt>
  40117f:	48 c7 c6 35 1e 40 00 	mov    $0x401e35,%rsi
  401186:	bf 07 00 00 00       	mov    $0x7,%edi
  40118b:	e8 b0 fb ff ff       	callq  400d40 <signal@plt>
  401190:	48 c7 c6 dd 1e 40 00 	mov    $0x401edd,%rsi
  401197:	bf 04 00 00 00       	mov    $0x4,%edi
  40119c:	e8 9f fb ff ff       	callq  400d40 <signal@plt>
  4011a1:	83 3d 60 33 20 00 00 	cmpl   $0x0,0x203360(%rip)        # 604508 <is_checker>
  4011a8:	75 26                	jne    4011d0 <main+0x70>
  4011aa:	48 8d 2d 34 1f 00 00 	lea    0x1f34(%rip),%rbp        # 4030e5 <_IO_stdin_used+0x1e5>
  4011b1:	48 8b 05 e8 32 20 00 	mov    0x2032e8(%rip),%rax        # 6044a0 <stdin@@GLIBC_2.2.5>
  4011b8:	48 89 05 31 33 20 00 	mov    %rax,0x203331(%rip)        # 6044f0 <infile>
  4011bf:	41 bd 00 00 00 00    	mov    $0x0,%r13d
  4011c5:	41 be 00 00 00 00    	mov    $0x0,%r14d
  4011cb:	e9 8d 00 00 00       	jmpq   40125d <main+0xfd>
  4011d0:	48 c7 c6 31 1f 40 00 	mov    $0x401f31,%rsi
  4011d7:	bf 0e 00 00 00       	mov    $0xe,%edi
  4011dc:	e8 5f fb ff ff       	callq  400d40 <signal@plt>
  4011e1:	bf 05 00 00 00       	mov    $0x5,%edi
  4011e6:	e8 25 fb ff ff       	callq  400d10 <alarm@plt>
  4011eb:	48 8d 2d f8 1e 00 00 	lea    0x1ef8(%rip),%rbp        # 4030ea <_IO_stdin_used+0x1ea>
  4011f2:	eb bd                	jmp    4011b1 <main+0x51>
  4011f4:	48 8b 3b             	mov    (%rbx),%rdi
  4011f7:	e8 6b fd ff ff       	callq  400f67 <usage>
  4011fc:	48 8d 35 7c 21 00 00 	lea    0x217c(%rip),%rsi        # 40337f <_IO_stdin_used+0x47f>
  401203:	48 8b 3d 9e 32 20 00 	mov    0x20329e(%rip),%rdi        # 6044a8 <optarg@@GLIBC_2.2.5>
  40120a:	e8 e1 fb ff ff       	callq  400df0 <fopen@plt>
  40120f:	48 89 05 da 32 20 00 	mov    %rax,0x2032da(%rip)        # 6044f0 <infile>
  401216:	48 85 c0             	test   %rax,%rax
  401219:	75 42                	jne    40125d <main+0xfd>
  40121b:	48 8b 0d 86 32 20 00 	mov    0x203286(%rip),%rcx        # 6044a8 <optarg@@GLIBC_2.2.5>
  401222:	48 8d 15 c9 1e 00 00 	lea    0x1ec9(%rip),%rdx        # 4030f2 <_IO_stdin_used+0x1f2>
  401229:	be 01 00 00 00       	mov    $0x1,%esi
  40122e:	48 8b 3d 8b 32 20 00 	mov    0x20328b(%rip),%rdi        # 6044c0 <stderr@@GLIBC_2.2.5>
  401235:	e8 16 fc ff ff       	callq  400e50 <__fprintf_chk@plt>
  40123a:	b8 01 00 00 00       	mov    $0x1,%eax
  40123f:	e9 d9 00 00 00       	jmpq   40131d <main+0x1bd>
  401244:	ba 10 00 00 00       	mov    $0x10,%edx
  401249:	be 00 00 00 00       	mov    $0x0,%esi
  40124e:	48 8b 3d 53 32 20 00 	mov    0x203253(%rip),%rdi        # 6044a8 <optarg@@GLIBC_2.2.5>
  401255:	e8 b6 fb ff ff       	callq  400e10 <strtoul@plt>
  40125a:	41 89 c6             	mov    %eax,%r14d
  40125d:	48 89 ea             	mov    %rbp,%rdx
  401260:	48 89 de             	mov    %rbx,%rsi
  401263:	44 89 e7             	mov    %r12d,%edi
  401266:	e8 95 fb ff ff       	callq  400e00 <getopt@plt>
  40126b:	3c ff                	cmp    $0xff,%al
  40126d:	74 62                	je     4012d1 <main+0x171>
  40126f:	0f be d0             	movsbl %al,%edx
  401272:	83 e8 61             	sub    $0x61,%eax
  401275:	3c 10                	cmp    $0x10,%al
  401277:	77 3a                	ja     4012b3 <main+0x153>
  401279:	0f b6 c0             	movzbl %al,%eax
  40127c:	48 8d 0d ad 1e 00 00 	lea    0x1ead(%rip),%rcx        # 403130 <_IO_stdin_used+0x230>
  401283:	48 63 04 81          	movslq (%rcx,%rax,4),%rax
  401287:	48 01 c8             	add    %rcx,%rax
  40128a:	ff e0                	jmpq   *%rax
  40128c:	ba 0a 00 00 00       	mov    $0xa,%edx
  401291:	be 00 00 00 00       	mov    $0x0,%esi
  401296:	48 8b 3d 0b 32 20 00 	mov    0x20320b(%rip),%rdi        # 6044a8 <optarg@@GLIBC_2.2.5>
  40129d:	e8 ce fa ff ff       	callq  400d70 <strtol@plt>
  4012a2:	41 89 c5             	mov    %eax,%r13d
  4012a5:	eb b6                	jmp    40125d <main+0xfd>
  4012a7:	c7 05 d7 31 20 00 00 	movl   $0x0,0x2031d7(%rip)        # 604488 <notify>
  4012ae:	00 00 00 
  4012b1:	eb aa                	jmp    40125d <main+0xfd>
  4012b3:	48 8d 35 55 1e 00 00 	lea    0x1e55(%rip),%rsi        # 40310f <_IO_stdin_used+0x20f>
  4012ba:	bf 01 00 00 00       	mov    $0x1,%edi
  4012bf:	b8 00 00 00 00       	mov    $0x0,%eax
  4012c4:	e8 17 fb ff ff       	callq  400de0 <__printf_chk@plt>
  4012c9:	48 8b 3b             	mov    (%rbx),%rdi
  4012cc:	e8 96 fc ff ff       	callq  400f67 <usage>
  4012d1:	be 00 00 00 00       	mov    $0x0,%esi
  4012d6:	44 89 ef             	mov    %r13d,%edi
  4012d9:	e8 25 fd ff ff       	callq  401003 <initialize_target>
  4012de:	83 3d 23 32 20 00 00 	cmpl   $0x0,0x203223(%rip)        # 604508 <is_checker>
  4012e5:	74 09                	je     4012f0 <main+0x190>
  4012e7:	44 39 35 12 32 20 00 	cmp    %r14d,0x203212(%rip)        # 604500 <authkey>
  4012ee:	75 36                	jne    401326 <main+0x1c6>
  4012f0:	8b 15 0e 32 20 00    	mov    0x20320e(%rip),%edx        # 604504 <cookie>
  4012f6:	48 8d 35 25 1e 00 00 	lea    0x1e25(%rip),%rsi        # 403122 <_IO_stdin_used+0x222>
  4012fd:	bf 01 00 00 00       	mov    $0x1,%edi
  401302:	b8 00 00 00 00       	mov    $0x0,%eax
  401307:	e8 d4 fa ff ff       	callq  400de0 <__printf_chk@plt>
  40130c:	48 8b 3d 6d 31 20 00 	mov    0x20316d(%rip),%rdi        # 604480 <buf_offset>
  401313:	e8 25 0d 00 00       	callq  40203d <stable_launch>
  401318:	b8 00 00 00 00       	mov    $0x0,%eax
  40131d:	5b                   	pop    %rbx
  40131e:	5d                   	pop    %rbp
  40131f:	41 5c                	pop    %r12
  401321:	41 5d                	pop    %r13
  401323:	41 5e                	pop    %r14
  401325:	c3                   	retq   
  401326:	44 89 f2             	mov    %r14d,%edx
  401329:	48 8d 35 18 1d 00 00 	lea    0x1d18(%rip),%rsi        # 403048 <_IO_stdin_used+0x148>
  401330:	bf 01 00 00 00       	mov    $0x1,%edi
  401335:	b8 00 00 00 00       	mov    $0x0,%eax
  40133a:	e8 a1 fa ff ff       	callq  400de0 <__printf_chk@plt>
  40133f:	b8 00 00 00 00       	mov    $0x0,%eax
  401344:	e8 4c 07 00 00       	callq  401a95 <check_fail>
  401349:	eb a5                	jmp    4012f0 <main+0x190>

000000000040134b <scramble>:
  40134b:	48 83 ec 38          	sub    $0x38,%rsp
  40134f:	64 48 8b 04 25 28 00 	mov    %fs:0x28,%rax
  401356:	00 00 
  401358:	48 89 44 24 28       	mov    %rax,0x28(%rsp)
  40135d:	31 c0                	xor    %eax,%eax
  40135f:	eb 10                	jmp    401371 <scramble+0x26>
  401361:	69 d0 4b 82 00 00    	imul   $0x824b,%eax,%edx
  401367:	01 fa                	add    %edi,%edx
  401369:	89 c1                	mov    %eax,%ecx
  40136b:	89 14 8c             	mov    %edx,(%rsp,%rcx,4)
  40136e:	83 c0 01             	add    $0x1,%eax
  401371:	83 f8 09             	cmp    $0x9,%eax
  401374:	76 eb                	jbe    401361 <scramble+0x16>
  401376:	8b 44 24 1c          	mov    0x1c(%rsp),%eax
  40137a:	69 c0 d5 d0 00 00    	imul   $0xd0d5,%eax,%eax
  401380:	89 44 24 1c          	mov    %eax,0x1c(%rsp)
  401384:	8b 44 24 14          	mov    0x14(%rsp),%eax
  401388:	69 c0 e8 88 00 00    	imul   $0x88e8,%eax,%eax
  40138e:	89 44 24 14          	mov    %eax,0x14(%rsp)
  401392:	8b 44 24 24          	mov    0x24(%rsp),%eax
  401396:	69 c0 d2 67 00 00    	imul   $0x67d2,%eax,%eax
  40139c:	89 44 24 24          	mov    %eax,0x24(%rsp)
  4013a0:	8b 44 24 08          	mov    0x8(%rsp),%eax
  4013a4:	69 c0 52 bd 00 00    	imul   $0xbd52,%eax,%eax
  4013aa:	89 44 24 08          	mov    %eax,0x8(%rsp)
  4013ae:	8b 44 24 08          	mov    0x8(%rsp),%eax
  4013b2:	69 c0 aa 5e 00 00    	imul   $0x5eaa,%eax,%eax
  4013b8:	89 44 24 08          	mov    %eax,0x8(%rsp)
  4013bc:	8b 44 24 18          	mov    0x18(%rsp),%eax
  4013c0:	69 c0 ec 53 00 00    	imul   $0x53ec,%eax,%eax
  4013c6:	89 44 24 18          	mov    %eax,0x18(%rsp)
  4013ca:	8b 44 24 04          	mov    0x4(%rsp),%eax
  4013ce:	69 c0 eb 72 00 00    	imul   $0x72eb,%eax,%eax
  4013d4:	89 44 24 04          	mov    %eax,0x4(%rsp)
  4013d8:	8b 04 24             	mov    (%rsp),%eax
  4013db:	69 c0 14 84 00 00    	imul   $0x8414,%eax,%eax
  4013e1:	89 04 24             	mov    %eax,(%rsp)
  4013e4:	8b 44 24 18          	mov    0x18(%rsp),%eax
  4013e8:	69 c0 b5 69 00 00    	imul   $0x69b5,%eax,%eax
  4013ee:	89 44 24 18          	mov    %eax,0x18(%rsp)
  4013f2:	8b 44 24 18          	mov    0x18(%rsp),%eax
  4013f6:	69 c0 81 2a 00 00    	imul   $0x2a81,%eax,%eax
  4013fc:	89 44 24 18          	mov    %eax,0x18(%rsp)
  401400:	8b 44 24 14          	mov    0x14(%rsp),%eax
  401404:	69 c0 b0 40 00 00    	imul   $0x40b0,%eax,%eax
  40140a:	89 44 24 14          	mov    %eax,0x14(%rsp)
  40140e:	8b 44 24 04          	mov    0x4(%rsp),%eax
  401412:	69 c0 9f c0 00 00    	imul   $0xc09f,%eax,%eax
  401418:	89 44 24 04          	mov    %eax,0x4(%rsp)
  40141c:	8b 04 24             	mov    (%rsp),%eax
  40141f:	69 c0 31 bd 00 00    	imul   $0xbd31,%eax,%eax
  401425:	89 04 24             	mov    %eax,(%rsp)
  401428:	8b 44 24 20          	mov    0x20(%rsp),%eax
  40142c:	69 c0 70 26 00 00    	imul   $0x2670,%eax,%eax
  401432:	89 44 24 20          	mov    %eax,0x20(%rsp)
  401436:	8b 44 24 20          	mov    0x20(%rsp),%eax
  40143a:	69 c0 aa f5 00 00    	imul   $0xf5aa,%eax,%eax
  401440:	89 44 24 20          	mov    %eax,0x20(%rsp)
  401444:	8b 44 24 04          	mov    0x4(%rsp),%eax
  401448:	69 c0 b1 a9 00 00    	imul   $0xa9b1,%eax,%eax
  40144e:	89 44 24 04          	mov    %eax,0x4(%rsp)
  401452:	8b 44 24 14          	mov    0x14(%rsp),%eax
  401456:	69 c0 3f ef 00 00    	imul   $0xef3f,%eax,%eax
  40145c:	89 44 24 14          	mov    %eax,0x14(%rsp)
  401460:	8b 44 24 10          	mov    0x10(%rsp),%eax
  401464:	69 c0 8e e3 00 00    	imul   $0xe38e,%eax,%eax
  40146a:	89 44 24 10          	mov    %eax,0x10(%rsp)
  40146e:	8b 44 24 18          	mov    0x18(%rsp),%eax
  401472:	69 c0 a2 5f 00 00    	imul   $0x5fa2,%eax,%eax
  401478:	89 44 24 18          	mov    %eax,0x18(%rsp)
  40147c:	8b 44 24 18          	mov    0x18(%rsp),%eax
  401480:	69 c0 20 16 00 00    	imul   $0x1620,%eax,%eax
  401486:	89 44 24 18          	mov    %eax,0x18(%rsp)
  40148a:	8b 44 24 04          	mov    0x4(%rsp),%eax
  40148e:	69 c0 df 64 00 00    	imul   $0x64df,%eax,%eax
  401494:	89 44 24 04          	mov    %eax,0x4(%rsp)
  401498:	8b 44 24 10          	mov    0x10(%rsp),%eax
  40149c:	69 c0 0b 64 00 00    	imul   $0x640b,%eax,%eax
  4014a2:	89 44 24 10          	mov    %eax,0x10(%rsp)
  4014a6:	8b 44 24 0c          	mov    0xc(%rsp),%eax
  4014aa:	69 c0 de 21 00 00    	imul   $0x21de,%eax,%eax
  4014b0:	89 44 24 0c          	mov    %eax,0xc(%rsp)
  4014b4:	8b 44 24 0c          	mov    0xc(%rsp),%eax
  4014b8:	69 c0 88 82 00 00    	imul   $0x8288,%eax,%eax
  4014be:	89 44 24 0c          	mov    %eax,0xc(%rsp)
  4014c2:	8b 44 24 10          	mov    0x10(%rsp),%eax
  4014c6:	69 c0 16 9c 00 00    	imul   $0x9c16,%eax,%eax
  4014cc:	89 44 24 10          	mov    %eax,0x10(%rsp)
  4014d0:	8b 44 24 10          	mov    0x10(%rsp),%eax
  4014d4:	69 c0 24 30 00 00    	imul   $0x3024,%eax,%eax
  4014da:	89 44 24 10          	mov    %eax,0x10(%rsp)
  4014de:	8b 44 24 24          	mov    0x24(%rsp),%eax
  4014e2:	69 c0 3d 20 00 00    	imul   $0x203d,%eax,%eax
  4014e8:	89 44 24 24          	mov    %eax,0x24(%rsp)
  4014ec:	8b 44 24 08          	mov    0x8(%rsp),%eax
  4014f0:	69 c0 8d a2 00 00    	imul   $0xa28d,%eax,%eax
  4014f6:	89 44 24 08          	mov    %eax,0x8(%rsp)
  4014fa:	8b 44 24 10          	mov    0x10(%rsp),%eax
  4014fe:	69 c0 78 a0 00 00    	imul   $0xa078,%eax,%eax
  401504:	89 44 24 10          	mov    %eax,0x10(%rsp)
  401508:	8b 04 24             	mov    (%rsp),%eax
  40150b:	69 c0 d4 04 00 00    	imul   $0x4d4,%eax,%eax
  401511:	89 04 24             	mov    %eax,(%rsp)
  401514:	8b 44 24 04          	mov    0x4(%rsp),%eax
  401518:	69 c0 f6 95 00 00    	imul   $0x95f6,%eax,%eax
  40151e:	89 44 24 04          	mov    %eax,0x4(%rsp)
  401522:	8b 44 24 08          	mov    0x8(%rsp),%eax
  401526:	69 c0 a1 5c 00 00    	imul   $0x5ca1,%eax,%eax
  40152c:	89 44 24 08          	mov    %eax,0x8(%rsp)
  401530:	8b 44 24 1c          	mov    0x1c(%rsp),%eax
  401534:	69 c0 1f e1 00 00    	imul   $0xe11f,%eax,%eax
  40153a:	89 44 24 1c          	mov    %eax,0x1c(%rsp)
  40153e:	8b 44 24 0c          	mov    0xc(%rsp),%eax
  401542:	69 c0 48 dc 00 00    	imul   $0xdc48,%eax,%eax
  401548:	89 44 24 0c          	mov    %eax,0xc(%rsp)
  40154c:	8b 44 24 10          	mov    0x10(%rsp),%eax
  401550:	69 c0 0f e1 00 00    	imul   $0xe10f,%eax,%eax
  401556:	89 44 24 10          	mov    %eax,0x10(%rsp)
  40155a:	8b 44 24 18          	mov    0x18(%rsp),%eax
  40155e:	69 c0 0e ff 00 00    	imul   $0xff0e,%eax,%eax
  401564:	89 44 24 18          	mov    %eax,0x18(%rsp)
  401568:	8b 44 24 1c          	mov    0x1c(%rsp),%eax
  40156c:	69 c0 75 5c 00 00    	imul   $0x5c75,%eax,%eax
  401572:	89 44 24 1c          	mov    %eax,0x1c(%rsp)
  401576:	8b 44 24 08          	mov    0x8(%rsp),%eax
  40157a:	69 c0 b8 1d 00 00    	imul   $0x1db8,%eax,%eax
  401580:	89 44 24 08          	mov    %eax,0x8(%rsp)
  401584:	8b 44 24 1c          	mov    0x1c(%rsp),%eax
  401588:	69 c0 38 4b 00 00    	imul   $0x4b38,%eax,%eax
  40158e:	89 44 24 1c          	mov    %eax,0x1c(%rsp)
  401592:	8b 44 24 08          	mov    0x8(%rsp),%eax
  401596:	69 c0 e7 09 00 00    	imul   $0x9e7,%eax,%eax
  40159c:	89 44 24 08          	mov    %eax,0x8(%rsp)
  4015a0:	8b 44 24 1c          	mov    0x1c(%rsp),%eax
  4015a4:	69 c0 4b 4d 00 00    	imul   $0x4d4b,%eax,%eax
  4015aa:	89 44 24 1c          	mov    %eax,0x1c(%rsp)
  4015ae:	8b 44 24 08          	mov    0x8(%rsp),%eax
  4015b2:	69 c0 15 c4 00 00    	imul   $0xc415,%eax,%eax
  4015b8:	89 44 24 08          	mov    %eax,0x8(%rsp)
  4015bc:	8b 44 24 18          	mov    0x18(%rsp),%eax
  4015c0:	69 c0 cf 2a 00 00    	imul   $0x2acf,%eax,%eax
  4015c6:	89 44 24 18          	mov    %eax,0x18(%rsp)
  4015ca:	8b 44 24 24          	mov    0x24(%rsp),%eax
  4015ce:	69 c0 f6 4a 00 00    	imul   $0x4af6,%eax,%eax
  4015d4:	89 44 24 24          	mov    %eax,0x24(%rsp)
  4015d8:	8b 44 24 20          	mov    0x20(%rsp),%eax
  4015dc:	69 c0 a0 2f 00 00    	imul   $0x2fa0,%eax,%eax
  4015e2:	89 44 24 20          	mov    %eax,0x20(%rsp)
  4015e6:	8b 44 24 14          	mov    0x14(%rsp),%eax
  4015ea:	69 c0 69 61 00 00    	imul   $0x6169,%eax,%eax
  4015f0:	89 44 24 14          	mov    %eax,0x14(%rsp)
  4015f4:	8b 44 24 08          	mov    0x8(%rsp),%eax
  4015f8:	69 c0 4f fe 00 00    	imul   $0xfe4f,%eax,%eax
  4015fe:	89 44 24 08          	mov    %eax,0x8(%rsp)
  401602:	8b 44 24 18          	mov    0x18(%rsp),%eax
  401606:	69 c0 cd 4a 00 00    	imul   $0x4acd,%eax,%eax
  40160c:	89 44 24 18          	mov    %eax,0x18(%rsp)
  401610:	8b 44 24 14          	mov    0x14(%rsp),%eax
  401614:	69 c0 39 fe 00 00    	imul   $0xfe39,%eax,%eax
  40161a:	89 44 24 14          	mov    %eax,0x14(%rsp)
  40161e:	8b 44 24 18          	mov    0x18(%rsp),%eax
  401622:	69 c0 30 20 00 00    	imul   $0x2030,%eax,%eax
  401628:	89 44 24 18          	mov    %eax,0x18(%rsp)
  40162c:	8b 44 24 10          	mov    0x10(%rsp),%eax
  401630:	69 c0 7d 19 00 00    	imul   $0x197d,%eax,%eax
  401636:	89 44 24 10          	mov    %eax,0x10(%rsp)
  40163a:	8b 44 24 24          	mov    0x24(%rsp),%eax
  40163e:	69 c0 37 25 00 00    	imul   $0x2537,%eax,%eax
  401644:	89 44 24 24          	mov    %eax,0x24(%rsp)
  401648:	8b 44 24 1c          	mov    0x1c(%rsp),%eax
  40164c:	69 c0 57 82 00 00    	imul   $0x8257,%eax,%eax
  401652:	89 44 24 1c          	mov    %eax,0x1c(%rsp)
  401656:	8b 44 24 0c          	mov    0xc(%rsp),%eax
  40165a:	69 c0 47 f4 00 00    	imul   $0xf447,%eax,%eax
  401660:	89 44 24 0c          	mov    %eax,0xc(%rsp)
  401664:	8b 04 24             	mov    (%rsp),%eax
  401667:	69 c0 30 e3 00 00    	imul   $0xe330,%eax,%eax
  40166d:	89 04 24             	mov    %eax,(%rsp)
  401670:	8b 44 24 24          	mov    0x24(%rsp),%eax
  401674:	69 c0 de b4 00 00    	imul   $0xb4de,%eax,%eax
  40167a:	89 44 24 24          	mov    %eax,0x24(%rsp)
  40167e:	8b 44 24 14          	mov    0x14(%rsp),%eax
  401682:	69 c0 3a 38 00 00    	imul   $0x383a,%eax,%eax
  401688:	89 44 24 14          	mov    %eax,0x14(%rsp)
  40168c:	8b 44 24 1c          	mov    0x1c(%rsp),%eax
  401690:	69 c0 03 9e 00 00    	imul   $0x9e03,%eax,%eax
  401696:	89 44 24 1c          	mov    %eax,0x1c(%rsp)
  40169a:	8b 44 24 1c          	mov    0x1c(%rsp),%eax
  40169e:	69 c0 95 df 00 00    	imul   $0xdf95,%eax,%eax
  4016a4:	89 44 24 1c          	mov    %eax,0x1c(%rsp)
  4016a8:	8b 44 24 10          	mov    0x10(%rsp),%eax
  4016ac:	69 c0 50 2e 00 00    	imul   $0x2e50,%eax,%eax
  4016b2:	89 44 24 10          	mov    %eax,0x10(%rsp)
  4016b6:	8b 44 24 1c          	mov    0x1c(%rsp),%eax
  4016ba:	69 c0 c3 38 00 00    	imul   $0x38c3,%eax,%eax
  4016c0:	89 44 24 1c          	mov    %eax,0x1c(%rsp)
  4016c4:	8b 44 24 14          	mov    0x14(%rsp),%eax
  4016c8:	69 c0 cd d4 00 00    	imul   $0xd4cd,%eax,%eax
  4016ce:	89 44 24 14          	mov    %eax,0x14(%rsp)
  4016d2:	8b 44 24 20          	mov    0x20(%rsp),%eax
  4016d6:	69 c0 c3 4d 00 00    	imul   $0x4dc3,%eax,%eax
  4016dc:	89 44 24 20          	mov    %eax,0x20(%rsp)
  4016e0:	8b 44 24 08          	mov    0x8(%rsp),%eax
  4016e4:	69 c0 81 16 00 00    	imul   $0x1681,%eax,%eax
  4016ea:	89 44 24 08          	mov    %eax,0x8(%rsp)
  4016ee:	8b 44 24 14          	mov    0x14(%rsp),%eax
  4016f2:	69 c0 af 46 00 00    	imul   $0x46af,%eax,%eax
  4016f8:	89 44 24 14          	mov    %eax,0x14(%rsp)
  4016fc:	8b 44 24 10          	mov    0x10(%rsp),%eax
  401700:	69 c0 44 2b 00 00    	imul   $0x2b44,%eax,%eax
  401706:	89 44 24 10          	mov    %eax,0x10(%rsp)
  40170a:	8b 44 24 14          	mov    0x14(%rsp),%eax
  40170e:	69 c0 ef 55 00 00    	imul   $0x55ef,%eax,%eax
  401714:	89 44 24 14          	mov    %eax,0x14(%rsp)
  401718:	8b 44 24 08          	mov    0x8(%rsp),%eax
  40171c:	69 c0 1f d6 00 00    	imul   $0xd61f,%eax,%eax
  401722:	89 44 24 08          	mov    %eax,0x8(%rsp)
  401726:	8b 44 24 20          	mov    0x20(%rsp),%eax
  40172a:	69 c0 6b 93 00 00    	imul   $0x936b,%eax,%eax
  401730:	89 44 24 20          	mov    %eax,0x20(%rsp)
  401734:	8b 44 24 24          	mov    0x24(%rsp),%eax
  401738:	69 c0 d6 a5 00 00    	imul   $0xa5d6,%eax,%eax
  40173e:	89 44 24 24          	mov    %eax,0x24(%rsp)
  401742:	8b 44 24 10          	mov    0x10(%rsp),%eax
  401746:	69 c0 95 c8 00 00    	imul   $0xc895,%eax,%eax
  40174c:	89 44 24 10          	mov    %eax,0x10(%rsp)
  401750:	8b 44 24 1c          	mov    0x1c(%rsp),%eax
  401754:	69 c0 17 a7 00 00    	imul   $0xa717,%eax,%eax
  40175a:	89 44 24 1c          	mov    %eax,0x1c(%rsp)
  40175e:	8b 44 24 08          	mov    0x8(%rsp),%eax
  401762:	69 c0 a7 d3 00 00    	imul   $0xd3a7,%eax,%eax
  401768:	89 44 24 08          	mov    %eax,0x8(%rsp)
  40176c:	8b 44 24 10          	mov    0x10(%rsp),%eax
  401770:	69 c0 d8 63 00 00    	imul   $0x63d8,%eax,%eax
  401776:	89 44 24 10          	mov    %eax,0x10(%rsp)
  40177a:	8b 44 24 10          	mov    0x10(%rsp),%eax
  40177e:	69 c0 14 2e 00 00    	imul   $0x2e14,%eax,%eax
  401784:	89 44 24 10          	mov    %eax,0x10(%rsp)
  401788:	8b 44 24 1c          	mov    0x1c(%rsp),%eax
  40178c:	69 c0 72 c2 00 00    	imul   $0xc272,%eax,%eax
  401792:	89 44 24 1c          	mov    %eax,0x1c(%rsp)
  401796:	8b 44 24 24          	mov    0x24(%rsp),%eax
  40179a:	69 c0 e1 21 00 00    	imul   $0x21e1,%eax,%eax
  4017a0:	89 44 24 24          	mov    %eax,0x24(%rsp)
  4017a4:	8b 44 24 10          	mov    0x10(%rsp),%eax
  4017a8:	69 c0 ea 9d 00 00    	imul   $0x9dea,%eax,%eax
  4017ae:	89 44 24 10          	mov    %eax,0x10(%rsp)
  4017b2:	8b 44 24 18          	mov    0x18(%rsp),%eax
  4017b6:	69 c0 d9 b6 00 00    	imul   $0xb6d9,%eax,%eax
  4017bc:	89 44 24 18          	mov    %eax,0x18(%rsp)
  4017c0:	8b 44 24 08          	mov    0x8(%rsp),%eax
  4017c4:	69 c0 a0 bb 00 00    	imul   $0xbba0,%eax,%eax
  4017ca:	89 44 24 08          	mov    %eax,0x8(%rsp)
  4017ce:	8b 44 24 20          	mov    0x20(%rsp),%eax
  4017d2:	69 c0 1d eb 00 00    	imul   $0xeb1d,%eax,%eax
  4017d8:	89 44 24 20          	mov    %eax,0x20(%rsp)
  4017dc:	8b 44 24 0c          	mov    0xc(%rsp),%eax
  4017e0:	69 c0 b5 5d 00 00    	imul   $0x5db5,%eax,%eax
  4017e6:	89 44 24 0c          	mov    %eax,0xc(%rsp)
  4017ea:	8b 44 24 08          	mov    0x8(%rsp),%eax
  4017ee:	69 c0 60 37 00 00    	imul   $0x3760,%eax,%eax
  4017f4:	89 44 24 08          	mov    %eax,0x8(%rsp)
  4017f8:	ba 00 00 00 00       	mov    $0x0,%edx
  4017fd:	b8 00 00 00 00       	mov    $0x0,%eax
  401802:	eb 0a                	jmp    40180e <scramble+0x4c3>
  401804:	89 d1                	mov    %edx,%ecx
  401806:	8b 0c 8c             	mov    (%rsp,%rcx,4),%ecx
  401809:	01 c8                	add    %ecx,%eax
  40180b:	83 c2 01             	add    $0x1,%edx
  40180e:	83 fa 09             	cmp    $0x9,%edx
  401811:	76 f1                	jbe    401804 <scramble+0x4b9>
  401813:	48 8b 74 24 28       	mov    0x28(%rsp),%rsi
  401818:	64 48 33 34 25 28 00 	xor    %fs:0x28,%rsi
  40181f:	00 00 
  401821:	75 05                	jne    401828 <scramble+0x4dd>
  401823:	48 83 c4 38          	add    $0x38,%rsp
  401827:	c3                   	retq   
  401828:	e8 b3 f4 ff ff       	callq  400ce0 <__stack_chk_fail@plt>

000000000040182d <getbuf>:
  40182d:	48 83 ec 38          	sub    $0x38,%rsp
  401831:	48 89 e7             	mov    %rsp,%rdi
  401834:	e8 94 02 00 00       	callq  401acd <Gets>
  401839:	b8 01 00 00 00       	mov    $0x1,%eax
  40183e:	48 83 c4 38          	add    $0x38,%rsp
  401842:	c3                   	retq   

0000000000401843 <touch1>:
  401843:	48 83 ec 08          	sub    $0x8,%rsp
  401847:	c7 05 ab 2c 20 00 01 	movl   $0x1,0x202cab(%rip)        # 6044fc <vlevel>
  40184e:	00 00 00 
  401851:	48 8d 3d 78 19 00 00 	lea    0x1978(%rip),%rdi        # 4031d0 <_IO_stdin_used+0x2d0>
  401858:	e8 63 f4 ff ff       	callq  400cc0 <puts@plt>
  40185d:	bf 01 00 00 00       	mov    $0x1,%edi
  401862:	e8 d6 04 00 00       	callq  401d3d <validate>
  401867:	bf 00 00 00 00       	mov    $0x0,%edi
  40186c:	e8 bf f5 ff ff       	callq  400e30 <exit@plt>

0000000000401871 <touch2>:
  401871:	48 83 ec 08          	sub    $0x8,%rsp
  401875:	89 fa                	mov    %edi,%edx
  401877:	c7 05 7b 2c 20 00 02 	movl   $0x2,0x202c7b(%rip)        # 6044fc <vlevel>
  40187e:	00 00 00 
  401881:	39 3d 7d 2c 20 00    	cmp    %edi,0x202c7d(%rip)        # 604504 <cookie>
  401887:	74 2a                	je     4018b3 <touch2+0x42>
  401889:	48 8d 35 90 19 00 00 	lea    0x1990(%rip),%rsi        # 403220 <_IO_stdin_used+0x320>
  401890:	bf 01 00 00 00       	mov    $0x1,%edi
  401895:	b8 00 00 00 00       	mov    $0x0,%eax
  40189a:	e8 41 f5 ff ff       	callq  400de0 <__printf_chk@plt>
  40189f:	bf 02 00 00 00       	mov    $0x2,%edi
  4018a4:	e8 64 05 00 00       	callq  401e0d <fail>
  4018a9:	bf 00 00 00 00       	mov    $0x0,%edi
  4018ae:	e8 7d f5 ff ff       	callq  400e30 <exit@plt>
  4018b3:	48 8d 35 3e 19 00 00 	lea    0x193e(%rip),%rsi        # 4031f8 <_IO_stdin_used+0x2f8>
  4018ba:	bf 01 00 00 00       	mov    $0x1,%edi
  4018bf:	b8 00 00 00 00       	mov    $0x0,%eax
  4018c4:	e8 17 f5 ff ff       	callq  400de0 <__printf_chk@plt>
  4018c9:	bf 02 00 00 00       	mov    $0x2,%edi
  4018ce:	e8 6a 04 00 00       	callq  401d3d <validate>
  4018d3:	eb d4                	jmp    4018a9 <touch2+0x38>

00000000004018d5 <hexmatch>:
  4018d5:	41 54                	push   %r12
  4018d7:	55                   	push   %rbp
  4018d8:	53                   	push   %rbx
  4018d9:	48 83 c4 80          	add    $0xffffffffffffff80,%rsp
  4018dd:	89 fd                	mov    %edi,%ebp
  4018df:	48 89 f3             	mov    %rsi,%rbx
  4018e2:	64 48 8b 04 25 28 00 	mov    %fs:0x28,%rax
  4018e9:	00 00 
  4018eb:	48 89 44 24 78       	mov    %rax,0x78(%rsp)
  4018f0:	31 c0                	xor    %eax,%eax
  4018f2:	e8 a9 f4 ff ff       	callq  400da0 <random@plt>
  4018f7:	48 89 c1             	mov    %rax,%rcx
  4018fa:	48 ba 0b d7 a3 70 3d 	movabs $0xa3d70a3d70a3d70b,%rdx
  401901:	0a d7 a3 
  401904:	48 f7 ea             	imul   %rdx
  401907:	48 01 ca             	add    %rcx,%rdx
  40190a:	48 c1 fa 06          	sar    $0x6,%rdx
  40190e:	48 89 c8             	mov    %rcx,%rax
  401911:	48 c1 f8 3f          	sar    $0x3f,%rax
  401915:	48 29 c2             	sub    %rax,%rdx
  401918:	48 8d 04 92          	lea    (%rdx,%rdx,4),%rax
  40191c:	48 8d 14 80          	lea    (%rax,%rax,4),%rdx
  401920:	48 8d 04 95 00 00 00 	lea    0x0(,%rdx,4),%rax
  401927:	00 
  401928:	48 29 c1             	sub    %rax,%rcx
  40192b:	4c 8d 24 0c          	lea    (%rsp,%rcx,1),%r12
  40192f:	41 89 e8             	mov    %ebp,%r8d
  401932:	48 8d 0d b4 18 00 00 	lea    0x18b4(%rip),%rcx        # 4031ed <_IO_stdin_used+0x2ed>
  401939:	48 c7 c2 ff ff ff ff 	mov    $0xffffffffffffffff,%rdx
  401940:	be 01 00 00 00       	mov    $0x1,%esi
  401945:	4c 89 e7             	mov    %r12,%rdi
  401948:	b8 00 00 00 00       	mov    $0x0,%eax
  40194d:	e8 0e f5 ff ff       	callq  400e60 <__sprintf_chk@plt>
  401952:	ba 09 00 00 00       	mov    $0x9,%edx
  401957:	4c 89 e6             	mov    %r12,%rsi
  40195a:	48 89 df             	mov    %rbx,%rdi
  40195d:	e8 3e f3 ff ff       	callq  400ca0 <strncmp@plt>
  401962:	85 c0                	test   %eax,%eax
  401964:	0f 94 c0             	sete   %al
  401967:	48 8b 5c 24 78       	mov    0x78(%rsp),%rbx
  40196c:	64 48 33 1c 25 28 00 	xor    %fs:0x28,%rbx
  401973:	00 00 
  401975:	75 0c                	jne    401983 <hexmatch+0xae>
  401977:	0f b6 c0             	movzbl %al,%eax
  40197a:	48 83 ec 80          	sub    $0xffffffffffffff80,%rsp
  40197e:	5b                   	pop    %rbx
  40197f:	5d                   	pop    %rbp
  401980:	41 5c                	pop    %r12
  401982:	c3                   	retq   
  401983:	e8 58 f3 ff ff       	callq  400ce0 <__stack_chk_fail@plt>

0000000000401988 <touch3>:
  401988:	53                   	push   %rbx
  401989:	48 89 fb             	mov    %rdi,%rbx
  40198c:	c7 05 66 2b 20 00 03 	movl   $0x3,0x202b66(%rip)        # 6044fc <vlevel>
  401993:	00 00 00 
  401996:	48 89 fe             	mov    %rdi,%rsi
  401999:	8b 3d 65 2b 20 00    	mov    0x202b65(%rip),%edi        # 604504 <cookie>
  40199f:	e8 31 ff ff ff       	callq  4018d5 <hexmatch>
  4019a4:	85 c0                	test   %eax,%eax
  4019a6:	74 2d                	je     4019d5 <touch3+0x4d>
  4019a8:	48 89 da             	mov    %rbx,%rdx
  4019ab:	48 8d 35 96 18 00 00 	lea    0x1896(%rip),%rsi        # 403248 <_IO_stdin_used+0x348>
  4019b2:	bf 01 00 00 00       	mov    $0x1,%edi
  4019b7:	b8 00 00 00 00       	mov    $0x0,%eax
  4019bc:	e8 1f f4 ff ff       	callq  400de0 <__printf_chk@plt>
  4019c1:	bf 03 00 00 00       	mov    $0x3,%edi
  4019c6:	e8 72 03 00 00       	callq  401d3d <validate>
  4019cb:	bf 00 00 00 00       	mov    $0x0,%edi
  4019d0:	e8 5b f4 ff ff       	callq  400e30 <exit@plt>
  4019d5:	48 89 da             	mov    %rbx,%rdx
  4019d8:	48 8d 35 91 18 00 00 	lea    0x1891(%rip),%rsi        # 403270 <_IO_stdin_used+0x370>
  4019df:	bf 01 00 00 00       	mov    $0x1,%edi
  4019e4:	b8 00 00 00 00       	mov    $0x0,%eax
  4019e9:	e8 f2 f3 ff ff       	callq  400de0 <__printf_chk@plt>
  4019ee:	bf 03 00 00 00       	mov    $0x3,%edi
  4019f3:	e8 15 04 00 00       	callq  401e0d <fail>
  4019f8:	eb d1                	jmp    4019cb <touch3+0x43>

00000000004019fa <test>:
  4019fa:	48 83 ec 08          	sub    $0x8,%rsp
  4019fe:	b8 00 00 00 00       	mov    $0x0,%eax
  401a03:	e8 25 fe ff ff       	callq  40182d <getbuf>
  401a08:	89 c2                	mov    %eax,%edx
  401a0a:	48 8d 35 87 18 00 00 	lea    0x1887(%rip),%rsi        # 403298 <_IO_stdin_used+0x398>
  401a11:	bf 01 00 00 00       	mov    $0x1,%edi
  401a16:	b8 00 00 00 00       	mov    $0x0,%eax
  401a1b:	e8 c0 f3 ff ff       	callq  400de0 <__printf_chk@plt>
  401a20:	48 83 c4 08          	add    $0x8,%rsp
  401a24:	c3                   	retq   

0000000000401a25 <save_char>:
  401a25:	8b 05 f9 36 20 00    	mov    0x2036f9(%rip),%eax        # 605124 <gets_cnt>
  401a2b:	3d ff 03 00 00       	cmp    $0x3ff,%eax
  401a30:	7f 4a                	jg     401a7c <save_char+0x57>
  401a32:	89 f9                	mov    %edi,%ecx
  401a34:	c0 e9 04             	shr    $0x4,%cl
  401a37:	8d 14 40             	lea    (%rax,%rax,2),%edx
  401a3a:	4c 8d 05 7f 1b 00 00 	lea    0x1b7f(%rip),%r8        # 4035c0 <trans_char>
  401a41:	83 e1 0f             	and    $0xf,%ecx
  401a44:	45 0f b6 0c 08       	movzbl (%r8,%rcx,1),%r9d
  401a49:	48 8d 0d d0 2a 20 00 	lea    0x202ad0(%rip),%rcx        # 604520 <gets_buf>
  401a50:	48 63 f2             	movslq %edx,%rsi
  401a53:	44 88 0c 31          	mov    %r9b,(%rcx,%rsi,1)
  401a57:	8d 72 01             	lea    0x1(%rdx),%esi
  401a5a:	83 e7 0f             	and    $0xf,%edi
  401a5d:	41 0f b6 3c 38       	movzbl (%r8,%rdi,1),%edi
  401a62:	48 63 f6             	movslq %esi,%rsi
  401a65:	40 88 3c 31          	mov    %dil,(%rcx,%rsi,1)
  401a69:	83 c2 02             	add    $0x2,%edx
  401a6c:	48 63 d2             	movslq %edx,%rdx
  401a6f:	c6 04 11 20          	movb   $0x20,(%rcx,%rdx,1)
  401a73:	83 c0 01             	add    $0x1,%eax
  401a76:	89 05 a8 36 20 00    	mov    %eax,0x2036a8(%rip)        # 605124 <gets_cnt>
  401a7c:	f3 c3                	repz retq 

0000000000401a7e <save_term>:
  401a7e:	8b 05 a0 36 20 00    	mov    0x2036a0(%rip),%eax        # 605124 <gets_cnt>
  401a84:	8d 04 40             	lea    (%rax,%rax,2),%eax
  401a87:	48 98                	cltq   
  401a89:	48 8d 15 90 2a 20 00 	lea    0x202a90(%rip),%rdx        # 604520 <gets_buf>
  401a90:	c6 04 02 00          	movb   $0x0,(%rdx,%rax,1)
  401a94:	c3                   	retq   

0000000000401a95 <check_fail>:
  401a95:	48 83 ec 08          	sub    $0x8,%rsp
  401a99:	0f be 15 88 36 20 00 	movsbl 0x203688(%rip),%edx        # 605128 <target_prefix>
  401aa0:	4c 8d 05 79 2a 20 00 	lea    0x202a79(%rip),%r8        # 604520 <gets_buf>
  401aa7:	8b 0d 4b 2a 20 00    	mov    0x202a4b(%rip),%ecx        # 6044f8 <check_level>
  401aad:	48 8d 35 07 18 00 00 	lea    0x1807(%rip),%rsi        # 4032bb <_IO_stdin_used+0x3bb>
  401ab4:	bf 01 00 00 00       	mov    $0x1,%edi
  401ab9:	b8 00 00 00 00       	mov    $0x0,%eax
  401abe:	e8 1d f3 ff ff       	callq  400de0 <__printf_chk@plt>
  401ac3:	bf 01 00 00 00       	mov    $0x1,%edi
  401ac8:	e8 63 f3 ff ff       	callq  400e30 <exit@plt>

0000000000401acd <Gets>:
  401acd:	41 54                	push   %r12
  401acf:	55                   	push   %rbp
  401ad0:	53                   	push   %rbx
  401ad1:	49 89 fc             	mov    %rdi,%r12
  401ad4:	c7 05 46 36 20 00 00 	movl   $0x0,0x203646(%rip)        # 605124 <gets_cnt>
  401adb:	00 00 00 
  401ade:	48 89 fb             	mov    %rdi,%rbx
  401ae1:	eb 11                	jmp    401af4 <Gets+0x27>
  401ae3:	48 8d 6b 01          	lea    0x1(%rbx),%rbp
  401ae7:	88 03                	mov    %al,(%rbx)
  401ae9:	0f b6 f8             	movzbl %al,%edi
  401aec:	e8 34 ff ff ff       	callq  401a25 <save_char>
  401af1:	48 89 eb             	mov    %rbp,%rbx
  401af4:	48 8b 3d f5 29 20 00 	mov    0x2029f5(%rip),%rdi        # 6044f0 <infile>
  401afb:	e8 b0 f2 ff ff       	callq  400db0 <_IO_getc@plt>
  401b00:	83 f8 ff             	cmp    $0xffffffff,%eax
  401b03:	74 05                	je     401b0a <Gets+0x3d>
  401b05:	83 f8 0a             	cmp    $0xa,%eax
  401b08:	75 d9                	jne    401ae3 <Gets+0x16>
  401b0a:	c6 03 00             	movb   $0x0,(%rbx)
  401b0d:	b8 00 00 00 00       	mov    $0x0,%eax
  401b12:	e8 67 ff ff ff       	callq  401a7e <save_term>
  401b17:	4c 89 e0             	mov    %r12,%rax
  401b1a:	5b                   	pop    %rbx
  401b1b:	5d                   	pop    %rbp
  401b1c:	41 5c                	pop    %r12
  401b1e:	c3                   	retq   

0000000000401b1f <notify_server>:
  401b1f:	55                   	push   %rbp
  401b20:	53                   	push   %rbx
  401b21:	48 81 ec 18 40 00 00 	sub    $0x4018,%rsp
  401b28:	64 48 8b 04 25 28 00 	mov    %fs:0x28,%rax
  401b2f:	00 00 
  401b31:	48 89 84 24 08 40 00 	mov    %rax,0x4008(%rsp)
  401b38:	00 
  401b39:	31 c0                	xor    %eax,%eax
  401b3b:	83 3d c6 29 20 00 00 	cmpl   $0x0,0x2029c6(%rip)        # 604508 <is_checker>
  401b42:	0f 85 d2 00 00 00    	jne    401c1a <notify_server+0xfb>
  401b48:	89 fb                	mov    %edi,%ebx
  401b4a:	8b 05 d4 35 20 00    	mov    0x2035d4(%rip),%eax        # 605124 <gets_cnt>
  401b50:	83 c0 64             	add    $0x64,%eax
  401b53:	3d 00 20 00 00       	cmp    $0x2000,%eax
  401b58:	0f 8f dd 00 00 00    	jg     401c3b <notify_server+0x11c>
  401b5e:	0f be 05 c3 35 20 00 	movsbl 0x2035c3(%rip),%eax        # 605128 <target_prefix>
  401b65:	83 3d 1c 29 20 00 00 	cmpl   $0x0,0x20291c(%rip)        # 604488 <notify>
  401b6c:	0f 84 e9 00 00 00    	je     401c5b <notify_server+0x13c>
  401b72:	8b 15 88 29 20 00    	mov    0x202988(%rip),%edx        # 604500 <authkey>
  401b78:	85 db                	test   %ebx,%ebx
  401b7a:	0f 84 e5 00 00 00    	je     401c65 <notify_server+0x146>
  401b80:	48 8d 2d 4a 17 00 00 	lea    0x174a(%rip),%rbp        # 4032d1 <_IO_stdin_used+0x3d1>
  401b87:	48 89 e7             	mov    %rsp,%rdi
  401b8a:	48 8d 0d 8f 29 20 00 	lea    0x20298f(%rip),%rcx        # 604520 <gets_buf>
  401b91:	51                   	push   %rcx
  401b92:	56                   	push   %rsi
  401b93:	50                   	push   %rax
  401b94:	52                   	push   %rdx
  401b95:	49 89 e9             	mov    %rbp,%r9
  401b98:	4c 8b 05 91 25 20 00 	mov    0x202591(%rip),%r8        # 604130 <target_id>
  401b9f:	48 8d 0d 35 17 00 00 	lea    0x1735(%rip),%rcx        # 4032db <_IO_stdin_used+0x3db>
  401ba6:	ba 00 20 00 00       	mov    $0x2000,%edx
  401bab:	be 01 00 00 00       	mov    $0x1,%esi
  401bb0:	b8 00 00 00 00       	mov    $0x0,%eax
  401bb5:	e8 a6 f2 ff ff       	callq  400e60 <__sprintf_chk@plt>
  401bba:	48 83 c4 20          	add    $0x20,%rsp
  401bbe:	83 3d c3 28 20 00 00 	cmpl   $0x0,0x2028c3(%rip)        # 604488 <notify>
  401bc5:	0f 84 df 00 00 00    	je     401caa <notify_server+0x18b>
  401bcb:	85 db                	test   %ebx,%ebx
  401bcd:	0f 84 c6 00 00 00    	je     401c99 <notify_server+0x17a>
  401bd3:	48 89 e1             	mov    %rsp,%rcx
  401bd6:	4c 8d 8c 24 00 20 00 	lea    0x2000(%rsp),%r9
  401bdd:	00 
  401bde:	41 b8 00 00 00 00    	mov    $0x0,%r8d
  401be4:	48 8b 15 5d 25 20 00 	mov    0x20255d(%rip),%rdx        # 604148 <lab>
  401beb:	48 8b 35 5e 25 20 00 	mov    0x20255e(%rip),%rsi        # 604150 <course>
  401bf2:	48 8b 3d 47 25 20 00 	mov    0x202547(%rip),%rdi        # 604140 <user_id>
  401bf9:	e8 af 11 00 00       	callq  402dad <driver_post>
  401bfe:	85 c0                	test   %eax,%eax
  401c00:	78 6f                	js     401c71 <notify_server+0x152>
  401c02:	48 8d 3d 17 18 00 00 	lea    0x1817(%rip),%rdi        # 403420 <_IO_stdin_used+0x520>
  401c09:	e8 b2 f0 ff ff       	callq  400cc0 <puts@plt>
  401c0e:	48 8d 3d f0 16 00 00 	lea    0x16f0(%rip),%rdi        # 403305 <_IO_stdin_used+0x405>
  401c15:	e8 a6 f0 ff ff       	callq  400cc0 <puts@plt>
  401c1a:	48 8b 84 24 08 40 00 	mov    0x4008(%rsp),%rax
  401c21:	00 
  401c22:	64 48 33 04 25 28 00 	xor    %fs:0x28,%rax
  401c29:	00 00 
  401c2b:	0f 85 07 01 00 00    	jne    401d38 <notify_server+0x219>
  401c31:	48 81 c4 18 40 00 00 	add    $0x4018,%rsp
  401c38:	5b                   	pop    %rbx
  401c39:	5d                   	pop    %rbp
  401c3a:	c3                   	retq   
  401c3b:	48 8d 35 ae 17 00 00 	lea    0x17ae(%rip),%rsi        # 4033f0 <_IO_stdin_used+0x4f0>
  401c42:	bf 01 00 00 00       	mov    $0x1,%edi
  401c47:	b8 00 00 00 00       	mov    $0x0,%eax
  401c4c:	e8 8f f1 ff ff       	callq  400de0 <__printf_chk@plt>
  401c51:	bf 01 00 00 00       	mov    $0x1,%edi
  401c56:	e8 d5 f1 ff ff       	callq  400e30 <exit@plt>
  401c5b:	ba ff ff ff ff       	mov    $0xffffffff,%edx
  401c60:	e9 13 ff ff ff       	jmpq   401b78 <notify_server+0x59>
  401c65:	48 8d 2d 6a 16 00 00 	lea    0x166a(%rip),%rbp        # 4032d6 <_IO_stdin_used+0x3d6>
  401c6c:	e9 16 ff ff ff       	jmpq   401b87 <notify_server+0x68>
  401c71:	48 8d 94 24 00 20 00 	lea    0x2000(%rsp),%rdx
  401c78:	00 
  401c79:	48 8d 35 79 16 00 00 	lea    0x1679(%rip),%rsi        # 4032f9 <_IO_stdin_used+0x3f9>
  401c80:	bf 01 00 00 00       	mov    $0x1,%edi
  401c85:	b8 00 00 00 00       	mov    $0x0,%eax
  401c8a:	e8 51 f1 ff ff       	callq  400de0 <__printf_chk@plt>
  401c8f:	bf 01 00 00 00       	mov    $0x1,%edi
  401c94:	e8 97 f1 ff ff       	callq  400e30 <exit@plt>
  401c99:	48 8d 3d 6f 16 00 00 	lea    0x166f(%rip),%rdi        # 40330f <_IO_stdin_used+0x40f>
  401ca0:	e8 1b f0 ff ff       	callq  400cc0 <puts@plt>
  401ca5:	e9 70 ff ff ff       	jmpq   401c1a <notify_server+0xfb>
  401caa:	48 89 ea             	mov    %rbp,%rdx
  401cad:	48 8d 35 a4 17 00 00 	lea    0x17a4(%rip),%rsi        # 403458 <_IO_stdin_used+0x558>
  401cb4:	bf 01 00 00 00       	mov    $0x1,%edi
  401cb9:	b8 00 00 00 00       	mov    $0x0,%eax
  401cbe:	e8 1d f1 ff ff       	callq  400de0 <__printf_chk@plt>
  401cc3:	48 8b 15 76 24 20 00 	mov    0x202476(%rip),%rdx        # 604140 <user_id>
  401cca:	48 8d 35 45 16 00 00 	lea    0x1645(%rip),%rsi        # 403316 <_IO_stdin_used+0x416>
  401cd1:	bf 01 00 00 00       	mov    $0x1,%edi
  401cd6:	b8 00 00 00 00       	mov    $0x0,%eax
  401cdb:	e8 00 f1 ff ff       	callq  400de0 <__printf_chk@plt>
  401ce0:	48 8b 15 69 24 20 00 	mov    0x202469(%rip),%rdx        # 604150 <course>
  401ce7:	48 8d 35 35 16 00 00 	lea    0x1635(%rip),%rsi        # 403323 <_IO_stdin_used+0x423>
  401cee:	bf 01 00 00 00       	mov    $0x1,%edi
  401cf3:	b8 00 00 00 00       	mov    $0x0,%eax
  401cf8:	e8 e3 f0 ff ff       	callq  400de0 <__printf_chk@plt>
  401cfd:	48 8b 15 44 24 20 00 	mov    0x202444(%rip),%rdx        # 604148 <lab>
  401d04:	48 8d 35 24 16 00 00 	lea    0x1624(%rip),%rsi        # 40332f <_IO_stdin_used+0x42f>
  401d0b:	bf 01 00 00 00       	mov    $0x1,%edi
  401d10:	b8 00 00 00 00       	mov    $0x0,%eax
  401d15:	e8 c6 f0 ff ff       	callq  400de0 <__printf_chk@plt>
  401d1a:	48 89 e2             	mov    %rsp,%rdx
  401d1d:	48 8d 35 14 16 00 00 	lea    0x1614(%rip),%rsi        # 403338 <_IO_stdin_used+0x438>
  401d24:	bf 01 00 00 00       	mov    $0x1,%edi
  401d29:	b8 00 00 00 00       	mov    $0x0,%eax
  401d2e:	e8 ad f0 ff ff       	callq  400de0 <__printf_chk@plt>
  401d33:	e9 e2 fe ff ff       	jmpq   401c1a <notify_server+0xfb>
  401d38:	e8 a3 ef ff ff       	callq  400ce0 <__stack_chk_fail@plt>

0000000000401d3d <validate>:
  401d3d:	53                   	push   %rbx
  401d3e:	89 fb                	mov    %edi,%ebx
  401d40:	83 3d c1 27 20 00 00 	cmpl   $0x0,0x2027c1(%rip)        # 604508 <is_checker>
  401d47:	74 72                	je     401dbb <validate+0x7e>
  401d49:	39 3d ad 27 20 00    	cmp    %edi,0x2027ad(%rip)        # 6044fc <vlevel>
  401d4f:	75 32                	jne    401d83 <validate+0x46>
  401d51:	8b 15 a1 27 20 00    	mov    0x2027a1(%rip),%edx        # 6044f8 <check_level>
  401d57:	39 fa                	cmp    %edi,%edx
  401d59:	75 3e                	jne    401d99 <validate+0x5c>
  401d5b:	0f be 15 c6 33 20 00 	movsbl 0x2033c6(%rip),%edx        # 605128 <target_prefix>
  401d62:	4c 8d 05 b7 27 20 00 	lea    0x2027b7(%rip),%r8        # 604520 <gets_buf>
  401d69:	89 f9                	mov    %edi,%ecx
  401d6b:	48 8d 35 f0 15 00 00 	lea    0x15f0(%rip),%rsi        # 403362 <_IO_stdin_used+0x462>
  401d72:	bf 01 00 00 00       	mov    $0x1,%edi
  401d77:	b8 00 00 00 00       	mov    $0x0,%eax
  401d7c:	e8 5f f0 ff ff       	callq  400de0 <__printf_chk@plt>
  401d81:	5b                   	pop    %rbx
  401d82:	c3                   	retq   
  401d83:	48 8d 3d ba 15 00 00 	lea    0x15ba(%rip),%rdi        # 403344 <_IO_stdin_used+0x444>
  401d8a:	e8 31 ef ff ff       	callq  400cc0 <puts@plt>
  401d8f:	b8 00 00 00 00       	mov    $0x0,%eax
  401d94:	e8 fc fc ff ff       	callq  401a95 <check_fail>
  401d99:	89 f9                	mov    %edi,%ecx
  401d9b:	48 8d 35 de 16 00 00 	lea    0x16de(%rip),%rsi        # 403480 <_IO_stdin_used+0x580>
  401da2:	bf 01 00 00 00       	mov    $0x1,%edi
  401da7:	b8 00 00 00 00       	mov    $0x0,%eax
  401dac:	e8 2f f0 ff ff       	callq  400de0 <__printf_chk@plt>
  401db1:	b8 00 00 00 00       	mov    $0x0,%eax
  401db6:	e8 da fc ff ff       	callq  401a95 <check_fail>
  401dbb:	39 3d 3b 27 20 00    	cmp    %edi,0x20273b(%rip)        # 6044fc <vlevel>
  401dc1:	74 1a                	je     401ddd <validate+0xa0>
  401dc3:	48 8d 3d 7a 15 00 00 	lea    0x157a(%rip),%rdi        # 403344 <_IO_stdin_used+0x444>
  401dca:	e8 f1 ee ff ff       	callq  400cc0 <puts@plt>
  401dcf:	89 de                	mov    %ebx,%esi
  401dd1:	bf 00 00 00 00       	mov    $0x0,%edi
  401dd6:	e8 44 fd ff ff       	callq  401b1f <notify_server>
  401ddb:	eb a4                	jmp    401d81 <validate+0x44>
  401ddd:	0f be 0d 44 33 20 00 	movsbl 0x203344(%rip),%ecx        # 605128 <target_prefix>
  401de4:	89 fa                	mov    %edi,%edx
  401de6:	48 8d 35 bb 16 00 00 	lea    0x16bb(%rip),%rsi        # 4034a8 <_IO_stdin_used+0x5a8>
  401ded:	bf 01 00 00 00       	mov    $0x1,%edi
  401df2:	b8 00 00 00 00       	mov    $0x0,%eax
  401df7:	e8 e4 ef ff ff       	callq  400de0 <__printf_chk@plt>
  401dfc:	89 de                	mov    %ebx,%esi
  401dfe:	bf 01 00 00 00       	mov    $0x1,%edi
  401e03:	e8 17 fd ff ff       	callq  401b1f <notify_server>
  401e08:	e9 74 ff ff ff       	jmpq   401d81 <validate+0x44>

0000000000401e0d <fail>:
  401e0d:	48 83 ec 08          	sub    $0x8,%rsp
  401e11:	83 3d f0 26 20 00 00 	cmpl   $0x0,0x2026f0(%rip)        # 604508 <is_checker>
  401e18:	75 11                	jne    401e2b <fail+0x1e>
  401e1a:	89 fe                	mov    %edi,%esi
  401e1c:	bf 00 00 00 00       	mov    $0x0,%edi
  401e21:	e8 f9 fc ff ff       	callq  401b1f <notify_server>
  401e26:	48 83 c4 08          	add    $0x8,%rsp
  401e2a:	c3                   	retq   
  401e2b:	b8 00 00 00 00       	mov    $0x0,%eax
  401e30:	e8 60 fc ff ff       	callq  401a95 <check_fail>

0000000000401e35 <bushandler>:
  401e35:	48 83 ec 08          	sub    $0x8,%rsp
  401e39:	83 3d c8 26 20 00 00 	cmpl   $0x0,0x2026c8(%rip)        # 604508 <is_checker>
  401e40:	74 16                	je     401e58 <bushandler+0x23>
  401e42:	48 8d 3d 2e 15 00 00 	lea    0x152e(%rip),%rdi        # 403377 <_IO_stdin_used+0x477>
  401e49:	e8 72 ee ff ff       	callq  400cc0 <puts@plt>
  401e4e:	b8 00 00 00 00       	mov    $0x0,%eax
  401e53:	e8 3d fc ff ff       	callq  401a95 <check_fail>
  401e58:	48 8d 3d 81 16 00 00 	lea    0x1681(%rip),%rdi        # 4034e0 <_IO_stdin_used+0x5e0>
  401e5f:	e8 5c ee ff ff       	callq  400cc0 <puts@plt>
  401e64:	48 8d 3d 16 15 00 00 	lea    0x1516(%rip),%rdi        # 403381 <_IO_stdin_used+0x481>
  401e6b:	e8 50 ee ff ff       	callq  400cc0 <puts@plt>
  401e70:	be 00 00 00 00       	mov    $0x0,%esi
  401e75:	bf 00 00 00 00       	mov    $0x0,%edi
  401e7a:	e8 a0 fc ff ff       	callq  401b1f <notify_server>
  401e7f:	bf 01 00 00 00       	mov    $0x1,%edi
  401e84:	e8 a7 ef ff ff       	callq  400e30 <exit@plt>

0000000000401e89 <seghandler>:
  401e89:	48 83 ec 08          	sub    $0x8,%rsp
  401e8d:	83 3d 74 26 20 00 00 	cmpl   $0x0,0x202674(%rip)        # 604508 <is_checker>
  401e94:	74 16                	je     401eac <seghandler+0x23>
  401e96:	48 8d 3d fa 14 00 00 	lea    0x14fa(%rip),%rdi        # 403397 <_IO_stdin_used+0x497>
  401e9d:	e8 1e ee ff ff       	callq  400cc0 <puts@plt>
  401ea2:	b8 00 00 00 00       	mov    $0x0,%eax
  401ea7:	e8 e9 fb ff ff       	callq  401a95 <check_fail>
  401eac:	48 8d 3d 4d 16 00 00 	lea    0x164d(%rip),%rdi        # 403500 <_IO_stdin_used+0x600>
  401eb3:	e8 08 ee ff ff       	callq  400cc0 <puts@plt>
  401eb8:	48 8d 3d c2 14 00 00 	lea    0x14c2(%rip),%rdi        # 403381 <_IO_stdin_used+0x481>
  401ebf:	e8 fc ed ff ff       	callq  400cc0 <puts@plt>
  401ec4:	be 00 00 00 00       	mov    $0x0,%esi
  401ec9:	bf 00 00 00 00       	mov    $0x0,%edi
  401ece:	e8 4c fc ff ff       	callq  401b1f <notify_server>
  401ed3:	bf 01 00 00 00       	mov    $0x1,%edi
  401ed8:	e8 53 ef ff ff       	callq  400e30 <exit@plt>

0000000000401edd <illegalhandler>:
  401edd:	48 83 ec 08          	sub    $0x8,%rsp
  401ee1:	83 3d 20 26 20 00 00 	cmpl   $0x0,0x202620(%rip)        # 604508 <is_checker>
  401ee8:	74 16                	je     401f00 <illegalhandler+0x23>
  401eea:	48 8d 3d b9 14 00 00 	lea    0x14b9(%rip),%rdi        # 4033aa <_IO_stdin_used+0x4aa>
  401ef1:	e8 ca ed ff ff       	callq  400cc0 <puts@plt>
  401ef6:	b8 00 00 00 00       	mov    $0x0,%eax
  401efb:	e8 95 fb ff ff       	callq  401a95 <check_fail>
  401f00:	48 8d 3d 21 16 00 00 	lea    0x1621(%rip),%rdi        # 403528 <_IO_stdin_used+0x628>
  401f07:	e8 b4 ed ff ff       	callq  400cc0 <puts@plt>
  401f0c:	48 8d 3d 6e 14 00 00 	lea    0x146e(%rip),%rdi        # 403381 <_IO_stdin_used+0x481>
  401f13:	e8 a8 ed ff ff       	callq  400cc0 <puts@plt>
  401f18:	be 00 00 00 00       	mov    $0x0,%esi
  401f1d:	bf 00 00 00 00       	mov    $0x0,%edi
  401f22:	e8 f8 fb ff ff       	callq  401b1f <notify_server>
  401f27:	bf 01 00 00 00       	mov    $0x1,%edi
  401f2c:	e8 ff ee ff ff       	callq  400e30 <exit@plt>

0000000000401f31 <sigalrmhandler>:
  401f31:	48 83 ec 08          	sub    $0x8,%rsp
  401f35:	83 3d cc 25 20 00 00 	cmpl   $0x0,0x2025cc(%rip)        # 604508 <is_checker>
  401f3c:	74 16                	je     401f54 <sigalrmhandler+0x23>
  401f3e:	48 8d 3d 79 14 00 00 	lea    0x1479(%rip),%rdi        # 4033be <_IO_stdin_used+0x4be>
  401f45:	e8 76 ed ff ff       	callq  400cc0 <puts@plt>
  401f4a:	b8 00 00 00 00       	mov    $0x0,%eax
  401f4f:	e8 41 fb ff ff       	callq  401a95 <check_fail>
  401f54:	ba 05 00 00 00       	mov    $0x5,%edx
  401f59:	48 8d 35 f8 15 00 00 	lea    0x15f8(%rip),%rsi        # 403558 <_IO_stdin_used+0x658>
  401f60:	bf 01 00 00 00       	mov    $0x1,%edi
  401f65:	b8 00 00 00 00       	mov    $0x0,%eax
  401f6a:	e8 71 ee ff ff       	callq  400de0 <__printf_chk@plt>
  401f6f:	be 00 00 00 00       	mov    $0x0,%esi
  401f74:	bf 00 00 00 00       	mov    $0x0,%edi
  401f79:	e8 a1 fb ff ff       	callq  401b1f <notify_server>
  401f7e:	bf 01 00 00 00       	mov    $0x1,%edi
  401f83:	e8 a8 ee ff ff       	callq  400e30 <exit@plt>

0000000000401f88 <launch>:
  401f88:	55                   	push   %rbp
  401f89:	48 89 e5             	mov    %rsp,%rbp
  401f8c:	48 83 ec 10          	sub    $0x10,%rsp
  401f90:	48 89 fa             	mov    %rdi,%rdx
  401f93:	64 48 8b 04 25 28 00 	mov    %fs:0x28,%rax
  401f9a:	00 00 
  401f9c:	48 89 45 f8          	mov    %rax,-0x8(%rbp)
  401fa0:	31 c0                	xor    %eax,%eax
  401fa2:	48 8d 47 1e          	lea    0x1e(%rdi),%rax
  401fa6:	48 83 e0 f0          	and    $0xfffffffffffffff0,%rax
  401faa:	48 29 c4             	sub    %rax,%rsp
  401fad:	48 8d 7c 24 0f       	lea    0xf(%rsp),%rdi
  401fb2:	48 83 e7 f0          	and    $0xfffffffffffffff0,%rdi
  401fb6:	be f4 00 00 00       	mov    $0xf4,%esi
  401fbb:	e8 40 ed ff ff       	callq  400d00 <memset@plt>
  401fc0:	48 8b 05 d9 24 20 00 	mov    0x2024d9(%rip),%rax        # 6044a0 <stdin@@GLIBC_2.2.5>
  401fc7:	48 39 05 22 25 20 00 	cmp    %rax,0x202522(%rip)        # 6044f0 <infile>
  401fce:	74 3a                	je     40200a <launch+0x82>
  401fd0:	c7 05 22 25 20 00 00 	movl   $0x0,0x202522(%rip)        # 6044fc <vlevel>
  401fd7:	00 00 00 
  401fda:	b8 00 00 00 00       	mov    $0x0,%eax
  401fdf:	e8 16 fa ff ff       	callq  4019fa <test>
  401fe4:	83 3d 1d 25 20 00 00 	cmpl   $0x0,0x20251d(%rip)        # 604508 <is_checker>
  401feb:	75 35                	jne    402022 <launch+0x9a>
  401fed:	48 8d 3d ea 13 00 00 	lea    0x13ea(%rip),%rdi        # 4033de <_IO_stdin_used+0x4de>
  401ff4:	e8 c7 ec ff ff       	callq  400cc0 <puts@plt>
  401ff9:	48 8b 45 f8          	mov    -0x8(%rbp),%rax
  401ffd:	64 48 33 04 25 28 00 	xor    %fs:0x28,%rax
  402004:	00 00 
  402006:	75 30                	jne    402038 <launch+0xb0>
  402008:	c9                   	leaveq 
  402009:	c3                   	retq   
  40200a:	48 8d 35 b5 13 00 00 	lea    0x13b5(%rip),%rsi        # 4033c6 <_IO_stdin_used+0x4c6>
  402011:	bf 01 00 00 00       	mov    $0x1,%edi
  402016:	b8 00 00 00 00       	mov    $0x0,%eax
  40201b:	e8 c0 ed ff ff       	callq  400de0 <__printf_chk@plt>
  402020:	eb ae                	jmp    401fd0 <launch+0x48>
  402022:	48 8d 3d aa 13 00 00 	lea    0x13aa(%rip),%rdi        # 4033d3 <_IO_stdin_used+0x4d3>
  402029:	e8 92 ec ff ff       	callq  400cc0 <puts@plt>
  40202e:	b8 00 00 00 00       	mov    $0x0,%eax
  402033:	e8 5d fa ff ff       	callq  401a95 <check_fail>
  402038:	e8 a3 ec ff ff       	callq  400ce0 <__stack_chk_fail@plt>

000000000040203d <stable_launch>:
  40203d:	53                   	push   %rbx
  40203e:	48 89 3d a3 24 20 00 	mov    %rdi,0x2024a3(%rip)        # 6044e8 <global_offset>
  402045:	41 b9 00 00 00 00    	mov    $0x0,%r9d
  40204b:	41 b8 00 00 00 00    	mov    $0x0,%r8d
  402051:	b9 32 01 00 00       	mov    $0x132,%ecx
  402056:	ba 07 00 00 00       	mov    $0x7,%edx
  40205b:	be 00 00 10 00       	mov    $0x100000,%esi
  402060:	bf 00 60 58 55       	mov    $0x55586000,%edi
  402065:	e8 86 ec ff ff       	callq  400cf0 <mmap@plt>
  40206a:	48 89 c3             	mov    %rax,%rbx
  40206d:	48 3d 00 60 58 55    	cmp    $0x55586000,%rax
  402073:	75 43                	jne    4020b8 <stable_launch+0x7b>
  402075:	48 8d 90 f8 ff 0f 00 	lea    0xffff8(%rax),%rdx
  40207c:	48 89 15 ad 30 20 00 	mov    %rdx,0x2030ad(%rip)        # 605130 <stack_top>
  402083:	48 89 e0             	mov    %rsp,%rax
  402086:	48 89 d4             	mov    %rdx,%rsp
  402089:	48 89 c2             	mov    %rax,%rdx
  40208c:	48 89 15 4d 24 20 00 	mov    %rdx,0x20244d(%rip)        # 6044e0 <global_save_stack>
  402093:	48 8b 3d 4e 24 20 00 	mov    0x20244e(%rip),%rdi        # 6044e8 <global_offset>
  40209a:	e8 e9 fe ff ff       	callq  401f88 <launch>
  40209f:	48 8b 05 3a 24 20 00 	mov    0x20243a(%rip),%rax        # 6044e0 <global_save_stack>
  4020a6:	48 89 c4             	mov    %rax,%rsp
  4020a9:	be 00 00 10 00       	mov    $0x100000,%esi
  4020ae:	48 89 df             	mov    %rbx,%rdi
  4020b1:	e8 1a ed ff ff       	callq  400dd0 <munmap@plt>
  4020b6:	5b                   	pop    %rbx
  4020b7:	c3                   	retq   
  4020b8:	be 00 00 10 00       	mov    $0x100000,%esi
  4020bd:	48 89 c7             	mov    %rax,%rdi
  4020c0:	e8 0b ed ff ff       	callq  400dd0 <munmap@plt>
  4020c5:	b9 00 60 58 55       	mov    $0x55586000,%ecx
  4020ca:	48 8d 15 bf 14 00 00 	lea    0x14bf(%rip),%rdx        # 403590 <_IO_stdin_used+0x690>
  4020d1:	be 01 00 00 00       	mov    $0x1,%esi
  4020d6:	48 8b 3d e3 23 20 00 	mov    0x2023e3(%rip),%rdi        # 6044c0 <stderr@@GLIBC_2.2.5>
  4020dd:	b8 00 00 00 00       	mov    $0x0,%eax
  4020e2:	e8 69 ed ff ff       	callq  400e50 <__fprintf_chk@plt>
  4020e7:	bf 01 00 00 00       	mov    $0x1,%edi
  4020ec:	e8 3f ed ff ff       	callq  400e30 <exit@plt>

00000000004020f1 <rio_readinitb>:
  4020f1:	89 37                	mov    %esi,(%rdi)
  4020f3:	c7 47 04 00 00 00 00 	movl   $0x0,0x4(%rdi)
  4020fa:	48 8d 47 10          	lea    0x10(%rdi),%rax
  4020fe:	48 89 47 08          	mov    %rax,0x8(%rdi)
  402102:	c3                   	retq   

0000000000402103 <sigalrm_handler>:
  402103:	48 83 ec 08          	sub    $0x8,%rsp
  402107:	b9 00 00 00 00       	mov    $0x0,%ecx
  40210c:	48 8d 15 bd 14 00 00 	lea    0x14bd(%rip),%rdx        # 4035d0 <trans_char+0x10>
  402113:	be 01 00 00 00       	mov    $0x1,%esi
  402118:	48 8b 3d a1 23 20 00 	mov    0x2023a1(%rip),%rdi        # 6044c0 <stderr@@GLIBC_2.2.5>
  40211f:	b8 00 00 00 00       	mov    $0x0,%eax
  402124:	e8 27 ed ff ff       	callq  400e50 <__fprintf_chk@plt>
  402129:	bf 01 00 00 00       	mov    $0x1,%edi
  40212e:	e8 fd ec ff ff       	callq  400e30 <exit@plt>

0000000000402133 <rio_writen>:
  402133:	41 55                	push   %r13
  402135:	41 54                	push   %r12
  402137:	55                   	push   %rbp
  402138:	53                   	push   %rbx
  402139:	48 83 ec 08          	sub    $0x8,%rsp
  40213d:	41 89 fc             	mov    %edi,%r12d
  402140:	48 89 f5             	mov    %rsi,%rbp
  402143:	49 89 d5             	mov    %rdx,%r13
  402146:	48 89 d3             	mov    %rdx,%rbx
  402149:	eb 06                	jmp    402151 <rio_writen+0x1e>
  40214b:	48 29 c3             	sub    %rax,%rbx
  40214e:	48 01 c5             	add    %rax,%rbp
  402151:	48 85 db             	test   %rbx,%rbx
  402154:	74 24                	je     40217a <rio_writen+0x47>
  402156:	48 89 da             	mov    %rbx,%rdx
  402159:	48 89 ee             	mov    %rbp,%rsi
  40215c:	44 89 e7             	mov    %r12d,%edi
  40215f:	e8 6c eb ff ff       	callq  400cd0 <write@plt>
  402164:	48 85 c0             	test   %rax,%rax
  402167:	7f e2                	jg     40214b <rio_writen+0x18>
  402169:	e8 12 eb ff ff       	callq  400c80 <__errno_location@plt>
  40216e:	83 38 04             	cmpl   $0x4,(%rax)
  402171:	75 15                	jne    402188 <rio_writen+0x55>
  402173:	b8 00 00 00 00       	mov    $0x0,%eax
  402178:	eb d1                	jmp    40214b <rio_writen+0x18>
  40217a:	4c 89 e8             	mov    %r13,%rax
  40217d:	48 83 c4 08          	add    $0x8,%rsp
  402181:	5b                   	pop    %rbx
  402182:	5d                   	pop    %rbp
  402183:	41 5c                	pop    %r12
  402185:	41 5d                	pop    %r13
  402187:	c3                   	retq   
  402188:	48 c7 c0 ff ff ff ff 	mov    $0xffffffffffffffff,%rax
  40218f:	eb ec                	jmp    40217d <rio_writen+0x4a>

0000000000402191 <rio_read>:
  402191:	41 55                	push   %r13
  402193:	41 54                	push   %r12
  402195:	55                   	push   %rbp
  402196:	53                   	push   %rbx
  402197:	48 83 ec 08          	sub    $0x8,%rsp
  40219b:	48 89 fb             	mov    %rdi,%rbx
  40219e:	49 89 f5             	mov    %rsi,%r13
  4021a1:	49 89 d4             	mov    %rdx,%r12
  4021a4:	eb 0a                	jmp    4021b0 <rio_read+0x1f>
  4021a6:	e8 d5 ea ff ff       	callq  400c80 <__errno_location@plt>
  4021ab:	83 38 04             	cmpl   $0x4,(%rax)
  4021ae:	75 5c                	jne    40220c <rio_read+0x7b>
  4021b0:	8b 6b 04             	mov    0x4(%rbx),%ebp
  4021b3:	85 ed                	test   %ebp,%ebp
  4021b5:	7f 24                	jg     4021db <rio_read+0x4a>
  4021b7:	48 8d 6b 10          	lea    0x10(%rbx),%rbp
  4021bb:	8b 3b                	mov    (%rbx),%edi
  4021bd:	ba 00 20 00 00       	mov    $0x2000,%edx
  4021c2:	48 89 ee             	mov    %rbp,%rsi
  4021c5:	e8 66 eb ff ff       	callq  400d30 <read@plt>
  4021ca:	89 43 04             	mov    %eax,0x4(%rbx)
  4021cd:	85 c0                	test   %eax,%eax
  4021cf:	78 d5                	js     4021a6 <rio_read+0x15>
  4021d1:	85 c0                	test   %eax,%eax
  4021d3:	74 40                	je     402215 <rio_read+0x84>
  4021d5:	48 89 6b 08          	mov    %rbp,0x8(%rbx)
  4021d9:	eb d5                	jmp    4021b0 <rio_read+0x1f>
  4021db:	89 e8                	mov    %ebp,%eax
  4021dd:	4c 39 e0             	cmp    %r12,%rax
  4021e0:	72 03                	jb     4021e5 <rio_read+0x54>
  4021e2:	44 89 e5             	mov    %r12d,%ebp
  4021e5:	4c 63 e5             	movslq %ebp,%r12
  4021e8:	48 8b 73 08          	mov    0x8(%rbx),%rsi
  4021ec:	4c 89 e2             	mov    %r12,%rdx
  4021ef:	4c 89 ef             	mov    %r13,%rdi
  4021f2:	e8 89 eb ff ff       	callq  400d80 <memcpy@plt>
  4021f7:	4c 01 63 08          	add    %r12,0x8(%rbx)
  4021fb:	29 6b 04             	sub    %ebp,0x4(%rbx)
  4021fe:	4c 89 e0             	mov    %r12,%rax
  402201:	48 83 c4 08          	add    $0x8,%rsp
  402205:	5b                   	pop    %rbx
  402206:	5d                   	pop    %rbp
  402207:	41 5c                	pop    %r12
  402209:	41 5d                	pop    %r13
  40220b:	c3                   	retq   
  40220c:	48 c7 c0 ff ff ff ff 	mov    $0xffffffffffffffff,%rax
  402213:	eb ec                	jmp    402201 <rio_read+0x70>
  402215:	b8 00 00 00 00       	mov    $0x0,%eax
  40221a:	eb e5                	jmp    402201 <rio_read+0x70>

000000000040221c <rio_readlineb>:
  40221c:	41 55                	push   %r13
  40221e:	41 54                	push   %r12
  402220:	55                   	push   %rbp
  402221:	53                   	push   %rbx
  402222:	48 83 ec 18          	sub    $0x18,%rsp
  402226:	49 89 fd             	mov    %rdi,%r13
  402229:	48 89 f5             	mov    %rsi,%rbp
  40222c:	49 89 d4             	mov    %rdx,%r12
  40222f:	64 48 8b 04 25 28 00 	mov    %fs:0x28,%rax
  402236:	00 00 
  402238:	48 89 44 24 08       	mov    %rax,0x8(%rsp)
  40223d:	31 c0                	xor    %eax,%eax
  40223f:	bb 01 00 00 00       	mov    $0x1,%ebx
  402244:	4c 39 e3             	cmp    %r12,%rbx
  402247:	73 47                	jae    402290 <rio_readlineb+0x74>
  402249:	48 8d 74 24 07       	lea    0x7(%rsp),%rsi
  40224e:	ba 01 00 00 00       	mov    $0x1,%edx
  402253:	4c 89 ef             	mov    %r13,%rdi
  402256:	e8 36 ff ff ff       	callq  402191 <rio_read>
  40225b:	83 f8 01             	cmp    $0x1,%eax
  40225e:	75 1c                	jne    40227c <rio_readlineb+0x60>
  402260:	48 8d 45 01          	lea    0x1(%rbp),%rax
  402264:	0f b6 54 24 07       	movzbl 0x7(%rsp),%edx
  402269:	88 55 00             	mov    %dl,0x0(%rbp)
  40226c:	80 7c 24 07 0a       	cmpb   $0xa,0x7(%rsp)
  402271:	74 1a                	je     40228d <rio_readlineb+0x71>
  402273:	48 83 c3 01          	add    $0x1,%rbx
  402277:	48 89 c5             	mov    %rax,%rbp
  40227a:	eb c8                	jmp    402244 <rio_readlineb+0x28>
  40227c:	85 c0                	test   %eax,%eax
  40227e:	75 32                	jne    4022b2 <rio_readlineb+0x96>
  402280:	48 83 fb 01          	cmp    $0x1,%rbx
  402284:	75 0a                	jne    402290 <rio_readlineb+0x74>
  402286:	b8 00 00 00 00       	mov    $0x0,%eax
  40228b:	eb 0a                	jmp    402297 <rio_readlineb+0x7b>
  40228d:	48 89 c5             	mov    %rax,%rbp
  402290:	c6 45 00 00          	movb   $0x0,0x0(%rbp)
  402294:	48 89 d8             	mov    %rbx,%rax
  402297:	48 8b 4c 24 08       	mov    0x8(%rsp),%rcx
  40229c:	64 48 33 0c 25 28 00 	xor    %fs:0x28,%rcx
  4022a3:	00 00 
  4022a5:	75 14                	jne    4022bb <rio_readlineb+0x9f>
  4022a7:	48 83 c4 18          	add    $0x18,%rsp
  4022ab:	5b                   	pop    %rbx
  4022ac:	5d                   	pop    %rbp
  4022ad:	41 5c                	pop    %r12
  4022af:	41 5d                	pop    %r13
  4022b1:	c3                   	retq   
  4022b2:	48 c7 c0 ff ff ff ff 	mov    $0xffffffffffffffff,%rax
  4022b9:	eb dc                	jmp    402297 <rio_readlineb+0x7b>
  4022bb:	e8 20 ea ff ff       	callq  400ce0 <__stack_chk_fail@plt>

00000000004022c0 <urlencode>:
  4022c0:	41 54                	push   %r12
  4022c2:	55                   	push   %rbp
  4022c3:	53                   	push   %rbx
  4022c4:	48 83 ec 10          	sub    $0x10,%rsp
  4022c8:	48 89 fb             	mov    %rdi,%rbx
  4022cb:	48 89 f5             	mov    %rsi,%rbp
  4022ce:	64 48 8b 04 25 28 00 	mov    %fs:0x28,%rax
  4022d5:	00 00 
  4022d7:	48 89 44 24 08       	mov    %rax,0x8(%rsp)
  4022dc:	31 c0                	xor    %eax,%eax
  4022de:	48 c7 c1 ff ff ff ff 	mov    $0xffffffffffffffff,%rcx
  4022e5:	f2 ae                	repnz scas %es:(%rdi),%al
  4022e7:	48 89 ce             	mov    %rcx,%rsi
  4022ea:	48 f7 d6             	not    %rsi
  4022ed:	8d 46 ff             	lea    -0x1(%rsi),%eax
  4022f0:	eb 0f                	jmp    402301 <urlencode+0x41>
  4022f2:	44 88 45 00          	mov    %r8b,0x0(%rbp)
  4022f6:	48 8d 6d 01          	lea    0x1(%rbp),%rbp
  4022fa:	48 83 c3 01          	add    $0x1,%rbx
  4022fe:	44 89 e0             	mov    %r12d,%eax
  402301:	44 8d 60 ff          	lea    -0x1(%rax),%r12d
  402305:	85 c0                	test   %eax,%eax
  402307:	0f 84 a8 00 00 00    	je     4023b5 <urlencode+0xf5>
  40230d:	44 0f b6 03          	movzbl (%rbx),%r8d
  402311:	41 80 f8 2a          	cmp    $0x2a,%r8b
  402315:	0f 94 c2             	sete   %dl
  402318:	41 80 f8 2d          	cmp    $0x2d,%r8b
  40231c:	0f 94 c0             	sete   %al
  40231f:	08 c2                	or     %al,%dl
  402321:	75 cf                	jne    4022f2 <urlencode+0x32>
  402323:	41 80 f8 2e          	cmp    $0x2e,%r8b
  402327:	74 c9                	je     4022f2 <urlencode+0x32>
  402329:	41 80 f8 5f          	cmp    $0x5f,%r8b
  40232d:	74 c3                	je     4022f2 <urlencode+0x32>
  40232f:	41 8d 40 d0          	lea    -0x30(%r8),%eax
  402333:	3c 09                	cmp    $0x9,%al
  402335:	76 bb                	jbe    4022f2 <urlencode+0x32>
  402337:	41 8d 40 bf          	lea    -0x41(%r8),%eax
  40233b:	3c 19                	cmp    $0x19,%al
  40233d:	76 b3                	jbe    4022f2 <urlencode+0x32>
  40233f:	41 8d 40 9f          	lea    -0x61(%r8),%eax
  402343:	3c 19                	cmp    $0x19,%al
  402345:	76 ab                	jbe    4022f2 <urlencode+0x32>
  402347:	41 80 f8 20          	cmp    $0x20,%r8b
  40234b:	74 56                	je     4023a3 <urlencode+0xe3>
  40234d:	41 8d 40 e0          	lea    -0x20(%r8),%eax
  402351:	3c 5f                	cmp    $0x5f,%al
  402353:	0f 96 c2             	setbe  %dl
  402356:	41 80 f8 09          	cmp    $0x9,%r8b
  40235a:	0f 94 c0             	sete   %al
  40235d:	08 c2                	or     %al,%dl
  40235f:	74 4f                	je     4023b0 <urlencode+0xf0>
  402361:	48 89 e7             	mov    %rsp,%rdi
  402364:	45 0f b6 c0          	movzbl %r8b,%r8d
  402368:	48 8d 0d f9 12 00 00 	lea    0x12f9(%rip),%rcx        # 403668 <trans_char+0xa8>
  40236f:	ba 08 00 00 00       	mov    $0x8,%edx
  402374:	be 01 00 00 00       	mov    $0x1,%esi
  402379:	b8 00 00 00 00       	mov    $0x0,%eax
  40237e:	e8 dd ea ff ff       	callq  400e60 <__sprintf_chk@plt>
  402383:	0f b6 04 24          	movzbl (%rsp),%eax
  402387:	88 45 00             	mov    %al,0x0(%rbp)
  40238a:	0f b6 44 24 01       	movzbl 0x1(%rsp),%eax
  40238f:	88 45 01             	mov    %al,0x1(%rbp)
  402392:	0f b6 44 24 02       	movzbl 0x2(%rsp),%eax
  402397:	88 45 02             	mov    %al,0x2(%rbp)
  40239a:	48 8d 6d 03          	lea    0x3(%rbp),%rbp
  40239e:	e9 57 ff ff ff       	jmpq   4022fa <urlencode+0x3a>
  4023a3:	c6 45 00 2b          	movb   $0x2b,0x0(%rbp)
  4023a7:	48 8d 6d 01          	lea    0x1(%rbp),%rbp
  4023ab:	e9 4a ff ff ff       	jmpq   4022fa <urlencode+0x3a>
  4023b0:	b8 ff ff ff ff       	mov    $0xffffffff,%eax
  4023b5:	48 8b 74 24 08       	mov    0x8(%rsp),%rsi
  4023ba:	64 48 33 34 25 28 00 	xor    %fs:0x28,%rsi
  4023c1:	00 00 
  4023c3:	75 09                	jne    4023ce <urlencode+0x10e>
  4023c5:	48 83 c4 10          	add    $0x10,%rsp
  4023c9:	5b                   	pop    %rbx
  4023ca:	5d                   	pop    %rbp
  4023cb:	41 5c                	pop    %r12
  4023cd:	c3                   	retq   
  4023ce:	e8 0d e9 ff ff       	callq  400ce0 <__stack_chk_fail@plt>

00000000004023d3 <submitr>:
  4023d3:	41 57                	push   %r15
  4023d5:	41 56                	push   %r14
  4023d7:	41 55                	push   %r13
  4023d9:	41 54                	push   %r12
  4023db:	55                   	push   %rbp
  4023dc:	53                   	push   %rbx
  4023dd:	48 81 ec 68 a0 00 00 	sub    $0xa068,%rsp
  4023e4:	49 89 fd             	mov    %rdi,%r13
  4023e7:	89 74 24 14          	mov    %esi,0x14(%rsp)
  4023eb:	49 89 d7             	mov    %rdx,%r15
  4023ee:	48 89 4c 24 08       	mov    %rcx,0x8(%rsp)
  4023f3:	4c 89 44 24 18       	mov    %r8,0x18(%rsp)
  4023f8:	4d 89 ce             	mov    %r9,%r14
  4023fb:	48 8b ac 24 a0 a0 00 	mov    0xa0a0(%rsp),%rbp
  402402:	00 
  402403:	64 48 8b 04 25 28 00 	mov    %fs:0x28,%rax
  40240a:	00 00 
  40240c:	48 89 84 24 58 a0 00 	mov    %rax,0xa058(%rsp)
  402413:	00 
  402414:	31 c0                	xor    %eax,%eax
  402416:	c7 44 24 2c 00 00 00 	movl   $0x0,0x2c(%rsp)
  40241d:	00 
  40241e:	ba 00 00 00 00       	mov    $0x0,%edx
  402423:	be 01 00 00 00       	mov    $0x1,%esi
  402428:	bf 02 00 00 00       	mov    $0x2,%edi
  40242d:	e8 3e ea ff ff       	callq  400e70 <socket@plt>
  402432:	85 c0                	test   %eax,%eax
  402434:	0f 88 a9 02 00 00    	js     4026e3 <submitr+0x310>
  40243a:	89 c3                	mov    %eax,%ebx
  40243c:	4c 89 ef             	mov    %r13,%rdi
  40243f:	e8 0c e9 ff ff       	callq  400d50 <gethostbyname@plt>
  402444:	48 85 c0             	test   %rax,%rax
  402447:	0f 84 e2 02 00 00    	je     40272f <submitr+0x35c>
  40244d:	4c 8d 64 24 30       	lea    0x30(%rsp),%r12
  402452:	48 c7 44 24 32 00 00 	movq   $0x0,0x32(%rsp)
  402459:	00 00 
  40245b:	c7 44 24 3a 00 00 00 	movl   $0x0,0x3a(%rsp)
  402462:	00 
  402463:	66 c7 44 24 3e 00 00 	movw   $0x0,0x3e(%rsp)
  40246a:	66 c7 44 24 30 02 00 	movw   $0x2,0x30(%rsp)
  402471:	48 63 50 14          	movslq 0x14(%rax),%rdx
  402475:	48 8b 40 18          	mov    0x18(%rax),%rax
  402479:	48 8b 30             	mov    (%rax),%rsi
  40247c:	48 8d 7c 24 34       	lea    0x34(%rsp),%rdi
  402481:	b9 0c 00 00 00       	mov    $0xc,%ecx
  402486:	e8 d5 e8 ff ff       	callq  400d60 <__memmove_chk@plt>
  40248b:	0f b7 44 24 14       	movzwl 0x14(%rsp),%eax
  402490:	66 c1 c8 08          	ror    $0x8,%ax
  402494:	66 89 44 24 32       	mov    %ax,0x32(%rsp)
  402499:	ba 10 00 00 00       	mov    $0x10,%edx
  40249e:	4c 89 e6             	mov    %r12,%rsi
  4024a1:	89 df                	mov    %ebx,%edi
  4024a3:	e8 98 e9 ff ff       	callq  400e40 <connect@plt>
  4024a8:	85 c0                	test   %eax,%eax
  4024aa:	0f 88 e7 02 00 00    	js     402797 <submitr+0x3c4>
  4024b0:	48 c7 c6 ff ff ff ff 	mov    $0xffffffffffffffff,%rsi
  4024b7:	b8 00 00 00 00       	mov    $0x0,%eax
  4024bc:	48 89 f1             	mov    %rsi,%rcx
  4024bf:	4c 89 f7             	mov    %r14,%rdi
  4024c2:	f2 ae                	repnz scas %es:(%rdi),%al
  4024c4:	48 89 ca             	mov    %rcx,%rdx
  4024c7:	48 f7 d2             	not    %rdx
  4024ca:	48 89 f1             	mov    %rsi,%rcx
  4024cd:	4c 89 ff             	mov    %r15,%rdi
  4024d0:	f2 ae                	repnz scas %es:(%rdi),%al
  4024d2:	48 f7 d1             	not    %rcx
  4024d5:	49 89 c8             	mov    %rcx,%r8
  4024d8:	48 89 f1             	mov    %rsi,%rcx
  4024db:	48 8b 7c 24 08       	mov    0x8(%rsp),%rdi
  4024e0:	f2 ae                	repnz scas %es:(%rdi),%al
  4024e2:	48 f7 d1             	not    %rcx
  4024e5:	4d 8d 44 08 fe       	lea    -0x2(%r8,%rcx,1),%r8
  4024ea:	48 89 f1             	mov    %rsi,%rcx
  4024ed:	48 8b 7c 24 18       	mov    0x18(%rsp),%rdi
  4024f2:	f2 ae                	repnz scas %es:(%rdi),%al
  4024f4:	48 89 c8             	mov    %rcx,%rax
  4024f7:	48 f7 d0             	not    %rax
  4024fa:	49 8d 4c 00 ff       	lea    -0x1(%r8,%rax,1),%rcx
  4024ff:	48 8d 44 52 fd       	lea    -0x3(%rdx,%rdx,2),%rax
  402504:	48 8d 84 01 80 00 00 	lea    0x80(%rcx,%rax,1),%rax
  40250b:	00 
  40250c:	48 3d 00 20 00 00    	cmp    $0x2000,%rax
  402512:	0f 87 d9 02 00 00    	ja     4027f1 <submitr+0x41e>
  402518:	48 8d b4 24 50 40 00 	lea    0x4050(%rsp),%rsi
  40251f:	00 
  402520:	b9 00 04 00 00       	mov    $0x400,%ecx
  402525:	b8 00 00 00 00       	mov    $0x0,%eax
  40252a:	48 89 f7             	mov    %rsi,%rdi
  40252d:	f3 48 ab             	rep stos %rax,%es:(%rdi)
  402530:	4c 89 f7             	mov    %r14,%rdi
  402533:	e8 88 fd ff ff       	callq  4022c0 <urlencode>
  402538:	85 c0                	test   %eax,%eax
  40253a:	0f 88 24 03 00 00    	js     402864 <submitr+0x491>
  402540:	4c 8d a4 24 50 20 00 	lea    0x2050(%rsp),%r12
  402547:	00 
  402548:	41 55                	push   %r13
  40254a:	48 8d 84 24 58 40 00 	lea    0x4058(%rsp),%rax
  402551:	00 
  402552:	50                   	push   %rax
  402553:	4d 89 f9             	mov    %r15,%r9
  402556:	4c 8b 44 24 18       	mov    0x18(%rsp),%r8
  40255b:	48 8d 0d 96 10 00 00 	lea    0x1096(%rip),%rcx        # 4035f8 <trans_char+0x38>
  402562:	ba 00 20 00 00       	mov    $0x2000,%edx
  402567:	be 01 00 00 00       	mov    $0x1,%esi
  40256c:	4c 89 e7             	mov    %r12,%rdi
  40256f:	b8 00 00 00 00       	mov    $0x0,%eax
  402574:	e8 e7 e8 ff ff       	callq  400e60 <__sprintf_chk@plt>
  402579:	48 c7 c1 ff ff ff ff 	mov    $0xffffffffffffffff,%rcx
  402580:	b8 00 00 00 00       	mov    $0x0,%eax
  402585:	4c 89 e7             	mov    %r12,%rdi
  402588:	f2 ae                	repnz scas %es:(%rdi),%al
  40258a:	48 89 ca             	mov    %rcx,%rdx
  40258d:	48 f7 d2             	not    %rdx
  402590:	48 8d 52 ff          	lea    -0x1(%rdx),%rdx
  402594:	4c 89 e6             	mov    %r12,%rsi
  402597:	89 df                	mov    %ebx,%edi
  402599:	e8 95 fb ff ff       	callq  402133 <rio_writen>
  40259e:	48 83 c4 10          	add    $0x10,%rsp
  4025a2:	48 85 c0             	test   %rax,%rax
  4025a5:	0f 88 44 03 00 00    	js     4028ef <submitr+0x51c>
  4025ab:	4c 8d 64 24 40       	lea    0x40(%rsp),%r12
  4025b0:	89 de                	mov    %ebx,%esi
  4025b2:	4c 89 e7             	mov    %r12,%rdi
  4025b5:	e8 37 fb ff ff       	callq  4020f1 <rio_readinitb>
  4025ba:	48 8d b4 24 50 20 00 	lea    0x2050(%rsp),%rsi
  4025c1:	00 
  4025c2:	ba 00 20 00 00       	mov    $0x2000,%edx
  4025c7:	4c 89 e7             	mov    %r12,%rdi
  4025ca:	e8 4d fc ff ff       	callq  40221c <rio_readlineb>
  4025cf:	48 85 c0             	test   %rax,%rax
  4025d2:	0f 8e 86 03 00 00    	jle    40295e <submitr+0x58b>
  4025d8:	48 8d 4c 24 2c       	lea    0x2c(%rsp),%rcx
  4025dd:	48 8d 94 24 50 60 00 	lea    0x6050(%rsp),%rdx
  4025e4:	00 
  4025e5:	48 8d bc 24 50 20 00 	lea    0x2050(%rsp),%rdi
  4025ec:	00 
  4025ed:	4c 8d 84 24 50 80 00 	lea    0x8050(%rsp),%r8
  4025f4:	00 
  4025f5:	48 8d 35 73 10 00 00 	lea    0x1073(%rip),%rsi        # 40366f <trans_char+0xaf>
  4025fc:	b8 00 00 00 00       	mov    $0x0,%eax
  402601:	e8 ba e7 ff ff       	callq  400dc0 <__isoc99_sscanf@plt>
  402606:	48 8d b4 24 50 20 00 	lea    0x2050(%rsp),%rsi
  40260d:	00 
  40260e:	b9 03 00 00 00       	mov    $0x3,%ecx
  402613:	48 8d 3d 6c 10 00 00 	lea    0x106c(%rip),%rdi        # 403686 <trans_char+0xc6>
  40261a:	f3 a6                	repz cmpsb %es:(%rdi),%ds:(%rsi)
  40261c:	0f 97 c0             	seta   %al
  40261f:	1c 00                	sbb    $0x0,%al
  402621:	84 c0                	test   %al,%al
  402623:	0f 84 b3 03 00 00    	je     4029dc <submitr+0x609>
  402629:	48 8d b4 24 50 20 00 	lea    0x2050(%rsp),%rsi
  402630:	00 
  402631:	48 8d 7c 24 40       	lea    0x40(%rsp),%rdi
  402636:	ba 00 20 00 00       	mov    $0x2000,%edx
  40263b:	e8 dc fb ff ff       	callq  40221c <rio_readlineb>
  402640:	48 85 c0             	test   %rax,%rax
  402643:	7f c1                	jg     402606 <submitr+0x233>
  402645:	48 b8 45 72 72 6f 72 	movabs $0x43203a726f727245,%rax
  40264c:	3a 20 43 
  40264f:	48 ba 6c 69 65 6e 74 	movabs $0x6e7520746e65696c,%rdx
  402656:	20 75 6e 
  402659:	48 89 45 00          	mov    %rax,0x0(%rbp)
  40265d:	48 89 55 08          	mov    %rdx,0x8(%rbp)
  402661:	48 b8 61 62 6c 65 20 	movabs $0x206f7420656c6261,%rax
  402668:	74 6f 20 
  40266b:	48 ba 72 65 61 64 20 	movabs $0x6165682064616572,%rdx
  402672:	68 65 61 
  402675:	48 89 45 10          	mov    %rax,0x10(%rbp)
  402679:	48 89 55 18          	mov    %rdx,0x18(%rbp)
  40267d:	48 b8 64 65 72 73 20 	movabs $0x6f72662073726564,%rax
  402684:	66 72 6f 
  402687:	48 ba 6d 20 74 68 65 	movabs $0x657220656874206d,%rdx
  40268e:	20 72 65 
  402691:	48 89 45 20          	mov    %rax,0x20(%rbp)
  402695:	48 89 55 28          	mov    %rdx,0x28(%rbp)
  402699:	48 b8 73 75 6c 74 20 	movabs $0x72657320746c7573,%rax
  4026a0:	73 65 72 
  4026a3:	48 89 45 30          	mov    %rax,0x30(%rbp)
  4026a7:	c7 45 38 76 65 72 00 	movl   $0x726576,0x38(%rbp)
  4026ae:	89 df                	mov    %ebx,%edi
  4026b0:	e8 6b e6 ff ff       	callq  400d20 <close@plt>
  4026b5:	b8 ff ff ff ff       	mov    $0xffffffff,%eax
  4026ba:	48 8b 9c 24 58 a0 00 	mov    0xa058(%rsp),%rbx
  4026c1:	00 
  4026c2:	64 48 33 1c 25 28 00 	xor    %fs:0x28,%rbx
  4026c9:	00 00 
  4026cb:	0f 85 7e 04 00 00    	jne    402b4f <submitr+0x77c>
  4026d1:	48 81 c4 68 a0 00 00 	add    $0xa068,%rsp
  4026d8:	5b                   	pop    %rbx
  4026d9:	5d                   	pop    %rbp
  4026da:	41 5c                	pop    %r12
  4026dc:	41 5d                	pop    %r13
  4026de:	41 5e                	pop    %r14
  4026e0:	41 5f                	pop    %r15
  4026e2:	c3                   	retq   
  4026e3:	48 b8 45 72 72 6f 72 	movabs $0x43203a726f727245,%rax
  4026ea:	3a 20 43 
  4026ed:	48 ba 6c 69 65 6e 74 	movabs $0x6e7520746e65696c,%rdx
  4026f4:	20 75 6e 
  4026f7:	48 89 45 00          	mov    %rax,0x0(%rbp)
  4026fb:	48 89 55 08          	mov    %rdx,0x8(%rbp)
  4026ff:	48 b8 61 62 6c 65 20 	movabs $0x206f7420656c6261,%rax
  402706:	74 6f 20 
  402709:	48 ba 63 72 65 61 74 	movabs $0x7320657461657263,%rdx
  402710:	65 20 73 
  402713:	48 89 45 10          	mov    %rax,0x10(%rbp)
  402717:	48 89 55 18          	mov    %rdx,0x18(%rbp)
  40271b:	c7 45 20 6f 63 6b 65 	movl   $0x656b636f,0x20(%rbp)
  402722:	66 c7 45 24 74 00    	movw   $0x74,0x24(%rbp)
  402728:	b8 ff ff ff ff       	mov    $0xffffffff,%eax
  40272d:	eb 8b                	jmp    4026ba <submitr+0x2e7>
  40272f:	48 b8 45 72 72 6f 72 	movabs $0x44203a726f727245,%rax
  402736:	3a 20 44 
  402739:	48 ba 4e 53 20 69 73 	movabs $0x6e7520736920534e,%rdx
  402740:	20 75 6e 
  402743:	48 89 45 00          	mov    %rax,0x0(%rbp)
  402747:	48 89 55 08          	mov    %rdx,0x8(%rbp)
  40274b:	48 b8 61 62 6c 65 20 	movabs $0x206f7420656c6261,%rax
  402752:	74 6f 20 
  402755:	48 ba 72 65 73 6f 6c 	movabs $0x2065766c6f736572,%rdx
  40275c:	76 65 20 
  40275f:	48 89 45 10          	mov    %rax,0x10(%rbp)
  402763:	48 89 55 18          	mov    %rdx,0x18(%rbp)
  402767:	48 b8 73 65 72 76 65 	movabs $0x6120726576726573,%rax
  40276e:	72 20 61 
  402771:	48 89 45 20          	mov    %rax,0x20(%rbp)
  402775:	c7 45 28 64 64 72 65 	movl   $0x65726464,0x28(%rbp)
  40277c:	66 c7 45 2c 73 73    	movw   $0x7373,0x2c(%rbp)
  402782:	c6 45 2e 00          	movb   $0x0,0x2e(%rbp)
  402786:	89 df                	mov    %ebx,%edi
  402788:	e8 93 e5 ff ff       	callq  400d20 <close@plt>
  40278d:	b8 ff ff ff ff       	mov    $0xffffffff,%eax
  402792:	e9 23 ff ff ff       	jmpq   4026ba <submitr+0x2e7>
  402797:	48 b8 45 72 72 6f 72 	movabs $0x55203a726f727245,%rax
  40279e:	3a 20 55 
  4027a1:	48 ba 6e 61 62 6c 65 	movabs $0x6f7420656c62616e,%rdx
  4027a8:	20 74 6f 
  4027ab:	48 89 45 00          	mov    %rax,0x0(%rbp)
  4027af:	48 89 55 08          	mov    %rdx,0x8(%rbp)
  4027b3:	48 b8 20 63 6f 6e 6e 	movabs $0x7463656e6e6f6320,%rax
  4027ba:	65 63 74 
  4027bd:	48 ba 20 74 6f 20 74 	movabs $0x20656874206f7420,%rdx
  4027c4:	68 65 20 
  4027c7:	48 89 45 10          	mov    %rax,0x10(%rbp)
  4027cb:	48 89 55 18          	mov    %rdx,0x18(%rbp)
  4027cf:	c7 45 20 73 65 72 76 	movl   $0x76726573,0x20(%rbp)
  4027d6:	66 c7 45 24 65 72    	movw   $0x7265,0x24(%rbp)
  4027dc:	c6 45 26 00          	movb   $0x0,0x26(%rbp)
  4027e0:	89 df                	mov    %ebx,%edi
  4027e2:	e8 39 e5 ff ff       	callq  400d20 <close@plt>
  4027e7:	b8 ff ff ff ff       	mov    $0xffffffff,%eax
  4027ec:	e9 c9 fe ff ff       	jmpq   4026ba <submitr+0x2e7>
  4027f1:	48 b8 45 72 72 6f 72 	movabs $0x52203a726f727245,%rax
  4027f8:	3a 20 52 
  4027fb:	48 ba 65 73 75 6c 74 	movabs $0x747320746c757365,%rdx
  402802:	20 73 74 
  402805:	48 89 45 00          	mov    %rax,0x0(%rbp)
  402809:	48 89 55 08          	mov    %rdx,0x8(%rbp)
  40280d:	48 b8 72 69 6e 67 20 	movabs $0x6f6f7420676e6972,%rax
  402814:	74 6f 6f 
  402817:	48 ba 20 6c 61 72 67 	movabs $0x202e656772616c20,%rdx
  40281e:	65 2e 20 
  402821:	48 89 45 10          	mov    %rax,0x10(%rbp)
  402825:	48 89 55 18          	mov    %rdx,0x18(%rbp)
  402829:	48 b8 49 6e 63 72 65 	movabs $0x6573616572636e49,%rax
  402830:	61 73 65 
  402833:	48 ba 20 53 55 42 4d 	movabs $0x5254494d42555320,%rdx
  40283a:	49 54 52 
  40283d:	48 89 45 20          	mov    %rax,0x20(%rbp)
  402841:	48 89 55 28          	mov    %rdx,0x28(%rbp)
  402845:	48 b8 5f 4d 41 58 42 	movabs $0x46554258414d5f,%rax
  40284c:	55 46 00 
  40284f:	48 89 45 30          	mov    %rax,0x30(%rbp)
  402853:	89 df                	mov    %ebx,%edi
  402855:	e8 c6 e4 ff ff       	callq  400d20 <close@plt>
  40285a:	b8 ff ff ff ff       	mov    $0xffffffff,%eax
  40285f:	e9 56 fe ff ff       	jmpq   4026ba <submitr+0x2e7>
  402864:	48 b8 45 72 72 6f 72 	movabs $0x52203a726f727245,%rax
  40286b:	3a 20 52 
  40286e:	48 ba 65 73 75 6c 74 	movabs $0x747320746c757365,%rdx
  402875:	20 73 74 
  402878:	48 89 45 00          	mov    %rax,0x0(%rbp)
  40287c:	48 89 55 08          	mov    %rdx,0x8(%rbp)
  402880:	48 b8 72 69 6e 67 20 	movabs $0x6e6f6320676e6972,%rax
  402887:	63 6f 6e 
  40288a:	48 ba 74 61 69 6e 73 	movabs $0x6e6120736e696174,%rdx
  402891:	20 61 6e 
  402894:	48 89 45 10          	mov    %rax,0x10(%rbp)
  402898:	48 89 55 18          	mov    %rdx,0x18(%rbp)
  40289c:	48 b8 20 69 6c 6c 65 	movabs $0x6c6167656c6c6920,%rax
  4028a3:	67 61 6c 
  4028a6:	48 ba 20 6f 72 20 75 	movabs $0x72706e7520726f20,%rdx
  4028ad:	6e 70 72 
  4028b0:	48 89 45 20          	mov    %rax,0x20(%rbp)
  4028b4:	48 89 55 28          	mov    %rdx,0x28(%rbp)
  4028b8:	48 b8 69 6e 74 61 62 	movabs $0x20656c6261746e69,%rax
  4028bf:	6c 65 20 
  4028c2:	48 ba 63 68 61 72 61 	movabs $0x6574636172616863,%rdx
  4028c9:	63 74 65 
  4028cc:	48 89 45 30          	mov    %rax,0x30(%rbp)
  4028d0:	48 89 55 38          	mov    %rdx,0x38(%rbp)
  4028d4:	66 c7 45 40 72 2e    	movw   $0x2e72,0x40(%rbp)
  4028da:	c6 45 42 00          	movb   $0x0,0x42(%rbp)
  4028de:	89 df                	mov    %ebx,%edi
  4028e0:	e8 3b e4 ff ff       	callq  400d20 <close@plt>
  4028e5:	b8 ff ff ff ff       	mov    $0xffffffff,%eax
  4028ea:	e9 cb fd ff ff       	jmpq   4026ba <submitr+0x2e7>
  4028ef:	48 b8 45 72 72 6f 72 	movabs $0x43203a726f727245,%rax
  4028f6:	3a 20 43 
  4028f9:	48 ba 6c 69 65 6e 74 	movabs $0x6e7520746e65696c,%rdx
  402900:	20 75 6e 
  402903:	48 89 45 00          	mov    %rax,0x0(%rbp)
  402907:	48 89 55 08          	mov    %rdx,0x8(%rbp)
  40290b:	48 b8 61 62 6c 65 20 	movabs $0x206f7420656c6261,%rax
  402912:	74 6f 20 
  402915:	48 ba 77 72 69 74 65 	movabs $0x6f74206574697277,%rdx
  40291c:	20 74 6f 
  40291f:	48 89 45 10          	mov    %rax,0x10(%rbp)
  402923:	48 89 55 18          	mov    %rdx,0x18(%rbp)
  402927:	48 b8 20 74 68 65 20 	movabs $0x7365722065687420,%rax
  40292e:	72 65 73 
  402931:	48 ba 75 6c 74 20 73 	movabs $0x7672657320746c75,%rdx
  402938:	65 72 76 
  40293b:	48 89 45 20          	mov    %rax,0x20(%rbp)
  40293f:	48 89 55 28          	mov    %rdx,0x28(%rbp)
  402943:	66 c7 45 30 65 72    	movw   $0x7265,0x30(%rbp)
  402949:	c6 45 32 00          	movb   $0x0,0x32(%rbp)
  40294d:	89 df                	mov    %ebx,%edi
  40294f:	e8 cc e3 ff ff       	callq  400d20 <close@plt>
  402954:	b8 ff ff ff ff       	mov    $0xffffffff,%eax
  402959:	e9 5c fd ff ff       	jmpq   4026ba <submitr+0x2e7>
  40295e:	48 b8 45 72 72 6f 72 	movabs $0x43203a726f727245,%rax
  402965:	3a 20 43 
  402968:	48 ba 6c 69 65 6e 74 	movabs $0x6e7520746e65696c,%rdx
  40296f:	20 75 6e 
  402972:	48 89 45 00          	mov    %rax,0x0(%rbp)
  402976:	48 89 55 08          	mov    %rdx,0x8(%rbp)
  40297a:	48 b8 61 62 6c 65 20 	movabs $0x206f7420656c6261,%rax
  402981:	74 6f 20 
  402984:	48 ba 72 65 61 64 20 	movabs $0x7269662064616572,%rdx
  40298b:	66 69 72 
  40298e:	48 89 45 10          	mov    %rax,0x10(%rbp)
  402992:	48 89 55 18          	mov    %rdx,0x18(%rbp)
  402996:	48 b8 73 74 20 68 65 	movabs $0x6564616568207473,%rax
  40299d:	61 64 65 
  4029a0:	48 ba 72 20 66 72 6f 	movabs $0x72206d6f72662072,%rdx
  4029a7:	6d 20 72 
  4029aa:	48 89 45 20          	mov    %rax,0x20(%rbp)
  4029ae:	48 89 55 28          	mov    %rdx,0x28(%rbp)
  4029b2:	48 b8 65 73 75 6c 74 	movabs $0x657320746c757365,%rax
  4029b9:	20 73 65 
  4029bc:	48 89 45 30          	mov    %rax,0x30(%rbp)
  4029c0:	c7 45 38 72 76 65 72 	movl   $0x72657672,0x38(%rbp)
  4029c7:	c6 45 3c 00          	movb   $0x0,0x3c(%rbp)
  4029cb:	89 df                	mov    %ebx,%edi
  4029cd:	e8 4e e3 ff ff       	callq  400d20 <close@plt>
  4029d2:	b8 ff ff ff ff       	mov    $0xffffffff,%eax
  4029d7:	e9 de fc ff ff       	jmpq   4026ba <submitr+0x2e7>
  4029dc:	48 8d b4 24 50 20 00 	lea    0x2050(%rsp),%rsi
  4029e3:	00 
  4029e4:	48 8d 7c 24 40       	lea    0x40(%rsp),%rdi
  4029e9:	ba 00 20 00 00       	mov    $0x2000,%edx
  4029ee:	e8 29 f8 ff ff       	callq  40221c <rio_readlineb>
  4029f3:	48 85 c0             	test   %rax,%rax
  4029f6:	0f 8e 96 00 00 00    	jle    402a92 <submitr+0x6bf>
  4029fc:	44 8b 44 24 2c       	mov    0x2c(%rsp),%r8d
  402a01:	41 81 f8 c8 00 00 00 	cmp    $0xc8,%r8d
  402a08:	0f 85 08 01 00 00    	jne    402b16 <submitr+0x743>
  402a0e:	48 8d b4 24 50 20 00 	lea    0x2050(%rsp),%rsi
  402a15:	00 
  402a16:	48 89 ef             	mov    %rbp,%rdi
  402a19:	e8 92 e2 ff ff       	callq  400cb0 <strcpy@plt>
  402a1e:	89 df                	mov    %ebx,%edi
  402a20:	e8 fb e2 ff ff       	callq  400d20 <close@plt>
  402a25:	b9 04 00 00 00       	mov    $0x4,%ecx
  402a2a:	48 8d 3d 4f 0c 00 00 	lea    0xc4f(%rip),%rdi        # 403680 <trans_char+0xc0>
  402a31:	48 89 ee             	mov    %rbp,%rsi
  402a34:	f3 a6                	repz cmpsb %es:(%rdi),%ds:(%rsi)
  402a36:	0f 97 c0             	seta   %al
  402a39:	1c 00                	sbb    $0x0,%al
  402a3b:	0f be c0             	movsbl %al,%eax
  402a3e:	85 c0                	test   %eax,%eax
  402a40:	0f 84 74 fc ff ff    	je     4026ba <submitr+0x2e7>
  402a46:	b9 05 00 00 00       	mov    $0x5,%ecx
  402a4b:	48 8d 3d 32 0c 00 00 	lea    0xc32(%rip),%rdi        # 403684 <trans_char+0xc4>
  402a52:	48 89 ee             	mov    %rbp,%rsi
  402a55:	f3 a6                	repz cmpsb %es:(%rdi),%ds:(%rsi)
  402a57:	0f 97 c0             	seta   %al
  402a5a:	1c 00                	sbb    $0x0,%al
  402a5c:	0f be c0             	movsbl %al,%eax
  402a5f:	85 c0                	test   %eax,%eax
  402a61:	0f 84 53 fc ff ff    	je     4026ba <submitr+0x2e7>
  402a67:	b9 03 00 00 00       	mov    $0x3,%ecx
  402a6c:	48 8d 3d 16 0c 00 00 	lea    0xc16(%rip),%rdi        # 403689 <trans_char+0xc9>
  402a73:	48 89 ee             	mov    %rbp,%rsi
  402a76:	f3 a6                	repz cmpsb %es:(%rdi),%ds:(%rsi)
  402a78:	0f 97 c0             	seta   %al
  402a7b:	1c 00                	sbb    $0x0,%al
  402a7d:	0f be c0             	movsbl %al,%eax
  402a80:	85 c0                	test   %eax,%eax
  402a82:	0f 84 32 fc ff ff    	je     4026ba <submitr+0x2e7>
  402a88:	b8 ff ff ff ff       	mov    $0xffffffff,%eax
  402a8d:	e9 28 fc ff ff       	jmpq   4026ba <submitr+0x2e7>
  402a92:	48 b8 45 72 72 6f 72 	movabs $0x43203a726f727245,%rax
  402a99:	3a 20 43 
  402a9c:	48 ba 6c 69 65 6e 74 	movabs $0x6e7520746e65696c,%rdx
  402aa3:	20 75 6e 
  402aa6:	48 89 45 00          	mov    %rax,0x0(%rbp)
  402aaa:	48 89 55 08          	mov    %rdx,0x8(%rbp)
  402aae:	48 b8 61 62 6c 65 20 	movabs $0x206f7420656c6261,%rax
  402ab5:	74 6f 20 
  402ab8:	48 ba 72 65 61 64 20 	movabs $0x6174732064616572,%rdx
  402abf:	73 74 61 
  402ac2:	48 89 45 10          	mov    %rax,0x10(%rbp)
  402ac6:	48 89 55 18          	mov    %rdx,0x18(%rbp)
  402aca:	48 b8 74 75 73 20 6d 	movabs $0x7373656d20737574,%rax
  402ad1:	65 73 73 
  402ad4:	48 ba 61 67 65 20 66 	movabs $0x6d6f726620656761,%rdx
  402adb:	72 6f 6d 
  402ade:	48 89 45 20          	mov    %rax,0x20(%rbp)
  402ae2:	48 89 55 28          	mov    %rdx,0x28(%rbp)
  402ae6:	48 b8 20 72 65 73 75 	movabs $0x20746c7573657220,%rax
  402aed:	6c 74 20 
  402af0:	48 89 45 30          	mov    %rax,0x30(%rbp)
  402af4:	c7 45 38 73 65 72 76 	movl   $0x76726573,0x38(%rbp)
  402afb:	66 c7 45 3c 65 72    	movw   $0x7265,0x3c(%rbp)
  402b01:	c6 45 3e 00          	movb   $0x0,0x3e(%rbp)
  402b05:	89 df                	mov    %ebx,%edi
  402b07:	e8 14 e2 ff ff       	callq  400d20 <close@plt>
  402b0c:	b8 ff ff ff ff       	mov    $0xffffffff,%eax
  402b11:	e9 a4 fb ff ff       	jmpq   4026ba <submitr+0x2e7>
  402b16:	4c 8d 8c 24 50 80 00 	lea    0x8050(%rsp),%r9
  402b1d:	00 
  402b1e:	48 8d 0d 13 0b 00 00 	lea    0xb13(%rip),%rcx        # 403638 <trans_char+0x78>
  402b25:	48 c7 c2 ff ff ff ff 	mov    $0xffffffffffffffff,%rdx
  402b2c:	be 01 00 00 00       	mov    $0x1,%esi
  402b31:	48 89 ef             	mov    %rbp,%rdi
  402b34:	b8 00 00 00 00       	mov    $0x0,%eax
  402b39:	e8 22 e3 ff ff       	callq  400e60 <__sprintf_chk@plt>
  402b3e:	89 df                	mov    %ebx,%edi
  402b40:	e8 db e1 ff ff       	callq  400d20 <close@plt>
  402b45:	b8 ff ff ff ff       	mov    $0xffffffff,%eax
  402b4a:	e9 6b fb ff ff       	jmpq   4026ba <submitr+0x2e7>
  402b4f:	e8 8c e1 ff ff       	callq  400ce0 <__stack_chk_fail@plt>

0000000000402b54 <init_timeout>:
  402b54:	85 ff                	test   %edi,%edi
  402b56:	74 28                	je     402b80 <init_timeout+0x2c>
  402b58:	53                   	push   %rbx
  402b59:	89 fb                	mov    %edi,%ebx
  402b5b:	85 ff                	test   %edi,%edi
  402b5d:	78 1a                	js     402b79 <init_timeout+0x25>
  402b5f:	48 8d 35 9d f5 ff ff 	lea    -0xa63(%rip),%rsi        # 402103 <sigalrm_handler>
  402b66:	bf 0e 00 00 00       	mov    $0xe,%edi
  402b6b:	e8 d0 e1 ff ff       	callq  400d40 <signal@plt>
  402b70:	89 df                	mov    %ebx,%edi
  402b72:	e8 99 e1 ff ff       	callq  400d10 <alarm@plt>
  402b77:	5b                   	pop    %rbx
  402b78:	c3                   	retq   
  402b79:	bb 00 00 00 00       	mov    $0x0,%ebx
  402b7e:	eb df                	jmp    402b5f <init_timeout+0xb>
  402b80:	f3 c3                	repz retq 

0000000000402b82 <init_driver>:
  402b82:	41 54                	push   %r12
  402b84:	55                   	push   %rbp
  402b85:	53                   	push   %rbx
  402b86:	48 83 ec 20          	sub    $0x20,%rsp
  402b8a:	49 89 fc             	mov    %rdi,%r12
  402b8d:	64 48 8b 04 25 28 00 	mov    %fs:0x28,%rax
  402b94:	00 00 
  402b96:	48 89 44 24 18       	mov    %rax,0x18(%rsp)
  402b9b:	31 c0                	xor    %eax,%eax
  402b9d:	be 01 00 00 00       	mov    $0x1,%esi
  402ba2:	bf 0d 00 00 00       	mov    $0xd,%edi
  402ba7:	e8 94 e1 ff ff       	callq  400d40 <signal@plt>
  402bac:	be 01 00 00 00       	mov    $0x1,%esi
  402bb1:	bf 1d 00 00 00       	mov    $0x1d,%edi
  402bb6:	e8 85 e1 ff ff       	callq  400d40 <signal@plt>
  402bbb:	be 01 00 00 00       	mov    $0x1,%esi
  402bc0:	bf 1d 00 00 00       	mov    $0x1d,%edi
  402bc5:	e8 76 e1 ff ff       	callq  400d40 <signal@plt>
  402bca:	ba 00 00 00 00       	mov    $0x0,%edx
  402bcf:	be 01 00 00 00       	mov    $0x1,%esi
  402bd4:	bf 02 00 00 00       	mov    $0x2,%edi
  402bd9:	e8 92 e2 ff ff       	callq  400e70 <socket@plt>
  402bde:	85 c0                	test   %eax,%eax
  402be0:	0f 88 a3 00 00 00    	js     402c89 <init_driver+0x107>
  402be6:	89 c3                	mov    %eax,%ebx
  402be8:	48 8d 3d 9d 0a 00 00 	lea    0xa9d(%rip),%rdi        # 40368c <trans_char+0xcc>
  402bef:	e8 5c e1 ff ff       	callq  400d50 <gethostbyname@plt>
  402bf4:	48 85 c0             	test   %rax,%rax
  402bf7:	0f 84 df 00 00 00    	je     402cdc <init_driver+0x15a>
  402bfd:	48 89 e5             	mov    %rsp,%rbp
  402c00:	48 c7 44 24 02 00 00 	movq   $0x0,0x2(%rsp)
  402c07:	00 00 
  402c09:	c7 45 0a 00 00 00 00 	movl   $0x0,0xa(%rbp)
  402c10:	66 c7 45 0e 00 00    	movw   $0x0,0xe(%rbp)
  402c16:	66 c7 04 24 02 00    	movw   $0x2,(%rsp)
  402c1c:	48 63 50 14          	movslq 0x14(%rax),%rdx
  402c20:	48 8b 40 18          	mov    0x18(%rax),%rax
  402c24:	48 8b 30             	mov    (%rax),%rsi
  402c27:	48 8d 7d 04          	lea    0x4(%rbp),%rdi
  402c2b:	b9 0c 00 00 00       	mov    $0xc,%ecx
  402c30:	e8 2b e1 ff ff       	callq  400d60 <__memmove_chk@plt>
  402c35:	66 c7 44 24 02 3c 9a 	movw   $0x9a3c,0x2(%rsp)
  402c3c:	ba 10 00 00 00       	mov    $0x10,%edx
  402c41:	48 89 ee             	mov    %rbp,%rsi
  402c44:	89 df                	mov    %ebx,%edi
  402c46:	e8 f5 e1 ff ff       	callq  400e40 <connect@plt>
  402c4b:	85 c0                	test   %eax,%eax
  402c4d:	0f 88 fb 00 00 00    	js     402d4e <init_driver+0x1cc>
  402c53:	89 df                	mov    %ebx,%edi
  402c55:	e8 c6 e0 ff ff       	callq  400d20 <close@plt>
  402c5a:	66 41 c7 04 24 4f 4b 	movw   $0x4b4f,(%r12)
  402c61:	41 c6 44 24 02 00    	movb   $0x0,0x2(%r12)
  402c67:	b8 00 00 00 00       	mov    $0x0,%eax
  402c6c:	48 8b 4c 24 18       	mov    0x18(%rsp),%rcx
  402c71:	64 48 33 0c 25 28 00 	xor    %fs:0x28,%rcx
  402c78:	00 00 
  402c7a:	0f 85 28 01 00 00    	jne    402da8 <init_driver+0x226>
  402c80:	48 83 c4 20          	add    $0x20,%rsp
  402c84:	5b                   	pop    %rbx
  402c85:	5d                   	pop    %rbp
  402c86:	41 5c                	pop    %r12
  402c88:	c3                   	retq   
  402c89:	48 b8 45 72 72 6f 72 	movabs $0x43203a726f727245,%rax
  402c90:	3a 20 43 
  402c93:	48 ba 6c 69 65 6e 74 	movabs $0x6e7520746e65696c,%rdx
  402c9a:	20 75 6e 
  402c9d:	49 89 04 24          	mov    %rax,(%r12)
  402ca1:	49 89 54 24 08       	mov    %rdx,0x8(%r12)
  402ca6:	48 b8 61 62 6c 65 20 	movabs $0x206f7420656c6261,%rax
  402cad:	74 6f 20 
  402cb0:	48 ba 63 72 65 61 74 	movabs $0x7320657461657263,%rdx
  402cb7:	65 20 73 
  402cba:	49 89 44 24 10       	mov    %rax,0x10(%r12)
  402cbf:	49 89 54 24 18       	mov    %rdx,0x18(%r12)
  402cc4:	41 c7 44 24 20 6f 63 	movl   $0x656b636f,0x20(%r12)
  402ccb:	6b 65 
  402ccd:	66 41 c7 44 24 24 74 	movw   $0x74,0x24(%r12)
  402cd4:	00 
  402cd5:	b8 ff ff ff ff       	mov    $0xffffffff,%eax
  402cda:	eb 90                	jmp    402c6c <init_driver+0xea>
  402cdc:	48 b8 45 72 72 6f 72 	movabs $0x44203a726f727245,%rax
  402ce3:	3a 20 44 
  402ce6:	48 ba 4e 53 20 69 73 	movabs $0x6e7520736920534e,%rdx
  402ced:	20 75 6e 
  402cf0:	49 89 04 24          	mov    %rax,(%r12)
  402cf4:	49 89 54 24 08       	mov    %rdx,0x8(%r12)
  402cf9:	48 b8 61 62 6c 65 20 	movabs $0x206f7420656c6261,%rax
  402d00:	74 6f 20 
  402d03:	48 ba 72 65 73 6f 6c 	movabs $0x2065766c6f736572,%rdx
  402d0a:	76 65 20 
  402d0d:	49 89 44 24 10       	mov    %rax,0x10(%r12)
  402d12:	49 89 54 24 18       	mov    %rdx,0x18(%r12)
  402d17:	48 b8 73 65 72 76 65 	movabs $0x6120726576726573,%rax
  402d1e:	72 20 61 
  402d21:	49 89 44 24 20       	mov    %rax,0x20(%r12)
  402d26:	41 c7 44 24 28 64 64 	movl   $0x65726464,0x28(%r12)
  402d2d:	72 65 
  402d2f:	66 41 c7 44 24 2c 73 	movw   $0x7373,0x2c(%r12)
  402d36:	73 
  402d37:	41 c6 44 24 2e 00    	movb   $0x0,0x2e(%r12)
  402d3d:	89 df                	mov    %ebx,%edi
  402d3f:	e8 dc df ff ff       	callq  400d20 <close@plt>
  402d44:	b8 ff ff ff ff       	mov    $0xffffffff,%eax
  402d49:	e9 1e ff ff ff       	jmpq   402c6c <init_driver+0xea>
  402d4e:	48 b8 45 72 72 6f 72 	movabs $0x55203a726f727245,%rax
  402d55:	3a 20 55 
  402d58:	48 ba 6e 61 62 6c 65 	movabs $0x6f7420656c62616e,%rdx
  402d5f:	20 74 6f 
  402d62:	49 89 04 24          	mov    %rax,(%r12)
  402d66:	49 89 54 24 08       	mov    %rdx,0x8(%r12)
  402d6b:	48 b8 20 63 6f 6e 6e 	movabs $0x7463656e6e6f6320,%rax
  402d72:	65 63 74 
  402d75:	48 ba 20 74 6f 20 73 	movabs $0x76726573206f7420,%rdx
  402d7c:	65 72 76 
  402d7f:	49 89 44 24 10       	mov    %rax,0x10(%r12)
  402d84:	49 89 54 24 18       	mov    %rdx,0x18(%r12)
  402d89:	66 41 c7 44 24 20 65 	movw   $0x7265,0x20(%r12)
  402d90:	72 
  402d91:	41 c6 44 24 22 00    	movb   $0x0,0x22(%r12)
  402d97:	89 df                	mov    %ebx,%edi
  402d99:	e8 82 df ff ff       	callq  400d20 <close@plt>
  402d9e:	b8 ff ff ff ff       	mov    $0xffffffff,%eax
  402da3:	e9 c4 fe ff ff       	jmpq   402c6c <init_driver+0xea>
  402da8:	e8 33 df ff ff       	callq  400ce0 <__stack_chk_fail@plt>

0000000000402dad <driver_post>:
  402dad:	53                   	push   %rbx
  402dae:	4c 89 cb             	mov    %r9,%rbx
  402db1:	45 85 c0             	test   %r8d,%r8d
  402db4:	75 18                	jne    402dce <driver_post+0x21>
  402db6:	48 85 ff             	test   %rdi,%rdi
  402db9:	74 05                	je     402dc0 <driver_post+0x13>
  402dbb:	80 3f 00             	cmpb   $0x0,(%rdi)
  402dbe:	75 37                	jne    402df7 <driver_post+0x4a>
  402dc0:	66 c7 03 4f 4b       	movw   $0x4b4f,(%rbx)
  402dc5:	c6 43 02 00          	movb   $0x0,0x2(%rbx)
  402dc9:	44 89 c0             	mov    %r8d,%eax
  402dcc:	5b                   	pop    %rbx
  402dcd:	c3                   	retq   
  402dce:	48 89 ca             	mov    %rcx,%rdx
  402dd1:	48 8d 35 c0 08 00 00 	lea    0x8c0(%rip),%rsi        # 403698 <trans_char+0xd8>
  402dd8:	bf 01 00 00 00       	mov    $0x1,%edi
  402ddd:	b8 00 00 00 00       	mov    $0x0,%eax
  402de2:	e8 f9 df ff ff       	callq  400de0 <__printf_chk@plt>
  402de7:	66 c7 03 4f 4b       	movw   $0x4b4f,(%rbx)
  402dec:	c6 43 02 00          	movb   $0x0,0x2(%rbx)
  402df0:	b8 00 00 00 00       	mov    $0x0,%eax
  402df5:	eb d5                	jmp    402dcc <driver_post+0x1f>
  402df7:	48 83 ec 08          	sub    $0x8,%rsp
  402dfb:	41 51                	push   %r9
  402dfd:	49 89 c9             	mov    %rcx,%r9
  402e00:	49 89 d0             	mov    %rdx,%r8
  402e03:	48 89 f9             	mov    %rdi,%rcx
  402e06:	48 89 f2             	mov    %rsi,%rdx
  402e09:	be 9a 3c 00 00       	mov    $0x3c9a,%esi
  402e0e:	48 8d 3d 77 08 00 00 	lea    0x877(%rip),%rdi        # 40368c <trans_char+0xcc>
  402e15:	e8 b9 f5 ff ff       	callq  4023d3 <submitr>
  402e1a:	48 83 c4 10          	add    $0x10,%rsp
  402e1e:	eb ac                	jmp    402dcc <driver_post+0x1f>

0000000000402e20 <check>:
  402e20:	89 f8                	mov    %edi,%eax
  402e22:	c1 e8 1c             	shr    $0x1c,%eax
  402e25:	85 c0                	test   %eax,%eax
  402e27:	74 1d                	je     402e46 <check+0x26>
  402e29:	b9 00 00 00 00       	mov    $0x0,%ecx
  402e2e:	83 f9 1f             	cmp    $0x1f,%ecx
  402e31:	7f 0d                	jg     402e40 <check+0x20>
  402e33:	89 f8                	mov    %edi,%eax
  402e35:	d3 e8                	shr    %cl,%eax
  402e37:	3c 0a                	cmp    $0xa,%al
  402e39:	74 11                	je     402e4c <check+0x2c>
  402e3b:	83 c1 08             	add    $0x8,%ecx
  402e3e:	eb ee                	jmp    402e2e <check+0xe>
  402e40:	b8 01 00 00 00       	mov    $0x1,%eax
  402e45:	c3                   	retq   
  402e46:	b8 00 00 00 00       	mov    $0x0,%eax
  402e4b:	c3                   	retq   
  402e4c:	b8 00 00 00 00       	mov    $0x0,%eax
  402e51:	c3                   	retq   

0000000000402e52 <gencookie>:
  402e52:	53                   	push   %rbx
  402e53:	83 c7 01             	add    $0x1,%edi
  402e56:	e8 35 de ff ff       	callq  400c90 <srandom@plt>
  402e5b:	e8 40 df ff ff       	callq  400da0 <random@plt>
  402e60:	89 c3                	mov    %eax,%ebx
  402e62:	89 c7                	mov    %eax,%edi
  402e64:	e8 b7 ff ff ff       	callq  402e20 <check>
  402e69:	85 c0                	test   %eax,%eax
  402e6b:	74 ee                	je     402e5b <gencookie+0x9>
  402e6d:	89 d8                	mov    %ebx,%eax
  402e6f:	5b                   	pop    %rbx
  402e70:	c3                   	retq   
  402e71:	66 2e 0f 1f 84 00 00 	nopw   %cs:0x0(%rax,%rax,1)
  402e78:	00 00 00 
  402e7b:	0f 1f 44 00 00       	nopl   0x0(%rax,%rax,1)

0000000000402e80 <__libc_csu_init>:
  402e80:	41 57                	push   %r15
  402e82:	41 56                	push   %r14
  402e84:	49 89 d7             	mov    %rdx,%r15
  402e87:	41 55                	push   %r13
  402e89:	41 54                	push   %r12
  402e8b:	4c 8d 25 7e 0f 20 00 	lea    0x200f7e(%rip),%r12        # 603e10 <__frame_dummy_init_array_entry>
  402e92:	55                   	push   %rbp
  402e93:	48 8d 2d 7e 0f 20 00 	lea    0x200f7e(%rip),%rbp        # 603e18 <__init_array_end>
  402e9a:	53                   	push   %rbx
  402e9b:	41 89 fd             	mov    %edi,%r13d
  402e9e:	49 89 f6             	mov    %rsi,%r14
  402ea1:	4c 29 e5             	sub    %r12,%rbp
  402ea4:	48 83 ec 08          	sub    $0x8,%rsp
  402ea8:	48 c1 fd 03          	sar    $0x3,%rbp
  402eac:	e8 97 dd ff ff       	callq  400c48 <_init>
  402eb1:	48 85 ed             	test   %rbp,%rbp
  402eb4:	74 20                	je     402ed6 <__libc_csu_init+0x56>
  402eb6:	31 db                	xor    %ebx,%ebx
  402eb8:	0f 1f 84 00 00 00 00 	nopl   0x0(%rax,%rax,1)
  402ebf:	00 
  402ec0:	4c 89 fa             	mov    %r15,%rdx
  402ec3:	4c 89 f6             	mov    %r14,%rsi
  402ec6:	44 89 ef             	mov    %r13d,%edi
  402ec9:	41 ff 14 dc          	callq  *(%r12,%rbx,8)
  402ecd:	48 83 c3 01          	add    $0x1,%rbx
  402ed1:	48 39 dd             	cmp    %rbx,%rbp
  402ed4:	75 ea                	jne    402ec0 <__libc_csu_init+0x40>
  402ed6:	48 83 c4 08          	add    $0x8,%rsp
  402eda:	5b                   	pop    %rbx
  402edb:	5d                   	pop    %rbp
  402edc:	41 5c                	pop    %r12
  402ede:	41 5d                	pop    %r13
  402ee0:	41 5e                	pop    %r14
  402ee2:	41 5f                	pop    %r15
  402ee4:	c3                   	retq   
  402ee5:	90                   	nop
  402ee6:	66 2e 0f 1f 84 00 00 	nopw   %cs:0x0(%rax,%rax,1)
  402eed:	00 00 00 

0000000000402ef0 <__libc_csu_fini>:
  402ef0:	f3 c3                	repz retq 

Disassembly of section .fini:

0000000000402ef4 <_fini>:
  402ef4:	48 83 ec 08          	sub    $0x8,%rsp
  402ef8:	48 83 c4 08          	add    $0x8,%rsp
  402efc:	c3                   	retq   
