
rtarget:     file format elf64-x86-64


Disassembly of section .init:

0000000000400c48 <_init>:
  400c48:	48 83 ec 08          	sub    $0x8,%rsp
  400c4c:	48 8b 05 a5 43 20 00 	mov    0x2043a5(%rip),%rax        # 604ff8 <_DYNAMIC+0x1d8>
  400c53:	48 85 c0             	test   %rax,%rax
  400c56:	74 02                	je     400c5a <_init+0x12>
  400c58:	ff d0                	callq  *%rax
  400c5a:	48 83 c4 08          	add    $0x8,%rsp
  400c5e:	c3                   	retq   

Disassembly of section .plt:

0000000000400c60 <strcasecmp@plt-0x10>:
  400c60:	ff 35 a2 43 20 00    	pushq  0x2043a2(%rip)        # 605008 <_GLOBAL_OFFSET_TABLE_+0x8>
  400c66:	ff 25 a4 43 20 00    	jmpq   *0x2043a4(%rip)        # 605010 <_GLOBAL_OFFSET_TABLE_+0x10>
  400c6c:	0f 1f 40 00          	nopl   0x0(%rax)

0000000000400c70 <strcasecmp@plt>:
  400c70:	ff 25 a2 43 20 00    	jmpq   *0x2043a2(%rip)        # 605018 <_GLOBAL_OFFSET_TABLE_+0x18>
  400c76:	68 00 00 00 00       	pushq  $0x0
  400c7b:	e9 e0 ff ff ff       	jmpq   400c60 <_init+0x18>

0000000000400c80 <__errno_location@plt>:
  400c80:	ff 25 9a 43 20 00    	jmpq   *0x20439a(%rip)        # 605020 <_GLOBAL_OFFSET_TABLE_+0x20>
  400c86:	68 01 00 00 00       	pushq  $0x1
  400c8b:	e9 d0 ff ff ff       	jmpq   400c60 <_init+0x18>

0000000000400c90 <srandom@plt>:
  400c90:	ff 25 92 43 20 00    	jmpq   *0x204392(%rip)        # 605028 <_GLOBAL_OFFSET_TABLE_+0x28>
  400c96:	68 02 00 00 00       	pushq  $0x2
  400c9b:	e9 c0 ff ff ff       	jmpq   400c60 <_init+0x18>

0000000000400ca0 <strncmp@plt>:
  400ca0:	ff 25 8a 43 20 00    	jmpq   *0x20438a(%rip)        # 605030 <_GLOBAL_OFFSET_TABLE_+0x30>
  400ca6:	68 03 00 00 00       	pushq  $0x3
  400cab:	e9 b0 ff ff ff       	jmpq   400c60 <_init+0x18>

0000000000400cb0 <strcpy@plt>:
  400cb0:	ff 25 82 43 20 00    	jmpq   *0x204382(%rip)        # 605038 <_GLOBAL_OFFSET_TABLE_+0x38>
  400cb6:	68 04 00 00 00       	pushq  $0x4
  400cbb:	e9 a0 ff ff ff       	jmpq   400c60 <_init+0x18>

0000000000400cc0 <puts@plt>:
  400cc0:	ff 25 7a 43 20 00    	jmpq   *0x20437a(%rip)        # 605040 <_GLOBAL_OFFSET_TABLE_+0x40>
  400cc6:	68 05 00 00 00       	pushq  $0x5
  400ccb:	e9 90 ff ff ff       	jmpq   400c60 <_init+0x18>

0000000000400cd0 <write@plt>:
  400cd0:	ff 25 72 43 20 00    	jmpq   *0x204372(%rip)        # 605048 <_GLOBAL_OFFSET_TABLE_+0x48>
  400cd6:	68 06 00 00 00       	pushq  $0x6
  400cdb:	e9 80 ff ff ff       	jmpq   400c60 <_init+0x18>

0000000000400ce0 <__stack_chk_fail@plt>:
  400ce0:	ff 25 6a 43 20 00    	jmpq   *0x20436a(%rip)        # 605050 <_GLOBAL_OFFSET_TABLE_+0x50>
  400ce6:	68 07 00 00 00       	pushq  $0x7
  400ceb:	e9 70 ff ff ff       	jmpq   400c60 <_init+0x18>

0000000000400cf0 <mmap@plt>:
  400cf0:	ff 25 62 43 20 00    	jmpq   *0x204362(%rip)        # 605058 <_GLOBAL_OFFSET_TABLE_+0x58>
  400cf6:	68 08 00 00 00       	pushq  $0x8
  400cfb:	e9 60 ff ff ff       	jmpq   400c60 <_init+0x18>

0000000000400d00 <memset@plt>:
  400d00:	ff 25 5a 43 20 00    	jmpq   *0x20435a(%rip)        # 605060 <_GLOBAL_OFFSET_TABLE_+0x60>
  400d06:	68 09 00 00 00       	pushq  $0x9
  400d0b:	e9 50 ff ff ff       	jmpq   400c60 <_init+0x18>

0000000000400d10 <alarm@plt>:
  400d10:	ff 25 52 43 20 00    	jmpq   *0x204352(%rip)        # 605068 <_GLOBAL_OFFSET_TABLE_+0x68>
  400d16:	68 0a 00 00 00       	pushq  $0xa
  400d1b:	e9 40 ff ff ff       	jmpq   400c60 <_init+0x18>

0000000000400d20 <close@plt>:
  400d20:	ff 25 4a 43 20 00    	jmpq   *0x20434a(%rip)        # 605070 <_GLOBAL_OFFSET_TABLE_+0x70>
  400d26:	68 0b 00 00 00       	pushq  $0xb
  400d2b:	e9 30 ff ff ff       	jmpq   400c60 <_init+0x18>

0000000000400d30 <read@plt>:
  400d30:	ff 25 42 43 20 00    	jmpq   *0x204342(%rip)        # 605078 <_GLOBAL_OFFSET_TABLE_+0x78>
  400d36:	68 0c 00 00 00       	pushq  $0xc
  400d3b:	e9 20 ff ff ff       	jmpq   400c60 <_init+0x18>

0000000000400d40 <signal@plt>:
  400d40:	ff 25 3a 43 20 00    	jmpq   *0x20433a(%rip)        # 605080 <_GLOBAL_OFFSET_TABLE_+0x80>
  400d46:	68 0d 00 00 00       	pushq  $0xd
  400d4b:	e9 10 ff ff ff       	jmpq   400c60 <_init+0x18>

0000000000400d50 <gethostbyname@plt>:
  400d50:	ff 25 32 43 20 00    	jmpq   *0x204332(%rip)        # 605088 <_GLOBAL_OFFSET_TABLE_+0x88>
  400d56:	68 0e 00 00 00       	pushq  $0xe
  400d5b:	e9 00 ff ff ff       	jmpq   400c60 <_init+0x18>

0000000000400d60 <__memmove_chk@plt>:
  400d60:	ff 25 2a 43 20 00    	jmpq   *0x20432a(%rip)        # 605090 <_GLOBAL_OFFSET_TABLE_+0x90>
  400d66:	68 0f 00 00 00       	pushq  $0xf
  400d6b:	e9 f0 fe ff ff       	jmpq   400c60 <_init+0x18>

0000000000400d70 <strtol@plt>:
  400d70:	ff 25 22 43 20 00    	jmpq   *0x204322(%rip)        # 605098 <_GLOBAL_OFFSET_TABLE_+0x98>
  400d76:	68 10 00 00 00       	pushq  $0x10
  400d7b:	e9 e0 fe ff ff       	jmpq   400c60 <_init+0x18>

0000000000400d80 <memcpy@plt>:
  400d80:	ff 25 1a 43 20 00    	jmpq   *0x20431a(%rip)        # 6050a0 <_GLOBAL_OFFSET_TABLE_+0xa0>
  400d86:	68 11 00 00 00       	pushq  $0x11
  400d8b:	e9 d0 fe ff ff       	jmpq   400c60 <_init+0x18>

0000000000400d90 <time@plt>:
  400d90:	ff 25 12 43 20 00    	jmpq   *0x204312(%rip)        # 6050a8 <_GLOBAL_OFFSET_TABLE_+0xa8>
  400d96:	68 12 00 00 00       	pushq  $0x12
  400d9b:	e9 c0 fe ff ff       	jmpq   400c60 <_init+0x18>

0000000000400da0 <random@plt>:
  400da0:	ff 25 0a 43 20 00    	jmpq   *0x20430a(%rip)        # 6050b0 <_GLOBAL_OFFSET_TABLE_+0xb0>
  400da6:	68 13 00 00 00       	pushq  $0x13
  400dab:	e9 b0 fe ff ff       	jmpq   400c60 <_init+0x18>

0000000000400db0 <_IO_getc@plt>:
  400db0:	ff 25 02 43 20 00    	jmpq   *0x204302(%rip)        # 6050b8 <_GLOBAL_OFFSET_TABLE_+0xb8>
  400db6:	68 14 00 00 00       	pushq  $0x14
  400dbb:	e9 a0 fe ff ff       	jmpq   400c60 <_init+0x18>

0000000000400dc0 <__isoc99_sscanf@plt>:
  400dc0:	ff 25 fa 42 20 00    	jmpq   *0x2042fa(%rip)        # 6050c0 <_GLOBAL_OFFSET_TABLE_+0xc0>
  400dc6:	68 15 00 00 00       	pushq  $0x15
  400dcb:	e9 90 fe ff ff       	jmpq   400c60 <_init+0x18>

0000000000400dd0 <munmap@plt>:
  400dd0:	ff 25 f2 42 20 00    	jmpq   *0x2042f2(%rip)        # 6050c8 <_GLOBAL_OFFSET_TABLE_+0xc8>
  400dd6:	68 16 00 00 00       	pushq  $0x16
  400ddb:	e9 80 fe ff ff       	jmpq   400c60 <_init+0x18>

0000000000400de0 <__printf_chk@plt>:
  400de0:	ff 25 ea 42 20 00    	jmpq   *0x2042ea(%rip)        # 6050d0 <_GLOBAL_OFFSET_TABLE_+0xd0>
  400de6:	68 17 00 00 00       	pushq  $0x17
  400deb:	e9 70 fe ff ff       	jmpq   400c60 <_init+0x18>

0000000000400df0 <fopen@plt>:
  400df0:	ff 25 e2 42 20 00    	jmpq   *0x2042e2(%rip)        # 6050d8 <_GLOBAL_OFFSET_TABLE_+0xd8>
  400df6:	68 18 00 00 00       	pushq  $0x18
  400dfb:	e9 60 fe ff ff       	jmpq   400c60 <_init+0x18>

0000000000400e00 <getopt@plt>:
  400e00:	ff 25 da 42 20 00    	jmpq   *0x2042da(%rip)        # 6050e0 <_GLOBAL_OFFSET_TABLE_+0xe0>
  400e06:	68 19 00 00 00       	pushq  $0x19
  400e0b:	e9 50 fe ff ff       	jmpq   400c60 <_init+0x18>

0000000000400e10 <strtoul@plt>:
  400e10:	ff 25 d2 42 20 00    	jmpq   *0x2042d2(%rip)        # 6050e8 <_GLOBAL_OFFSET_TABLE_+0xe8>
  400e16:	68 1a 00 00 00       	pushq  $0x1a
  400e1b:	e9 40 fe ff ff       	jmpq   400c60 <_init+0x18>

0000000000400e20 <gethostname@plt>:
  400e20:	ff 25 ca 42 20 00    	jmpq   *0x2042ca(%rip)        # 6050f0 <_GLOBAL_OFFSET_TABLE_+0xf0>
  400e26:	68 1b 00 00 00       	pushq  $0x1b
  400e2b:	e9 30 fe ff ff       	jmpq   400c60 <_init+0x18>

0000000000400e30 <exit@plt>:
  400e30:	ff 25 c2 42 20 00    	jmpq   *0x2042c2(%rip)        # 6050f8 <_GLOBAL_OFFSET_TABLE_+0xf8>
  400e36:	68 1c 00 00 00       	pushq  $0x1c
  400e3b:	e9 20 fe ff ff       	jmpq   400c60 <_init+0x18>

0000000000400e40 <connect@plt>:
  400e40:	ff 25 ba 42 20 00    	jmpq   *0x2042ba(%rip)        # 605100 <_GLOBAL_OFFSET_TABLE_+0x100>
  400e46:	68 1d 00 00 00       	pushq  $0x1d
  400e4b:	e9 10 fe ff ff       	jmpq   400c60 <_init+0x18>

0000000000400e50 <__fprintf_chk@plt>:
  400e50:	ff 25 b2 42 20 00    	jmpq   *0x2042b2(%rip)        # 605108 <_GLOBAL_OFFSET_TABLE_+0x108>
  400e56:	68 1e 00 00 00       	pushq  $0x1e
  400e5b:	e9 00 fe ff ff       	jmpq   400c60 <_init+0x18>

0000000000400e60 <__sprintf_chk@plt>:
  400e60:	ff 25 aa 42 20 00    	jmpq   *0x2042aa(%rip)        # 605110 <_GLOBAL_OFFSET_TABLE_+0x110>
  400e66:	68 1f 00 00 00       	pushq  $0x1f
  400e6b:	e9 f0 fd ff ff       	jmpq   400c60 <_init+0x18>

0000000000400e70 <socket@plt>:
  400e70:	ff 25 a2 42 20 00    	jmpq   *0x2042a2(%rip)        # 605118 <_GLOBAL_OFFSET_TABLE_+0x118>
  400e76:	68 20 00 00 00       	pushq  $0x20
  400e7b:	e9 e0 fd ff ff       	jmpq   400c60 <_init+0x18>

Disassembly of section .text:

0000000000400e80 <_start>:
  400e80:	31 ed                	xor    %ebp,%ebp
  400e82:	49 89 d1             	mov    %rdx,%r9
  400e85:	5e                   	pop    %rsi
  400e86:	48 89 e2             	mov    %rsp,%rdx
  400e89:	48 83 e4 f0          	and    $0xfffffffffffffff0,%rsp
  400e8d:	50                   	push   %rax
  400e8e:	54                   	push   %rsp
  400e8f:	49 c7 c0 10 30 40 00 	mov    $0x403010,%r8
  400e96:	48 c7 c1 a0 2f 40 00 	mov    $0x402fa0,%rcx
  400e9d:	48 c7 c7 60 11 40 00 	mov    $0x401160,%rdi
  400ea4:	ff 15 46 41 20 00    	callq  *0x204146(%rip)        # 604ff0 <_DYNAMIC+0x1d0>
  400eaa:	f4                   	hlt    
  400eab:	0f 1f 44 00 00       	nopl   0x0(%rax,%rax,1)

0000000000400eb0 <_dl_relocate_static_pie>:
  400eb0:	f3 c3                	repz retq 
  400eb2:	66 2e 0f 1f 84 00 00 	nopw   %cs:0x0(%rax,%rax,1)
  400eb9:	00 00 00 
  400ebc:	0f 1f 40 00          	nopl   0x0(%rax)

0000000000400ec0 <deregister_tm_clones>:
  400ec0:	55                   	push   %rbp
  400ec1:	b8 90 54 60 00       	mov    $0x605490,%eax
  400ec6:	48 3d 90 54 60 00    	cmp    $0x605490,%rax
  400ecc:	48 89 e5             	mov    %rsp,%rbp
  400ecf:	74 17                	je     400ee8 <deregister_tm_clones+0x28>
  400ed1:	b8 00 00 00 00       	mov    $0x0,%eax
  400ed6:	48 85 c0             	test   %rax,%rax
  400ed9:	74 0d                	je     400ee8 <deregister_tm_clones+0x28>
  400edb:	5d                   	pop    %rbp
  400edc:	bf 90 54 60 00       	mov    $0x605490,%edi
  400ee1:	ff e0                	jmpq   *%rax
  400ee3:	0f 1f 44 00 00       	nopl   0x0(%rax,%rax,1)
  400ee8:	5d                   	pop    %rbp
  400ee9:	c3                   	retq   
  400eea:	66 0f 1f 44 00 00    	nopw   0x0(%rax,%rax,1)

0000000000400ef0 <register_tm_clones>:
  400ef0:	be 90 54 60 00       	mov    $0x605490,%esi
  400ef5:	55                   	push   %rbp
  400ef6:	48 81 ee 90 54 60 00 	sub    $0x605490,%rsi
  400efd:	48 89 e5             	mov    %rsp,%rbp
  400f00:	48 c1 fe 03          	sar    $0x3,%rsi
  400f04:	48 89 f0             	mov    %rsi,%rax
  400f07:	48 c1 e8 3f          	shr    $0x3f,%rax
  400f0b:	48 01 c6             	add    %rax,%rsi
  400f0e:	48 d1 fe             	sar    %rsi
  400f11:	74 15                	je     400f28 <register_tm_clones+0x38>
  400f13:	b8 00 00 00 00       	mov    $0x0,%eax
  400f18:	48 85 c0             	test   %rax,%rax
  400f1b:	74 0b                	je     400f28 <register_tm_clones+0x38>
  400f1d:	5d                   	pop    %rbp
  400f1e:	bf 90 54 60 00       	mov    $0x605490,%edi
  400f23:	ff e0                	jmpq   *%rax
  400f25:	0f 1f 00             	nopl   (%rax)
  400f28:	5d                   	pop    %rbp
  400f29:	c3                   	retq   
  400f2a:	66 0f 1f 44 00 00    	nopw   0x0(%rax,%rax,1)

0000000000400f30 <__do_global_dtors_aux>:
  400f30:	80 3d 91 45 20 00 00 	cmpb   $0x0,0x204591(%rip)        # 6054c8 <completed.7697>
  400f37:	75 17                	jne    400f50 <__do_global_dtors_aux+0x20>
  400f39:	55                   	push   %rbp
  400f3a:	48 89 e5             	mov    %rsp,%rbp
  400f3d:	e8 7e ff ff ff       	callq  400ec0 <deregister_tm_clones>
  400f42:	c6 05 7f 45 20 00 01 	movb   $0x1,0x20457f(%rip)        # 6054c8 <completed.7697>
  400f49:	5d                   	pop    %rbp
  400f4a:	c3                   	retq   
  400f4b:	0f 1f 44 00 00       	nopl   0x0(%rax,%rax,1)
  400f50:	f3 c3                	repz retq 
  400f52:	0f 1f 40 00          	nopl   0x0(%rax)
  400f56:	66 2e 0f 1f 84 00 00 	nopw   %cs:0x0(%rax,%rax,1)
  400f5d:	00 00 00 

0000000000400f60 <frame_dummy>:
  400f60:	55                   	push   %rbp
  400f61:	48 89 e5             	mov    %rsp,%rbp
  400f64:	5d                   	pop    %rbp
  400f65:	eb 89                	jmp    400ef0 <register_tm_clones>

0000000000400f67 <usage>:
  400f67:	48 83 ec 08          	sub    $0x8,%rsp
  400f6b:	48 89 fa             	mov    %rdi,%rdx
  400f6e:	83 3d 93 45 20 00 00 	cmpl   $0x0,0x204593(%rip)        # 605508 <is_checker>
  400f75:	74 50                	je     400fc7 <usage+0x60>
  400f77:	48 8d 35 aa 20 00 00 	lea    0x20aa(%rip),%rsi        # 403028 <_IO_stdin_used+0x8>
  400f7e:	bf 01 00 00 00       	mov    $0x1,%edi
  400f83:	b8 00 00 00 00       	mov    $0x0,%eax
  400f88:	e8 53 fe ff ff       	callq  400de0 <__printf_chk@plt>
  400f8d:	48 8d 3d cc 20 00 00 	lea    0x20cc(%rip),%rdi        # 403060 <_IO_stdin_used+0x40>
  400f94:	e8 27 fd ff ff       	callq  400cc0 <puts@plt>
  400f99:	48 8d 3d f8 21 00 00 	lea    0x21f8(%rip),%rdi        # 403198 <_IO_stdin_used+0x178>
  400fa0:	e8 1b fd ff ff       	callq  400cc0 <puts@plt>
  400fa5:	48 8d 3d dc 20 00 00 	lea    0x20dc(%rip),%rdi        # 403088 <_IO_stdin_used+0x68>
  400fac:	e8 0f fd ff ff       	callq  400cc0 <puts@plt>
  400fb1:	48 8d 3d fa 21 00 00 	lea    0x21fa(%rip),%rdi        # 4031b2 <_IO_stdin_used+0x192>
  400fb8:	e8 03 fd ff ff       	callq  400cc0 <puts@plt>
  400fbd:	bf 00 00 00 00       	mov    $0x0,%edi
  400fc2:	e8 69 fe ff ff       	callq  400e30 <exit@plt>
  400fc7:	48 8d 35 00 22 00 00 	lea    0x2200(%rip),%rsi        # 4031ce <_IO_stdin_used+0x1ae>
  400fce:	bf 01 00 00 00       	mov    $0x1,%edi
  400fd3:	b8 00 00 00 00       	mov    $0x0,%eax
  400fd8:	e8 03 fe ff ff       	callq  400de0 <__printf_chk@plt>
  400fdd:	48 8d 3d cc 20 00 00 	lea    0x20cc(%rip),%rdi        # 4030b0 <_IO_stdin_used+0x90>
  400fe4:	e8 d7 fc ff ff       	callq  400cc0 <puts@plt>
  400fe9:	48 8d 3d e8 20 00 00 	lea    0x20e8(%rip),%rdi        # 4030d8 <_IO_stdin_used+0xb8>
  400ff0:	e8 cb fc ff ff       	callq  400cc0 <puts@plt>
  400ff5:	48 8d 3d f0 21 00 00 	lea    0x21f0(%rip),%rdi        # 4031ec <_IO_stdin_used+0x1cc>
  400ffc:	e8 bf fc ff ff       	callq  400cc0 <puts@plt>
  401001:	eb ba                	jmp    400fbd <usage+0x56>

0000000000401003 <initialize_target>:
  401003:	55                   	push   %rbp
  401004:	53                   	push   %rbx
  401005:	48 81 ec 18 21 00 00 	sub    $0x2118,%rsp
  40100c:	89 f5                	mov    %esi,%ebp
  40100e:	64 48 8b 04 25 28 00 	mov    %fs:0x28,%rax
  401015:	00 00 
  401017:	48 89 84 24 08 21 00 	mov    %rax,0x2108(%rsp)
  40101e:	00 
  40101f:	31 c0                	xor    %eax,%eax
  401021:	89 3d d1 44 20 00    	mov    %edi,0x2044d1(%rip)        # 6054f8 <check_level>
  401027:	8b 3d 03 41 20 00    	mov    0x204103(%rip),%edi        # 605130 <target_id>
  40102d:	e8 41 1f 00 00       	callq  402f73 <gencookie>
  401032:	89 05 cc 44 20 00    	mov    %eax,0x2044cc(%rip)        # 605504 <cookie>
  401038:	89 c7                	mov    %eax,%edi
  40103a:	e8 34 1f 00 00       	callq  402f73 <gencookie>
  40103f:	89 05 bb 44 20 00    	mov    %eax,0x2044bb(%rip)        # 605500 <authkey>
  401045:	8b 05 e5 40 20 00    	mov    0x2040e5(%rip),%eax        # 605130 <target_id>
  40104b:	8d 78 01             	lea    0x1(%rax),%edi
  40104e:	e8 3d fc ff ff       	callq  400c90 <srandom@plt>
  401053:	e8 48 fd ff ff       	callq  400da0 <random@plt>
  401058:	89 c7                	mov    %eax,%edi
  40105a:	e8 ec 02 00 00       	callq  40134b <scramble>
  40105f:	89 c3                	mov    %eax,%ebx
  401061:	85 ed                	test   %ebp,%ebp
  401063:	75 54                	jne    4010b9 <initialize_target+0xb6>
  401065:	b8 00 00 00 00       	mov    $0x0,%eax
  40106a:	01 d8                	add    %ebx,%eax
  40106c:	0f b7 c0             	movzwl %ax,%eax
  40106f:	8d 04 c5 00 01 00 00 	lea    0x100(,%rax,8),%eax
  401076:	89 c0                	mov    %eax,%eax
  401078:	48 89 05 01 44 20 00 	mov    %rax,0x204401(%rip)        # 605480 <buf_offset>
  40107f:	c6 05 a2 50 20 00 72 	movb   $0x72,0x2050a2(%rip)        # 606128 <target_prefix>
  401086:	83 3d fb 43 20 00 00 	cmpl   $0x0,0x2043fb(%rip)        # 605488 <notify>
  40108d:	74 09                	je     401098 <initialize_target+0x95>
  40108f:	83 3d 72 44 20 00 00 	cmpl   $0x0,0x204472(%rip)        # 605508 <is_checker>
  401096:	74 39                	je     4010d1 <initialize_target+0xce>
  401098:	48 8b 84 24 08 21 00 	mov    0x2108(%rsp),%rax
  40109f:	00 
  4010a0:	64 48 33 04 25 28 00 	xor    %fs:0x28,%rax
  4010a7:	00 00 
  4010a9:	0f 85 ac 00 00 00    	jne    40115b <initialize_target+0x158>
  4010af:	48 81 c4 18 21 00 00 	add    $0x2118,%rsp
  4010b6:	5b                   	pop    %rbx
  4010b7:	5d                   	pop    %rbp
  4010b8:	c3                   	retq   
  4010b9:	bf 00 00 00 00       	mov    $0x0,%edi
  4010be:	e8 cd fc ff ff       	callq  400d90 <time@plt>
  4010c3:	89 c7                	mov    %eax,%edi
  4010c5:	e8 c6 fb ff ff       	callq  400c90 <srandom@plt>
  4010ca:	e8 d1 fc ff ff       	callq  400da0 <random@plt>
  4010cf:	eb 99                	jmp    40106a <initialize_target+0x67>
  4010d1:	48 89 e7             	mov    %rsp,%rdi
  4010d4:	be 00 01 00 00       	mov    $0x100,%esi
  4010d9:	e8 42 fd ff ff       	callq  400e20 <gethostname@plt>
  4010de:	89 c3                	mov    %eax,%ebx
  4010e0:	85 c0                	test   %eax,%eax
  4010e2:	75 24                	jne    401108 <initialize_target+0x105>
  4010e4:	48 63 c3             	movslq %ebx,%rax
  4010e7:	48 8d 15 72 40 20 00 	lea    0x204072(%rip),%rdx        # 605160 <host_table>
  4010ee:	48 8b 3c c2          	mov    (%rdx,%rax,8),%rdi
  4010f2:	48 85 ff             	test   %rdi,%rdi
  4010f5:	74 27                	je     40111e <initialize_target+0x11b>
  4010f7:	48 89 e6             	mov    %rsp,%rsi
  4010fa:	e8 71 fb ff ff       	callq  400c70 <strcasecmp@plt>
  4010ff:	85 c0                	test   %eax,%eax
  401101:	74 1b                	je     40111e <initialize_target+0x11b>
  401103:	83 c3 01             	add    $0x1,%ebx
  401106:	eb dc                	jmp    4010e4 <initialize_target+0xe1>
  401108:	48 8d 3d f9 1f 00 00 	lea    0x1ff9(%rip),%rdi        # 403108 <_IO_stdin_used+0xe8>
  40110f:	e8 ac fb ff ff       	callq  400cc0 <puts@plt>
  401114:	bf 08 00 00 00       	mov    $0x8,%edi
  401119:	e8 12 fd ff ff       	callq  400e30 <exit@plt>
  40111e:	48 8d bc 24 00 01 00 	lea    0x100(%rsp),%rdi
  401125:	00 
  401126:	e8 78 1b 00 00       	callq  402ca3 <init_driver>
  40112b:	85 c0                	test   %eax,%eax
  40112d:	0f 89 65 ff ff ff    	jns    401098 <initialize_target+0x95>
  401133:	48 8d 94 24 00 01 00 	lea    0x100(%rsp),%rdx
  40113a:	00 
  40113b:	48 8d 35 fe 1f 00 00 	lea    0x1ffe(%rip),%rsi        # 403140 <_IO_stdin_used+0x120>
  401142:	bf 01 00 00 00       	mov    $0x1,%edi
  401147:	b8 00 00 00 00       	mov    $0x0,%eax
  40114c:	e8 8f fc ff ff       	callq  400de0 <__printf_chk@plt>
  401151:	bf 08 00 00 00       	mov    $0x8,%edi
  401156:	e8 d5 fc ff ff       	callq  400e30 <exit@plt>
  40115b:	e8 80 fb ff ff       	callq  400ce0 <__stack_chk_fail@plt>

0000000000401160 <main>:
  401160:	41 56                	push   %r14
  401162:	41 55                	push   %r13
  401164:	41 54                	push   %r12
  401166:	55                   	push   %rbp
  401167:	53                   	push   %rbx
  401168:	41 89 fc             	mov    %edi,%r12d
  40116b:	48 89 f3             	mov    %rsi,%rbx
  40116e:	48 c7 c6 aa 1f 40 00 	mov    $0x401faa,%rsi
  401175:	bf 0b 00 00 00       	mov    $0xb,%edi
  40117a:	e8 c1 fb ff ff       	callq  400d40 <signal@plt>
  40117f:	48 c7 c6 56 1f 40 00 	mov    $0x401f56,%rsi
  401186:	bf 07 00 00 00       	mov    $0x7,%edi
  40118b:	e8 b0 fb ff ff       	callq  400d40 <signal@plt>
  401190:	48 c7 c6 fe 1f 40 00 	mov    $0x401ffe,%rsi
  401197:	bf 04 00 00 00       	mov    $0x4,%edi
  40119c:	e8 9f fb ff ff       	callq  400d40 <signal@plt>
  4011a1:	83 3d 60 43 20 00 00 	cmpl   $0x0,0x204360(%rip)        # 605508 <is_checker>
  4011a8:	75 26                	jne    4011d0 <main+0x70>
  4011aa:	48 8d 2d 54 20 00 00 	lea    0x2054(%rip),%rbp        # 403205 <_IO_stdin_used+0x1e5>
  4011b1:	48 8b 05 e8 42 20 00 	mov    0x2042e8(%rip),%rax        # 6054a0 <stdin@@GLIBC_2.2.5>
  4011b8:	48 89 05 31 43 20 00 	mov    %rax,0x204331(%rip)        # 6054f0 <infile>
  4011bf:	41 bd 00 00 00 00    	mov    $0x0,%r13d
  4011c5:	41 be 00 00 00 00    	mov    $0x0,%r14d
  4011cb:	e9 8d 00 00 00       	jmpq   40125d <main+0xfd>
  4011d0:	48 c7 c6 52 20 40 00 	mov    $0x402052,%rsi
  4011d7:	bf 0e 00 00 00       	mov    $0xe,%edi
  4011dc:	e8 5f fb ff ff       	callq  400d40 <signal@plt>
  4011e1:	bf 05 00 00 00       	mov    $0x5,%edi
  4011e6:	e8 25 fb ff ff       	callq  400d10 <alarm@plt>
  4011eb:	48 8d 2d 18 20 00 00 	lea    0x2018(%rip),%rbp        # 40320a <_IO_stdin_used+0x1ea>
  4011f2:	eb bd                	jmp    4011b1 <main+0x51>
  4011f4:	48 8b 3b             	mov    (%rbx),%rdi
  4011f7:	e8 6b fd ff ff       	callq  400f67 <usage>
  4011fc:	48 8d 35 9c 22 00 00 	lea    0x229c(%rip),%rsi        # 40349f <_IO_stdin_used+0x47f>
  401203:	48 8b 3d 9e 42 20 00 	mov    0x20429e(%rip),%rdi        # 6054a8 <optarg@@GLIBC_2.2.5>
  40120a:	e8 e1 fb ff ff       	callq  400df0 <fopen@plt>
  40120f:	48 89 05 da 42 20 00 	mov    %rax,0x2042da(%rip)        # 6054f0 <infile>
  401216:	48 85 c0             	test   %rax,%rax
  401219:	75 42                	jne    40125d <main+0xfd>
  40121b:	48 8b 0d 86 42 20 00 	mov    0x204286(%rip),%rcx        # 6054a8 <optarg@@GLIBC_2.2.5>
  401222:	48 8d 15 e9 1f 00 00 	lea    0x1fe9(%rip),%rdx        # 403212 <_IO_stdin_used+0x1f2>
  401229:	be 01 00 00 00       	mov    $0x1,%esi
  40122e:	48 8b 3d 8b 42 20 00 	mov    0x20428b(%rip),%rdi        # 6054c0 <stderr@@GLIBC_2.2.5>
  401235:	e8 16 fc ff ff       	callq  400e50 <__fprintf_chk@plt>
  40123a:	b8 01 00 00 00       	mov    $0x1,%eax
  40123f:	e9 d9 00 00 00       	jmpq   40131d <main+0x1bd>
  401244:	ba 10 00 00 00       	mov    $0x10,%edx
  401249:	be 00 00 00 00       	mov    $0x0,%esi
  40124e:	48 8b 3d 53 42 20 00 	mov    0x204253(%rip),%rdi        # 6054a8 <optarg@@GLIBC_2.2.5>
  401255:	e8 b6 fb ff ff       	callq  400e10 <strtoul@plt>
  40125a:	41 89 c6             	mov    %eax,%r14d
  40125d:	48 89 ea             	mov    %rbp,%rdx
  401260:	48 89 de             	mov    %rbx,%rsi
  401263:	44 89 e7             	mov    %r12d,%edi
  401266:	e8 95 fb ff ff       	callq  400e00 <getopt@plt>
  40126b:	3c ff                	cmp    $0xff,%al
  40126d:	74 62                	je     4012d1 <main+0x171>
  40126f:	0f be d0             	movsbl %al,%edx
  401272:	83 e8 61             	sub    $0x61,%eax
  401275:	3c 10                	cmp    $0x10,%al
  401277:	77 3a                	ja     4012b3 <main+0x153>
  401279:	0f b6 c0             	movzbl %al,%eax
  40127c:	48 8d 0d cd 1f 00 00 	lea    0x1fcd(%rip),%rcx        # 403250 <_IO_stdin_used+0x230>
  401283:	48 63 04 81          	movslq (%rcx,%rax,4),%rax
  401287:	48 01 c8             	add    %rcx,%rax
  40128a:	ff e0                	jmpq   *%rax
  40128c:	ba 0a 00 00 00       	mov    $0xa,%edx
  401291:	be 00 00 00 00       	mov    $0x0,%esi
  401296:	48 8b 3d 0b 42 20 00 	mov    0x20420b(%rip),%rdi        # 6054a8 <optarg@@GLIBC_2.2.5>
  40129d:	e8 ce fa ff ff       	callq  400d70 <strtol@plt>
  4012a2:	41 89 c5             	mov    %eax,%r13d
  4012a5:	eb b6                	jmp    40125d <main+0xfd>
  4012a7:	c7 05 d7 41 20 00 00 	movl   $0x0,0x2041d7(%rip)        # 605488 <notify>
  4012ae:	00 00 00 
  4012b1:	eb aa                	jmp    40125d <main+0xfd>
  4012b3:	48 8d 35 75 1f 00 00 	lea    0x1f75(%rip),%rsi        # 40322f <_IO_stdin_used+0x20f>
  4012ba:	bf 01 00 00 00       	mov    $0x1,%edi
  4012bf:	b8 00 00 00 00       	mov    $0x0,%eax
  4012c4:	e8 17 fb ff ff       	callq  400de0 <__printf_chk@plt>
  4012c9:	48 8b 3b             	mov    (%rbx),%rdi
  4012cc:	e8 96 fc ff ff       	callq  400f67 <usage>
  4012d1:	be 01 00 00 00       	mov    $0x1,%esi
  4012d6:	44 89 ef             	mov    %r13d,%edi
  4012d9:	e8 25 fd ff ff       	callq  401003 <initialize_target>
  4012de:	83 3d 23 42 20 00 00 	cmpl   $0x0,0x204223(%rip)        # 605508 <is_checker>
  4012e5:	74 09                	je     4012f0 <main+0x190>
  4012e7:	44 39 35 12 42 20 00 	cmp    %r14d,0x204212(%rip)        # 605500 <authkey>
  4012ee:	75 36                	jne    401326 <main+0x1c6>
  4012f0:	8b 15 0e 42 20 00    	mov    0x20420e(%rip),%edx        # 605504 <cookie>
  4012f6:	48 8d 35 45 1f 00 00 	lea    0x1f45(%rip),%rsi        # 403242 <_IO_stdin_used+0x222>
  4012fd:	bf 01 00 00 00       	mov    $0x1,%edi
  401302:	b8 00 00 00 00       	mov    $0x0,%eax
  401307:	e8 d4 fa ff ff       	callq  400de0 <__printf_chk@plt>
  40130c:	48 8b 3d 6d 41 20 00 	mov    0x20416d(%rip),%rdi        # 605480 <buf_offset>
  401313:	e8 91 0d 00 00       	callq  4020a9 <launch>
  401318:	b8 00 00 00 00       	mov    $0x0,%eax
  40131d:	5b                   	pop    %rbx
  40131e:	5d                   	pop    %rbp
  40131f:	41 5c                	pop    %r12
  401321:	41 5d                	pop    %r13
  401323:	41 5e                	pop    %r14
  401325:	c3                   	retq   
  401326:	44 89 f2             	mov    %r14d,%edx
  401329:	48 8d 35 38 1e 00 00 	lea    0x1e38(%rip),%rsi        # 403168 <_IO_stdin_used+0x148>
  401330:	bf 01 00 00 00       	mov    $0x1,%edi
  401335:	b8 00 00 00 00       	mov    $0x0,%eax
  40133a:	e8 a1 fa ff ff       	callq  400de0 <__printf_chk@plt>
  40133f:	b8 00 00 00 00       	mov    $0x0,%eax
  401344:	e8 6d 08 00 00       	callq  401bb6 <check_fail>
  401349:	eb a5                	jmp    4012f0 <main+0x190>

000000000040134b <scramble>:
  40134b:	48 83 ec 38          	sub    $0x38,%rsp
  40134f:	64 48 8b 04 25 28 00 	mov    %fs:0x28,%rax
  401356:	00 00 
  401358:	48 89 44 24 28       	mov    %rax,0x28(%rsp)
  40135d:	31 c0                	xor    %eax,%eax
  40135f:	eb 10                	jmp    401371 <scramble+0x26>
  401361:	69 d0 4b 82 00 00    	imul   $0x824b,%eax,%edx
  401367:	01 fa                	add    %edi,%edx
  401369:	89 c1                	mov    %eax,%ecx
  40136b:	89 14 8c             	mov    %edx,(%rsp,%rcx,4)
  40136e:	83 c0 01             	add    $0x1,%eax
  401371:	83 f8 09             	cmp    $0x9,%eax
  401374:	76 eb                	jbe    401361 <scramble+0x16>
  401376:	8b 44 24 1c          	mov    0x1c(%rsp),%eax
  40137a:	69 c0 d5 d0 00 00    	imul   $0xd0d5,%eax,%eax
  401380:	89 44 24 1c          	mov    %eax,0x1c(%rsp)
  401384:	8b 44 24 14          	mov    0x14(%rsp),%eax
  401388:	69 c0 e8 88 00 00    	imul   $0x88e8,%eax,%eax
  40138e:	89 44 24 14          	mov    %eax,0x14(%rsp)
  401392:	8b 44 24 24          	mov    0x24(%rsp),%eax
  401396:	69 c0 d2 67 00 00    	imul   $0x67d2,%eax,%eax
  40139c:	89 44 24 24          	mov    %eax,0x24(%rsp)
  4013a0:	8b 44 24 08          	mov    0x8(%rsp),%eax
  4013a4:	69 c0 52 bd 00 00    	imul   $0xbd52,%eax,%eax
  4013aa:	89 44 24 08          	mov    %eax,0x8(%rsp)
  4013ae:	8b 44 24 08          	mov    0x8(%rsp),%eax
  4013b2:	69 c0 aa 5e 00 00    	imul   $0x5eaa,%eax,%eax
  4013b8:	89 44 24 08          	mov    %eax,0x8(%rsp)
  4013bc:	8b 44 24 18          	mov    0x18(%rsp),%eax
  4013c0:	69 c0 ec 53 00 00    	imul   $0x53ec,%eax,%eax
  4013c6:	89 44 24 18          	mov    %eax,0x18(%rsp)
  4013ca:	8b 44 24 04          	mov    0x4(%rsp),%eax
  4013ce:	69 c0 eb 72 00 00    	imul   $0x72eb,%eax,%eax
  4013d4:	89 44 24 04          	mov    %eax,0x4(%rsp)
  4013d8:	8b 04 24             	mov    (%rsp),%eax
  4013db:	69 c0 14 84 00 00    	imul   $0x8414,%eax,%eax
  4013e1:	89 04 24             	mov    %eax,(%rsp)
  4013e4:	8b 44 24 18          	mov    0x18(%rsp),%eax
  4013e8:	69 c0 b5 69 00 00    	imul   $0x69b5,%eax,%eax
  4013ee:	89 44 24 18          	mov    %eax,0x18(%rsp)
  4013f2:	8b 44 24 18          	mov    0x18(%rsp),%eax
  4013f6:	69 c0 81 2a 00 00    	imul   $0x2a81,%eax,%eax
  4013fc:	89 44 24 18          	mov    %eax,0x18(%rsp)
  401400:	8b 44 24 14          	mov    0x14(%rsp),%eax
  401404:	69 c0 b0 40 00 00    	imul   $0x40b0,%eax,%eax
  40140a:	89 44 24 14          	mov    %eax,0x14(%rsp)
  40140e:	8b 44 24 04          	mov    0x4(%rsp),%eax
  401412:	69 c0 9f c0 00 00    	imul   $0xc09f,%eax,%eax
  401418:	89 44 24 04          	mov    %eax,0x4(%rsp)
  40141c:	8b 04 24             	mov    (%rsp),%eax
  40141f:	69 c0 31 bd 00 00    	imul   $0xbd31,%eax,%eax
  401425:	89 04 24             	mov    %eax,(%rsp)
  401428:	8b 44 24 20          	mov    0x20(%rsp),%eax
  40142c:	69 c0 70 26 00 00    	imul   $0x2670,%eax,%eax
  401432:	89 44 24 20          	mov    %eax,0x20(%rsp)
  401436:	8b 44 24 20          	mov    0x20(%rsp),%eax
  40143a:	69 c0 aa f5 00 00    	imul   $0xf5aa,%eax,%eax
  401440:	89 44 24 20          	mov    %eax,0x20(%rsp)
  401444:	8b 44 24 04          	mov    0x4(%rsp),%eax
  401448:	69 c0 b1 a9 00 00    	imul   $0xa9b1,%eax,%eax
  40144e:	89 44 24 04          	mov    %eax,0x4(%rsp)
  401452:	8b 44 24 14          	mov    0x14(%rsp),%eax
  401456:	69 c0 3f ef 00 00    	imul   $0xef3f,%eax,%eax
  40145c:	89 44 24 14          	mov    %eax,0x14(%rsp)
  401460:	8b 44 24 10          	mov    0x10(%rsp),%eax
  401464:	69 c0 8e e3 00 00    	imul   $0xe38e,%eax,%eax
  40146a:	89 44 24 10          	mov    %eax,0x10(%rsp)
  40146e:	8b 44 24 18          	mov    0x18(%rsp),%eax
  401472:	69 c0 a2 5f 00 00    	imul   $0x5fa2,%eax,%eax
  401478:	89 44 24 18          	mov    %eax,0x18(%rsp)
  40147c:	8b 44 24 18          	mov    0x18(%rsp),%eax
  401480:	69 c0 20 16 00 00    	imul   $0x1620,%eax,%eax
  401486:	89 44 24 18          	mov    %eax,0x18(%rsp)
  40148a:	8b 44 24 04          	mov    0x4(%rsp),%eax
  40148e:	69 c0 df 64 00 00    	imul   $0x64df,%eax,%eax
  401494:	89 44 24 04          	mov    %eax,0x4(%rsp)
  401498:	8b 44 24 10          	mov    0x10(%rsp),%eax
  40149c:	69 c0 0b 64 00 00    	imul   $0x640b,%eax,%eax
  4014a2:	89 44 24 10          	mov    %eax,0x10(%rsp)
  4014a6:	8b 44 24 0c          	mov    0xc(%rsp),%eax
  4014aa:	69 c0 de 21 00 00    	imul   $0x21de,%eax,%eax
  4014b0:	89 44 24 0c          	mov    %eax,0xc(%rsp)
  4014b4:	8b 44 24 0c          	mov    0xc(%rsp),%eax
  4014b8:	69 c0 88 82 00 00    	imul   $0x8288,%eax,%eax
  4014be:	89 44 24 0c          	mov    %eax,0xc(%rsp)
  4014c2:	8b 44 24 10          	mov    0x10(%rsp),%eax
  4014c6:	69 c0 16 9c 00 00    	imul   $0x9c16,%eax,%eax
  4014cc:	89 44 24 10          	mov    %eax,0x10(%rsp)
  4014d0:	8b 44 24 10          	mov    0x10(%rsp),%eax
  4014d4:	69 c0 24 30 00 00    	imul   $0x3024,%eax,%eax
  4014da:	89 44 24 10          	mov    %eax,0x10(%rsp)
  4014de:	8b 44 24 24          	mov    0x24(%rsp),%eax
  4014e2:	69 c0 3d 20 00 00    	imul   $0x203d,%eax,%eax
  4014e8:	89 44 24 24          	mov    %eax,0x24(%rsp)
  4014ec:	8b 44 24 08          	mov    0x8(%rsp),%eax
  4014f0:	69 c0 8d a2 00 00    	imul   $0xa28d,%eax,%eax
  4014f6:	89 44 24 08          	mov    %eax,0x8(%rsp)
  4014fa:	8b 44 24 10          	mov    0x10(%rsp),%eax
  4014fe:	69 c0 78 a0 00 00    	imul   $0xa078,%eax,%eax
  401504:	89 44 24 10          	mov    %eax,0x10(%rsp)
  401508:	8b 04 24             	mov    (%rsp),%eax
  40150b:	69 c0 d4 04 00 00    	imul   $0x4d4,%eax,%eax
  401511:	89 04 24             	mov    %eax,(%rsp)
  401514:	8b 44 24 04          	mov    0x4(%rsp),%eax
  401518:	69 c0 f6 95 00 00    	imul   $0x95f6,%eax,%eax
  40151e:	89 44 24 04          	mov    %eax,0x4(%rsp)
  401522:	8b 44 24 08          	mov    0x8(%rsp),%eax
  401526:	69 c0 a1 5c 00 00    	imul   $0x5ca1,%eax,%eax
  40152c:	89 44 24 08          	mov    %eax,0x8(%rsp)
  401530:	8b 44 24 1c          	mov    0x1c(%rsp),%eax
  401534:	69 c0 1f e1 00 00    	imul   $0xe11f,%eax,%eax
  40153a:	89 44 24 1c          	mov    %eax,0x1c(%rsp)
  40153e:	8b 44 24 0c          	mov    0xc(%rsp),%eax
  401542:	69 c0 48 dc 00 00    	imul   $0xdc48,%eax,%eax
  401548:	89 44 24 0c          	mov    %eax,0xc(%rsp)
  40154c:	8b 44 24 10          	mov    0x10(%rsp),%eax
  401550:	69 c0 0f e1 00 00    	imul   $0xe10f,%eax,%eax
  401556:	89 44 24 10          	mov    %eax,0x10(%rsp)
  40155a:	8b 44 24 18          	mov    0x18(%rsp),%eax
  40155e:	69 c0 0e ff 00 00    	imul   $0xff0e,%eax,%eax
  401564:	89 44 24 18          	mov    %eax,0x18(%rsp)
  401568:	8b 44 24 1c          	mov    0x1c(%rsp),%eax
  40156c:	69 c0 75 5c 00 00    	imul   $0x5c75,%eax,%eax
  401572:	89 44 24 1c          	mov    %eax,0x1c(%rsp)
  401576:	8b 44 24 08          	mov    0x8(%rsp),%eax
  40157a:	69 c0 b8 1d 00 00    	imul   $0x1db8,%eax,%eax
  401580:	89 44 24 08          	mov    %eax,0x8(%rsp)
  401584:	8b 44 24 1c          	mov    0x1c(%rsp),%eax
  401588:	69 c0 38 4b 00 00    	imul   $0x4b38,%eax,%eax
  40158e:	89 44 24 1c          	mov    %eax,0x1c(%rsp)
  401592:	8b 44 24 08          	mov    0x8(%rsp),%eax
  401596:	69 c0 e7 09 00 00    	imul   $0x9e7,%eax,%eax
  40159c:	89 44 24 08          	mov    %eax,0x8(%rsp)
  4015a0:	8b 44 24 1c          	mov    0x1c(%rsp),%eax
  4015a4:	69 c0 4b 4d 00 00    	imul   $0x4d4b,%eax,%eax
  4015aa:	89 44 24 1c          	mov    %eax,0x1c(%rsp)
  4015ae:	8b 44 24 08          	mov    0x8(%rsp),%eax
  4015b2:	69 c0 15 c4 00 00    	imul   $0xc415,%eax,%eax
  4015b8:	89 44 24 08          	mov    %eax,0x8(%rsp)
  4015bc:	8b 44 24 18          	mov    0x18(%rsp),%eax
  4015c0:	69 c0 cf 2a 00 00    	imul   $0x2acf,%eax,%eax
  4015c6:	89 44 24 18          	mov    %eax,0x18(%rsp)
  4015ca:	8b 44 24 24          	mov    0x24(%rsp),%eax
  4015ce:	69 c0 f6 4a 00 00    	imul   $0x4af6,%eax,%eax
  4015d4:	89 44 24 24          	mov    %eax,0x24(%rsp)
  4015d8:	8b 44 24 20          	mov    0x20(%rsp),%eax
  4015dc:	69 c0 a0 2f 00 00    	imul   $0x2fa0,%eax,%eax
  4015e2:	89 44 24 20          	mov    %eax,0x20(%rsp)
  4015e6:	8b 44 24 14          	mov    0x14(%rsp),%eax
  4015ea:	69 c0 69 61 00 00    	imul   $0x6169,%eax,%eax
  4015f0:	89 44 24 14          	mov    %eax,0x14(%rsp)
  4015f4:	8b 44 24 08          	mov    0x8(%rsp),%eax
  4015f8:	69 c0 4f fe 00 00    	imul   $0xfe4f,%eax,%eax
  4015fe:	89 44 24 08          	mov    %eax,0x8(%rsp)
  401602:	8b 44 24 18          	mov    0x18(%rsp),%eax
  401606:	69 c0 cd 4a 00 00    	imul   $0x4acd,%eax,%eax
  40160c:	89 44 24 18          	mov    %eax,0x18(%rsp)
  401610:	8b 44 24 14          	mov    0x14(%rsp),%eax
  401614:	69 c0 39 fe 00 00    	imul   $0xfe39,%eax,%eax
  40161a:	89 44 24 14          	mov    %eax,0x14(%rsp)
  40161e:	8b 44 24 18          	mov    0x18(%rsp),%eax
  401622:	69 c0 30 20 00 00    	imul   $0x2030,%eax,%eax
  401628:	89 44 24 18          	mov    %eax,0x18(%rsp)
  40162c:	8b 44 24 10          	mov    0x10(%rsp),%eax
  401630:	69 c0 7d 19 00 00    	imul   $0x197d,%eax,%eax
  401636:	89 44 24 10          	mov    %eax,0x10(%rsp)
  40163a:	8b 44 24 24          	mov    0x24(%rsp),%eax
  40163e:	69 c0 37 25 00 00    	imul   $0x2537,%eax,%eax
  401644:	89 44 24 24          	mov    %eax,0x24(%rsp)
  401648:	8b 44 24 1c          	mov    0x1c(%rsp),%eax
  40164c:	69 c0 57 82 00 00    	imul   $0x8257,%eax,%eax
  401652:	89 44 24 1c          	mov    %eax,0x1c(%rsp)
  401656:	8b 44 24 0c          	mov    0xc(%rsp),%eax
  40165a:	69 c0 47 f4 00 00    	imul   $0xf447,%eax,%eax
  401660:	89 44 24 0c          	mov    %eax,0xc(%rsp)
  401664:	8b 04 24             	mov    (%rsp),%eax
  401667:	69 c0 30 e3 00 00    	imul   $0xe330,%eax,%eax
  40166d:	89 04 24             	mov    %eax,(%rsp)
  401670:	8b 44 24 24          	mov    0x24(%rsp),%eax
  401674:	69 c0 de b4 00 00    	imul   $0xb4de,%eax,%eax
  40167a:	89 44 24 24          	mov    %eax,0x24(%rsp)
  40167e:	8b 44 24 14          	mov    0x14(%rsp),%eax
  401682:	69 c0 3a 38 00 00    	imul   $0x383a,%eax,%eax
  401688:	89 44 24 14          	mov    %eax,0x14(%rsp)
  40168c:	8b 44 24 1c          	mov    0x1c(%rsp),%eax
  401690:	69 c0 03 9e 00 00    	imul   $0x9e03,%eax,%eax
  401696:	89 44 24 1c          	mov    %eax,0x1c(%rsp)
  40169a:	8b 44 24 1c          	mov    0x1c(%rsp),%eax
  40169e:	69 c0 95 df 00 00    	imul   $0xdf95,%eax,%eax
  4016a4:	89 44 24 1c          	mov    %eax,0x1c(%rsp)
  4016a8:	8b 44 24 10          	mov    0x10(%rsp),%eax
  4016ac:	69 c0 50 2e 00 00    	imul   $0x2e50,%eax,%eax
  4016b2:	89 44 24 10          	mov    %eax,0x10(%rsp)
  4016b6:	8b 44 24 1c          	mov    0x1c(%rsp),%eax
  4016ba:	69 c0 c3 38 00 00    	imul   $0x38c3,%eax,%eax
  4016c0:	89 44 24 1c          	mov    %eax,0x1c(%rsp)
  4016c4:	8b 44 24 14          	mov    0x14(%rsp),%eax
  4016c8:	69 c0 cd d4 00 00    	imul   $0xd4cd,%eax,%eax
  4016ce:	89 44 24 14          	mov    %eax,0x14(%rsp)
  4016d2:	8b 44 24 20          	mov    0x20(%rsp),%eax
  4016d6:	69 c0 c3 4d 00 00    	imul   $0x4dc3,%eax,%eax
  4016dc:	89 44 24 20          	mov    %eax,0x20(%rsp)
  4016e0:	8b 44 24 08          	mov    0x8(%rsp),%eax
  4016e4:	69 c0 81 16 00 00    	imul   $0x1681,%eax,%eax
  4016ea:	89 44 24 08          	mov    %eax,0x8(%rsp)
  4016ee:	8b 44 24 14          	mov    0x14(%rsp),%eax
  4016f2:	69 c0 af 46 00 00    	imul   $0x46af,%eax,%eax
  4016f8:	89 44 24 14          	mov    %eax,0x14(%rsp)
  4016fc:	8b 44 24 10          	mov    0x10(%rsp),%eax
  401700:	69 c0 44 2b 00 00    	imul   $0x2b44,%eax,%eax
  401706:	89 44 24 10          	mov    %eax,0x10(%rsp)
  40170a:	8b 44 24 14          	mov    0x14(%rsp),%eax
  40170e:	69 c0 ef 55 00 00    	imul   $0x55ef,%eax,%eax
  401714:	89 44 24 14          	mov    %eax,0x14(%rsp)
  401718:	8b 44 24 08          	mov    0x8(%rsp),%eax
  40171c:	69 c0 1f d6 00 00    	imul   $0xd61f,%eax,%eax
  401722:	89 44 24 08          	mov    %eax,0x8(%rsp)
  401726:	8b 44 24 20          	mov    0x20(%rsp),%eax
  40172a:	69 c0 6b 93 00 00    	imul   $0x936b,%eax,%eax
  401730:	89 44 24 20          	mov    %eax,0x20(%rsp)
  401734:	8b 44 24 24          	mov    0x24(%rsp),%eax
  401738:	69 c0 d6 a5 00 00    	imul   $0xa5d6,%eax,%eax
  40173e:	89 44 24 24          	mov    %eax,0x24(%rsp)
  401742:	8b 44 24 10          	mov    0x10(%rsp),%eax
  401746:	69 c0 95 c8 00 00    	imul   $0xc895,%eax,%eax
  40174c:	89 44 24 10          	mov    %eax,0x10(%rsp)
  401750:	8b 44 24 1c          	mov    0x1c(%rsp),%eax
  401754:	69 c0 17 a7 00 00    	imul   $0xa717,%eax,%eax
  40175a:	89 44 24 1c          	mov    %eax,0x1c(%rsp)
  40175e:	8b 44 24 08          	mov    0x8(%rsp),%eax
  401762:	69 c0 a7 d3 00 00    	imul   $0xd3a7,%eax,%eax
  401768:	89 44 24 08          	mov    %eax,0x8(%rsp)
  40176c:	8b 44 24 10          	mov    0x10(%rsp),%eax
  401770:	69 c0 d8 63 00 00    	imul   $0x63d8,%eax,%eax
  401776:	89 44 24 10          	mov    %eax,0x10(%rsp)
  40177a:	8b 44 24 10          	mov    0x10(%rsp),%eax
  40177e:	69 c0 14 2e 00 00    	imul   $0x2e14,%eax,%eax
  401784:	89 44 24 10          	mov    %eax,0x10(%rsp)
  401788:	8b 44 24 1c          	mov    0x1c(%rsp),%eax
  40178c:	69 c0 72 c2 00 00    	imul   $0xc272,%eax,%eax
  401792:	89 44 24 1c          	mov    %eax,0x1c(%rsp)
  401796:	8b 44 24 24          	mov    0x24(%rsp),%eax
  40179a:	69 c0 e1 21 00 00    	imul   $0x21e1,%eax,%eax
  4017a0:	89 44 24 24          	mov    %eax,0x24(%rsp)
  4017a4:	8b 44 24 10          	mov    0x10(%rsp),%eax
  4017a8:	69 c0 ea 9d 00 00    	imul   $0x9dea,%eax,%eax
  4017ae:	89 44 24 10          	mov    %eax,0x10(%rsp)
  4017b2:	8b 44 24 18          	mov    0x18(%rsp),%eax
  4017b6:	69 c0 d9 b6 00 00    	imul   $0xb6d9,%eax,%eax
  4017bc:	89 44 24 18          	mov    %eax,0x18(%rsp)
  4017c0:	8b 44 24 08          	mov    0x8(%rsp),%eax
  4017c4:	69 c0 a0 bb 00 00    	imul   $0xbba0,%eax,%eax
  4017ca:	89 44 24 08          	mov    %eax,0x8(%rsp)
  4017ce:	8b 44 24 20          	mov    0x20(%rsp),%eax
  4017d2:	69 c0 1d eb 00 00    	imul   $0xeb1d,%eax,%eax
  4017d8:	89 44 24 20          	mov    %eax,0x20(%rsp)
  4017dc:	8b 44 24 0c          	mov    0xc(%rsp),%eax
  4017e0:	69 c0 b5 5d 00 00    	imul   $0x5db5,%eax,%eax
  4017e6:	89 44 24 0c          	mov    %eax,0xc(%rsp)
  4017ea:	8b 44 24 08          	mov    0x8(%rsp),%eax
  4017ee:	69 c0 60 37 00 00    	imul   $0x3760,%eax,%eax
  4017f4:	89 44 24 08          	mov    %eax,0x8(%rsp)
  4017f8:	ba 00 00 00 00       	mov    $0x0,%edx
  4017fd:	b8 00 00 00 00       	mov    $0x0,%eax
  401802:	eb 0a                	jmp    40180e <scramble+0x4c3>
  401804:	89 d1                	mov    %edx,%ecx
  401806:	8b 0c 8c             	mov    (%rsp,%rcx,4),%ecx
  401809:	01 c8                	add    %ecx,%eax
  40180b:	83 c2 01             	add    $0x1,%edx
  40180e:	83 fa 09             	cmp    $0x9,%edx
  401811:	76 f1                	jbe    401804 <scramble+0x4b9>
  401813:	48 8b 74 24 28       	mov    0x28(%rsp),%rsi
  401818:	64 48 33 34 25 28 00 	xor    %fs:0x28,%rsi
  40181f:	00 00 
  401821:	75 05                	jne    401828 <scramble+0x4dd>
  401823:	48 83 c4 38          	add    $0x38,%rsp
  401827:	c3                   	retq   
  401828:	e8 b3 f4 ff ff       	callq  400ce0 <__stack_chk_fail@plt>

000000000040182d <getbuf>:
  40182d:	48 83 ec 38          	sub    $0x38,%rsp
  401831:	48 89 e7             	mov    %rsp,%rdi
  401834:	e8 b5 03 00 00       	callq  401bee <Gets>
  401839:	b8 01 00 00 00       	mov    $0x1,%eax
  40183e:	48 83 c4 38          	add    $0x38,%rsp
  401842:	c3                   	retq   

0000000000401843 <touch1>:
  401843:	48 83 ec 08          	sub    $0x8,%rsp
  401847:	c7 05 ab 3c 20 00 01 	movl   $0x1,0x203cab(%rip)        # 6054fc <vlevel>
  40184e:	00 00 00 
  401851:	48 8d 3d 98 1a 00 00 	lea    0x1a98(%rip),%rdi        # 4032f0 <_IO_stdin_used+0x2d0>
  401858:	e8 63 f4 ff ff       	callq  400cc0 <puts@plt>
  40185d:	bf 01 00 00 00       	mov    $0x1,%edi
  401862:	e8 f7 05 00 00       	callq  401e5e <validate>
  401867:	bf 00 00 00 00       	mov    $0x0,%edi
  40186c:	e8 bf f5 ff ff       	callq  400e30 <exit@plt>

0000000000401871 <touch2>:
  401871:	48 83 ec 08          	sub    $0x8,%rsp
  401875:	89 fa                	mov    %edi,%edx
  401877:	c7 05 7b 3c 20 00 02 	movl   $0x2,0x203c7b(%rip)        # 6054fc <vlevel>
  40187e:	00 00 00 
  401881:	39 3d 7d 3c 20 00    	cmp    %edi,0x203c7d(%rip)        # 605504 <cookie>
  401887:	74 2a                	je     4018b3 <touch2+0x42>
  401889:	48 8d 35 b0 1a 00 00 	lea    0x1ab0(%rip),%rsi        # 403340 <_IO_stdin_used+0x320>
  401890:	bf 01 00 00 00       	mov    $0x1,%edi
  401895:	b8 00 00 00 00       	mov    $0x0,%eax
  40189a:	e8 41 f5 ff ff       	callq  400de0 <__printf_chk@plt>
  40189f:	bf 02 00 00 00       	mov    $0x2,%edi
  4018a4:	e8 85 06 00 00       	callq  401f2e <fail>
  4018a9:	bf 00 00 00 00       	mov    $0x0,%edi
  4018ae:	e8 7d f5 ff ff       	callq  400e30 <exit@plt>
  4018b3:	48 8d 35 5e 1a 00 00 	lea    0x1a5e(%rip),%rsi        # 403318 <_IO_stdin_used+0x2f8>
  4018ba:	bf 01 00 00 00       	mov    $0x1,%edi
  4018bf:	b8 00 00 00 00       	mov    $0x0,%eax
  4018c4:	e8 17 f5 ff ff       	callq  400de0 <__printf_chk@plt>
  4018c9:	bf 02 00 00 00       	mov    $0x2,%edi
  4018ce:	e8 8b 05 00 00       	callq  401e5e <validate>
  4018d3:	eb d4                	jmp    4018a9 <touch2+0x38>

00000000004018d5 <hexmatch>:
  4018d5:	41 54                	push   %r12
  4018d7:	55                   	push   %rbp
  4018d8:	53                   	push   %rbx
  4018d9:	48 83 c4 80          	add    $0xffffffffffffff80,%rsp
  4018dd:	89 fd                	mov    %edi,%ebp
  4018df:	48 89 f3             	mov    %rsi,%rbx
  4018e2:	64 48 8b 04 25 28 00 	mov    %fs:0x28,%rax
  4018e9:	00 00 
  4018eb:	48 89 44 24 78       	mov    %rax,0x78(%rsp)
  4018f0:	31 c0                	xor    %eax,%eax
  4018f2:	e8 a9 f4 ff ff       	callq  400da0 <random@plt>
  4018f7:	48 89 c1             	mov    %rax,%rcx
  4018fa:	48 ba 0b d7 a3 70 3d 	movabs $0xa3d70a3d70a3d70b,%rdx
  401901:	0a d7 a3 
  401904:	48 f7 ea             	imul   %rdx
  401907:	48 01 ca             	add    %rcx,%rdx
  40190a:	48 c1 fa 06          	sar    $0x6,%rdx
  40190e:	48 89 c8             	mov    %rcx,%rax
  401911:	48 c1 f8 3f          	sar    $0x3f,%rax
  401915:	48 29 c2             	sub    %rax,%rdx
  401918:	48 8d 04 92          	lea    (%rdx,%rdx,4),%rax
  40191c:	48 8d 14 80          	lea    (%rax,%rax,4),%rdx
  401920:	48 8d 04 95 00 00 00 	lea    0x0(,%rdx,4),%rax
  401927:	00 
  401928:	48 29 c1             	sub    %rax,%rcx
  40192b:	4c 8d 24 0c          	lea    (%rsp,%rcx,1),%r12
  40192f:	41 89 e8             	mov    %ebp,%r8d
  401932:	48 8d 0d d4 19 00 00 	lea    0x19d4(%rip),%rcx        # 40330d <_IO_stdin_used+0x2ed>
  401939:	48 c7 c2 ff ff ff ff 	mov    $0xffffffffffffffff,%rdx
  401940:	be 01 00 00 00       	mov    $0x1,%esi
  401945:	4c 89 e7             	mov    %r12,%rdi
  401948:	b8 00 00 00 00       	mov    $0x0,%eax
  40194d:	e8 0e f5 ff ff       	callq  400e60 <__sprintf_chk@plt>
  401952:	ba 09 00 00 00       	mov    $0x9,%edx
  401957:	4c 89 e6             	mov    %r12,%rsi
  40195a:	48 89 df             	mov    %rbx,%rdi
  40195d:	e8 3e f3 ff ff       	callq  400ca0 <strncmp@plt>
  401962:	85 c0                	test   %eax,%eax
  401964:	0f 94 c0             	sete   %al
  401967:	48 8b 5c 24 78       	mov    0x78(%rsp),%rbx
  40196c:	64 48 33 1c 25 28 00 	xor    %fs:0x28,%rbx
  401973:	00 00 
  401975:	75 0c                	jne    401983 <hexmatch+0xae>
  401977:	0f b6 c0             	movzbl %al,%eax
  40197a:	48 83 ec 80          	sub    $0xffffffffffffff80,%rsp
  40197e:	5b                   	pop    %rbx
  40197f:	5d                   	pop    %rbp
  401980:	41 5c                	pop    %r12
  401982:	c3                   	retq   
  401983:	e8 58 f3 ff ff       	callq  400ce0 <__stack_chk_fail@plt>

0000000000401988 <touch3>:
  401988:	53                   	push   %rbx
  401989:	48 89 fb             	mov    %rdi,%rbx
  40198c:	c7 05 66 3b 20 00 03 	movl   $0x3,0x203b66(%rip)        # 6054fc <vlevel>
  401993:	00 00 00 
  401996:	48 89 fe             	mov    %rdi,%rsi
  401999:	8b 3d 65 3b 20 00    	mov    0x203b65(%rip),%edi        # 605504 <cookie>
  40199f:	e8 31 ff ff ff       	callq  4018d5 <hexmatch>
  4019a4:	85 c0                	test   %eax,%eax
  4019a6:	74 2d                	je     4019d5 <touch3+0x4d>
  4019a8:	48 89 da             	mov    %rbx,%rdx
  4019ab:	48 8d 35 b6 19 00 00 	lea    0x19b6(%rip),%rsi        # 403368 <_IO_stdin_used+0x348>
  4019b2:	bf 01 00 00 00       	mov    $0x1,%edi
  4019b7:	b8 00 00 00 00       	mov    $0x0,%eax
  4019bc:	e8 1f f4 ff ff       	callq  400de0 <__printf_chk@plt>
  4019c1:	bf 03 00 00 00       	mov    $0x3,%edi
  4019c6:	e8 93 04 00 00       	callq  401e5e <validate>
  4019cb:	bf 00 00 00 00       	mov    $0x0,%edi
  4019d0:	e8 5b f4 ff ff       	callq  400e30 <exit@plt>
  4019d5:	48 89 da             	mov    %rbx,%rdx
  4019d8:	48 8d 35 b1 19 00 00 	lea    0x19b1(%rip),%rsi        # 403390 <_IO_stdin_used+0x370>
  4019df:	bf 01 00 00 00       	mov    $0x1,%edi
  4019e4:	b8 00 00 00 00       	mov    $0x0,%eax
  4019e9:	e8 f2 f3 ff ff       	callq  400de0 <__printf_chk@plt>
  4019ee:	bf 03 00 00 00       	mov    $0x3,%edi
  4019f3:	e8 36 05 00 00       	callq  401f2e <fail>
  4019f8:	eb d1                	jmp    4019cb <touch3+0x43>

00000000004019fa <test>:
  4019fa:	48 83 ec 08          	sub    $0x8,%rsp
  4019fe:	b8 00 00 00 00       	mov    $0x0,%eax
  401a03:	e8 25 fe ff ff       	callq  40182d <getbuf>
  401a08:	89 c2                	mov    %eax,%edx
  401a0a:	48 8d 35 a7 19 00 00 	lea    0x19a7(%rip),%rsi        # 4033b8 <_IO_stdin_used+0x398>
  401a11:	bf 01 00 00 00       	mov    $0x1,%edi
  401a16:	b8 00 00 00 00       	mov    $0x0,%eax
  401a1b:	e8 c0 f3 ff ff       	callq  400de0 <__printf_chk@plt>
  401a20:	48 83 c4 08          	add    $0x8,%rsp
  401a24:	c3                   	retq   

0000000000401a25 <start_farm>:
  401a25:	b8 01 00 00 00       	mov    $0x1,%eax
  401a2a:	c3                   	retq   

0000000000401a2b <getval_244>:
  401a2b:	b8 48 89 c7 c1       	mov    $0xc1c78948,%eax
  401a30:	c3                   	retq   

0000000000401a31 <setval_480>:
  401a31:	c7 07 58 90 90 90    	movl   $0x90909058,(%rdi)
  401a37:	c3                   	retq   

0000000000401a38 <getval_328>:
  401a38:	b8 58 90 90 c3       	mov    $0xc3909058,%eax
  401a3d:	c3                   	retq   

0000000000401a3e <setval_345>:
  401a3e:	c7 07 48 c9 c7 90    	movl   $0x90c7c948,(%rdi)
  401a44:	c3                   	retq   

0000000000401a45 <getval_452>:
  401a45:	b8 48 89 c7 90       	mov    $0x90c78948,%eax
  401a4a:	c3                   	retq   

0000000000401a4b <getval_133>:
  401a4b:	b8 58 90 c1 50       	mov    $0x50c19058,%eax
  401a50:	c3                   	retq   

0000000000401a51 <getval_307>:
  401a51:	b8 48 89 c7 c3       	mov    $0xc3c78948,%eax
  401a56:	c3                   	retq   

0000000000401a57 <setval_286>:
  401a57:	c7 07 63 19 50 90    	movl   $0x90501963,(%rdi)
  401a5d:	c3                   	retq   

0000000000401a5e <mid_farm>:
  401a5e:	b8 01 00 00 00       	mov    $0x1,%eax
  401a63:	c3                   	retq   

0000000000401a64 <add_xy>:
  401a64:	48 8d 04 37          	lea    (%rdi,%rsi,1),%rax
  401a68:	c3                   	retq   

0000000000401a69 <getval_142>:
  401a69:	b8 89 ca 94 c9       	mov    $0xc994ca89,%eax
  401a6e:	c3                   	retq   

0000000000401a6f <setval_212>:
  401a6f:	c7 07 4c 89 e0 90    	movl   $0x90e0894c,(%rdi)
  401a75:	c3                   	retq   

0000000000401a76 <addval_498>:
  401a76:	8d 87 48 81 e0 c3    	lea    -0x3c1f7eb8(%rdi),%eax
  401a7c:	c3                   	retq   

0000000000401a7d <getval_209>:
  401a7d:	b8 48 89 e0 c1       	mov    $0xc1e08948,%eax
  401a82:	c3                   	retq   

0000000000401a83 <setval_250>:
  401a83:	c7 07 89 d6 38 db    	movl   $0xdb38d689,(%rdi)
  401a89:	c3                   	retq   

0000000000401a8a <getval_389>:
  401a8a:	b8 89 c1 90 c3       	mov    $0xc390c189,%eax
  401a8f:	c3                   	retq   

0000000000401a90 <setval_348>:
  401a90:	c7 07 48 89 e0 c1    	movl   $0xc1e08948,(%rdi)
  401a96:	c3                   	retq   

0000000000401a97 <addval_277>:
  401a97:	8d 87 89 d6 84 db    	lea    -0x247b2977(%rdi),%eax
  401a9d:	c3                   	retq   

0000000000401a9e <getval_324>:
  401a9e:	b8 89 ca 84 c9       	mov    $0xc984ca89,%eax
  401aa3:	c3                   	retq   

0000000000401aa4 <addval_125>:
  401aa4:	8d 87 e1 89 ca c3    	lea    -0x3c35761f(%rdi),%eax
  401aaa:	c3                   	retq   

0000000000401aab <addval_393>:
  401aab:	8d 87 89 d6 91 c3    	lea    -0x3c6e2977(%rdi),%eax
  401ab1:	c3                   	retq   

0000000000401ab2 <setval_290>:
  401ab2:	c7 07 c9 c1 08 d2    	movl   $0xd208c1c9,(%rdi)
  401ab8:	c3                   	retq   

0000000000401ab9 <addval_104>:
  401ab9:	8d 87 09 c1 84 db    	lea    -0x247b3ef7(%rdi),%eax
  401abf:	c3                   	retq   

0000000000401ac0 <addval_197>:
  401ac0:	8d 87 48 89 e0 90    	lea    -0x6f1f76b8(%rdi),%eax
  401ac6:	c3                   	retq   

0000000000401ac7 <getval_240>:
  401ac7:	b8 35 81 d6 90       	mov    $0x90d68135,%eax
  401acc:	c3                   	retq   

0000000000401acd <setval_169>:
  401acd:	c7 07 1c 89 c1 91    	movl   $0x91c1891c,(%rdi)
  401ad3:	c3                   	retq   

0000000000401ad4 <addval_381>:
  401ad4:	8d 87 c8 89 e0 90    	lea    -0x6f1f7638(%rdi),%eax
  401ada:	c3                   	retq   

0000000000401adb <addval_102>:
  401adb:	8d 87 c9 c1 38 db    	lea    -0x24c73e37(%rdi),%eax
  401ae1:	c3                   	retq   

0000000000401ae2 <getval_124>:
  401ae2:	b8 5f 48 89 e0       	mov    $0xe089485f,%eax
  401ae7:	c3                   	retq   

0000000000401ae8 <setval_362>:
  401ae8:	c7 07 81 ca 90 c3    	movl   $0xc390ca81,(%rdi)
  401aee:	c3                   	retq   

0000000000401aef <setval_253>:
  401aef:	c7 07 88 ca 84 d2    	movl   $0xd284ca88,(%rdi)
  401af5:	c3                   	retq   

0000000000401af6 <addval_138>:
  401af6:	8d 87 89 d6 91 c3    	lea    -0x3c6e2977(%rdi),%eax
  401afc:	c3                   	retq   

0000000000401afd <getval_394>:
  401afd:	b8 81 ca 08 d2       	mov    $0xd208ca81,%eax
  401b02:	c3                   	retq   

0000000000401b03 <getval_373>:
  401b03:	b8 89 c1 28 d2       	mov    $0xd228c189,%eax
  401b08:	c3                   	retq   

0000000000401b09 <setval_337>:
  401b09:	c7 07 a7 89 d6 92    	movl   $0x92d689a7,(%rdi)
  401b0f:	c3                   	retq   

0000000000401b10 <addval_391>:
  401b10:	8d 87 8b c1 90 c3    	lea    -0x3c6f3e75(%rdi),%eax
  401b16:	c3                   	retq   

0000000000401b17 <addval_283>:
  401b17:	8d 87 c9 d6 84 c9    	lea    -0x367b2937(%rdi),%eax
  401b1d:	c3                   	retq   

0000000000401b1e <setval_365>:
  401b1e:	c7 07 89 ca 28 c0    	movl   $0xc028ca89,(%rdi)
  401b24:	c3                   	retq   

0000000000401b25 <setval_463>:
  401b25:	c7 07 89 ca 91 90    	movl   $0x9091ca89,(%rdi)
  401b2b:	c3                   	retq   

0000000000401b2c <getval_343>:
  401b2c:	b8 48 89 e0 c2       	mov    $0xc2e08948,%eax
  401b31:	c3                   	retq   

0000000000401b32 <addval_271>:
  401b32:	8d 87 89 c1 38 c9    	lea    -0x36c73e77(%rdi),%eax
  401b38:	c3                   	retq   

0000000000401b39 <addval_129>:
  401b39:	8d 87 89 d6 00 c9    	lea    -0x36ff2977(%rdi),%eax
  401b3f:	c3                   	retq   

0000000000401b40 <end_farm>:
  401b40:	b8 01 00 00 00       	mov    $0x1,%eax
  401b45:	c3                   	retq   

0000000000401b46 <save_char>:
  401b46:	8b 05 d8 45 20 00    	mov    0x2045d8(%rip),%eax        # 606124 <gets_cnt>
  401b4c:	3d ff 03 00 00       	cmp    $0x3ff,%eax
  401b51:	7f 4a                	jg     401b9d <save_char+0x57>
  401b53:	89 f9                	mov    %edi,%ecx
  401b55:	c0 e9 04             	shr    $0x4,%cl
  401b58:	8d 14 40             	lea    (%rax,%rax,2),%edx
  401b5b:	4c 8d 05 7e 1b 00 00 	lea    0x1b7e(%rip),%r8        # 4036e0 <trans_char>
  401b62:	83 e1 0f             	and    $0xf,%ecx
  401b65:	45 0f b6 0c 08       	movzbl (%r8,%rcx,1),%r9d
  401b6a:	48 8d 0d af 39 20 00 	lea    0x2039af(%rip),%rcx        # 605520 <gets_buf>
  401b71:	48 63 f2             	movslq %edx,%rsi
  401b74:	44 88 0c 31          	mov    %r9b,(%rcx,%rsi,1)
  401b78:	8d 72 01             	lea    0x1(%rdx),%esi
  401b7b:	83 e7 0f             	and    $0xf,%edi
  401b7e:	41 0f b6 3c 38       	movzbl (%r8,%rdi,1),%edi
  401b83:	48 63 f6             	movslq %esi,%rsi
  401b86:	40 88 3c 31          	mov    %dil,(%rcx,%rsi,1)
  401b8a:	83 c2 02             	add    $0x2,%edx
  401b8d:	48 63 d2             	movslq %edx,%rdx
  401b90:	c6 04 11 20          	movb   $0x20,(%rcx,%rdx,1)
  401b94:	83 c0 01             	add    $0x1,%eax
  401b97:	89 05 87 45 20 00    	mov    %eax,0x204587(%rip)        # 606124 <gets_cnt>
  401b9d:	f3 c3                	repz retq 

0000000000401b9f <save_term>:
  401b9f:	8b 05 7f 45 20 00    	mov    0x20457f(%rip),%eax        # 606124 <gets_cnt>
  401ba5:	8d 04 40             	lea    (%rax,%rax,2),%eax
  401ba8:	48 98                	cltq   
  401baa:	48 8d 15 6f 39 20 00 	lea    0x20396f(%rip),%rdx        # 605520 <gets_buf>
  401bb1:	c6 04 02 00          	movb   $0x0,(%rdx,%rax,1)
  401bb5:	c3                   	retq   

0000000000401bb6 <check_fail>:
  401bb6:	48 83 ec 08          	sub    $0x8,%rsp
  401bba:	0f be 15 67 45 20 00 	movsbl 0x204567(%rip),%edx        # 606128 <target_prefix>
  401bc1:	4c 8d 05 58 39 20 00 	lea    0x203958(%rip),%r8        # 605520 <gets_buf>
  401bc8:	8b 0d 2a 39 20 00    	mov    0x20392a(%rip),%ecx        # 6054f8 <check_level>
  401bce:	48 8d 35 06 18 00 00 	lea    0x1806(%rip),%rsi        # 4033db <_IO_stdin_used+0x3bb>
  401bd5:	bf 01 00 00 00       	mov    $0x1,%edi
  401bda:	b8 00 00 00 00       	mov    $0x0,%eax
  401bdf:	e8 fc f1 ff ff       	callq  400de0 <__printf_chk@plt>
  401be4:	bf 01 00 00 00       	mov    $0x1,%edi
  401be9:	e8 42 f2 ff ff       	callq  400e30 <exit@plt>

0000000000401bee <Gets>:
  401bee:	41 54                	push   %r12
  401bf0:	55                   	push   %rbp
  401bf1:	53                   	push   %rbx
  401bf2:	49 89 fc             	mov    %rdi,%r12
  401bf5:	c7 05 25 45 20 00 00 	movl   $0x0,0x204525(%rip)        # 606124 <gets_cnt>
  401bfc:	00 00 00 
  401bff:	48 89 fb             	mov    %rdi,%rbx
  401c02:	eb 11                	jmp    401c15 <Gets+0x27>
  401c04:	48 8d 6b 01          	lea    0x1(%rbx),%rbp
  401c08:	88 03                	mov    %al,(%rbx)
  401c0a:	0f b6 f8             	movzbl %al,%edi
  401c0d:	e8 34 ff ff ff       	callq  401b46 <save_char>
  401c12:	48 89 eb             	mov    %rbp,%rbx
  401c15:	48 8b 3d d4 38 20 00 	mov    0x2038d4(%rip),%rdi        # 6054f0 <infile>
  401c1c:	e8 8f f1 ff ff       	callq  400db0 <_IO_getc@plt>
  401c21:	83 f8 ff             	cmp    $0xffffffff,%eax
  401c24:	74 05                	je     401c2b <Gets+0x3d>
  401c26:	83 f8 0a             	cmp    $0xa,%eax
  401c29:	75 d9                	jne    401c04 <Gets+0x16>
  401c2b:	c6 03 00             	movb   $0x0,(%rbx)
  401c2e:	b8 00 00 00 00       	mov    $0x0,%eax
  401c33:	e8 67 ff ff ff       	callq  401b9f <save_term>
  401c38:	4c 89 e0             	mov    %r12,%rax
  401c3b:	5b                   	pop    %rbx
  401c3c:	5d                   	pop    %rbp
  401c3d:	41 5c                	pop    %r12
  401c3f:	c3                   	retq   

0000000000401c40 <notify_server>:
  401c40:	55                   	push   %rbp
  401c41:	53                   	push   %rbx
  401c42:	48 81 ec 18 40 00 00 	sub    $0x4018,%rsp
  401c49:	64 48 8b 04 25 28 00 	mov    %fs:0x28,%rax
  401c50:	00 00 
  401c52:	48 89 84 24 08 40 00 	mov    %rax,0x4008(%rsp)
  401c59:	00 
  401c5a:	31 c0                	xor    %eax,%eax
  401c5c:	83 3d a5 38 20 00 00 	cmpl   $0x0,0x2038a5(%rip)        # 605508 <is_checker>
  401c63:	0f 85 d2 00 00 00    	jne    401d3b <notify_server+0xfb>
  401c69:	89 fb                	mov    %edi,%ebx
  401c6b:	8b 05 b3 44 20 00    	mov    0x2044b3(%rip),%eax        # 606124 <gets_cnt>
  401c71:	83 c0 64             	add    $0x64,%eax
  401c74:	3d 00 20 00 00       	cmp    $0x2000,%eax
  401c79:	0f 8f dd 00 00 00    	jg     401d5c <notify_server+0x11c>
  401c7f:	0f be 05 a2 44 20 00 	movsbl 0x2044a2(%rip),%eax        # 606128 <target_prefix>
  401c86:	83 3d fb 37 20 00 00 	cmpl   $0x0,0x2037fb(%rip)        # 605488 <notify>
  401c8d:	0f 84 e9 00 00 00    	je     401d7c <notify_server+0x13c>
  401c93:	8b 15 67 38 20 00    	mov    0x203867(%rip),%edx        # 605500 <authkey>
  401c99:	85 db                	test   %ebx,%ebx
  401c9b:	0f 84 e5 00 00 00    	je     401d86 <notify_server+0x146>
  401ca1:	48 8d 2d 49 17 00 00 	lea    0x1749(%rip),%rbp        # 4033f1 <_IO_stdin_used+0x3d1>
  401ca8:	48 89 e7             	mov    %rsp,%rdi
  401cab:	48 8d 0d 6e 38 20 00 	lea    0x20386e(%rip),%rcx        # 605520 <gets_buf>
  401cb2:	51                   	push   %rcx
  401cb3:	56                   	push   %rsi
  401cb4:	50                   	push   %rax
  401cb5:	52                   	push   %rdx
  401cb6:	49 89 e9             	mov    %rbp,%r9
  401cb9:	4c 8b 05 70 34 20 00 	mov    0x203470(%rip),%r8        # 605130 <target_id>
  401cc0:	48 8d 0d 34 17 00 00 	lea    0x1734(%rip),%rcx        # 4033fb <_IO_stdin_used+0x3db>
  401cc7:	ba 00 20 00 00       	mov    $0x2000,%edx
  401ccc:	be 01 00 00 00       	mov    $0x1,%esi
  401cd1:	b8 00 00 00 00       	mov    $0x0,%eax
  401cd6:	e8 85 f1 ff ff       	callq  400e60 <__sprintf_chk@plt>
  401cdb:	48 83 c4 20          	add    $0x20,%rsp
  401cdf:	83 3d a2 37 20 00 00 	cmpl   $0x0,0x2037a2(%rip)        # 605488 <notify>
  401ce6:	0f 84 df 00 00 00    	je     401dcb <notify_server+0x18b>
  401cec:	85 db                	test   %ebx,%ebx
  401cee:	0f 84 c6 00 00 00    	je     401dba <notify_server+0x17a>
  401cf4:	48 89 e1             	mov    %rsp,%rcx
  401cf7:	4c 8d 8c 24 00 20 00 	lea    0x2000(%rsp),%r9
  401cfe:	00 
  401cff:	41 b8 00 00 00 00    	mov    $0x0,%r8d
  401d05:	48 8b 15 3c 34 20 00 	mov    0x20343c(%rip),%rdx        # 605148 <lab>
  401d0c:	48 8b 35 3d 34 20 00 	mov    0x20343d(%rip),%rsi        # 605150 <course>
  401d13:	48 8b 3d 26 34 20 00 	mov    0x203426(%rip),%rdi        # 605140 <user_id>
  401d1a:	e8 af 11 00 00       	callq  402ece <driver_post>
  401d1f:	85 c0                	test   %eax,%eax
  401d21:	78 6f                	js     401d92 <notify_server+0x152>
  401d23:	48 8d 3d 16 18 00 00 	lea    0x1816(%rip),%rdi        # 403540 <_IO_stdin_used+0x520>
  401d2a:	e8 91 ef ff ff       	callq  400cc0 <puts@plt>
  401d2f:	48 8d 3d ef 16 00 00 	lea    0x16ef(%rip),%rdi        # 403425 <_IO_stdin_used+0x405>
  401d36:	e8 85 ef ff ff       	callq  400cc0 <puts@plt>
  401d3b:	48 8b 84 24 08 40 00 	mov    0x4008(%rsp),%rax
  401d42:	00 
  401d43:	64 48 33 04 25 28 00 	xor    %fs:0x28,%rax
  401d4a:	00 00 
  401d4c:	0f 85 07 01 00 00    	jne    401e59 <notify_server+0x219>
  401d52:	48 81 c4 18 40 00 00 	add    $0x4018,%rsp
  401d59:	5b                   	pop    %rbx
  401d5a:	5d                   	pop    %rbp
  401d5b:	c3                   	retq   
  401d5c:	48 8d 35 ad 17 00 00 	lea    0x17ad(%rip),%rsi        # 403510 <_IO_stdin_used+0x4f0>
  401d63:	bf 01 00 00 00       	mov    $0x1,%edi
  401d68:	b8 00 00 00 00       	mov    $0x0,%eax
  401d6d:	e8 6e f0 ff ff       	callq  400de0 <__printf_chk@plt>
  401d72:	bf 01 00 00 00       	mov    $0x1,%edi
  401d77:	e8 b4 f0 ff ff       	callq  400e30 <exit@plt>
  401d7c:	ba ff ff ff ff       	mov    $0xffffffff,%edx
  401d81:	e9 13 ff ff ff       	jmpq   401c99 <notify_server+0x59>
  401d86:	48 8d 2d 69 16 00 00 	lea    0x1669(%rip),%rbp        # 4033f6 <_IO_stdin_used+0x3d6>
  401d8d:	e9 16 ff ff ff       	jmpq   401ca8 <notify_server+0x68>
  401d92:	48 8d 94 24 00 20 00 	lea    0x2000(%rsp),%rdx
  401d99:	00 
  401d9a:	48 8d 35 78 16 00 00 	lea    0x1678(%rip),%rsi        # 403419 <_IO_stdin_used+0x3f9>
  401da1:	bf 01 00 00 00       	mov    $0x1,%edi
  401da6:	b8 00 00 00 00       	mov    $0x0,%eax
  401dab:	e8 30 f0 ff ff       	callq  400de0 <__printf_chk@plt>
  401db0:	bf 01 00 00 00       	mov    $0x1,%edi
  401db5:	e8 76 f0 ff ff       	callq  400e30 <exit@plt>
  401dba:	48 8d 3d 6e 16 00 00 	lea    0x166e(%rip),%rdi        # 40342f <_IO_stdin_used+0x40f>
  401dc1:	e8 fa ee ff ff       	callq  400cc0 <puts@plt>
  401dc6:	e9 70 ff ff ff       	jmpq   401d3b <notify_server+0xfb>
  401dcb:	48 89 ea             	mov    %rbp,%rdx
  401dce:	48 8d 35 a3 17 00 00 	lea    0x17a3(%rip),%rsi        # 403578 <_IO_stdin_used+0x558>
  401dd5:	bf 01 00 00 00       	mov    $0x1,%edi
  401dda:	b8 00 00 00 00       	mov    $0x0,%eax
  401ddf:	e8 fc ef ff ff       	callq  400de0 <__printf_chk@plt>
  401de4:	48 8b 15 55 33 20 00 	mov    0x203355(%rip),%rdx        # 605140 <user_id>
  401deb:	48 8d 35 44 16 00 00 	lea    0x1644(%rip),%rsi        # 403436 <_IO_stdin_used+0x416>
  401df2:	bf 01 00 00 00       	mov    $0x1,%edi
  401df7:	b8 00 00 00 00       	mov    $0x0,%eax
  401dfc:	e8 df ef ff ff       	callq  400de0 <__printf_chk@plt>
  401e01:	48 8b 15 48 33 20 00 	mov    0x203348(%rip),%rdx        # 605150 <course>
  401e08:	48 8d 35 34 16 00 00 	lea    0x1634(%rip),%rsi        # 403443 <_IO_stdin_used+0x423>
  401e0f:	bf 01 00 00 00       	mov    $0x1,%edi
  401e14:	b8 00 00 00 00       	mov    $0x0,%eax
  401e19:	e8 c2 ef ff ff       	callq  400de0 <__printf_chk@plt>
  401e1e:	48 8b 15 23 33 20 00 	mov    0x203323(%rip),%rdx        # 605148 <lab>
  401e25:	48 8d 35 23 16 00 00 	lea    0x1623(%rip),%rsi        # 40344f <_IO_stdin_used+0x42f>
  401e2c:	bf 01 00 00 00       	mov    $0x1,%edi
  401e31:	b8 00 00 00 00       	mov    $0x0,%eax
  401e36:	e8 a5 ef ff ff       	callq  400de0 <__printf_chk@plt>
  401e3b:	48 89 e2             	mov    %rsp,%rdx
  401e3e:	48 8d 35 13 16 00 00 	lea    0x1613(%rip),%rsi        # 403458 <_IO_stdin_used+0x438>
  401e45:	bf 01 00 00 00       	mov    $0x1,%edi
  401e4a:	b8 00 00 00 00       	mov    $0x0,%eax
  401e4f:	e8 8c ef ff ff       	callq  400de0 <__printf_chk@plt>
  401e54:	e9 e2 fe ff ff       	jmpq   401d3b <notify_server+0xfb>
  401e59:	e8 82 ee ff ff       	callq  400ce0 <__stack_chk_fail@plt>

0000000000401e5e <validate>:
  401e5e:	53                   	push   %rbx
  401e5f:	89 fb                	mov    %edi,%ebx
  401e61:	83 3d a0 36 20 00 00 	cmpl   $0x0,0x2036a0(%rip)        # 605508 <is_checker>
  401e68:	74 72                	je     401edc <validate+0x7e>
  401e6a:	39 3d 8c 36 20 00    	cmp    %edi,0x20368c(%rip)        # 6054fc <vlevel>
  401e70:	75 32                	jne    401ea4 <validate+0x46>
  401e72:	8b 15 80 36 20 00    	mov    0x203680(%rip),%edx        # 6054f8 <check_level>
  401e78:	39 fa                	cmp    %edi,%edx
  401e7a:	75 3e                	jne    401eba <validate+0x5c>
  401e7c:	0f be 15 a5 42 20 00 	movsbl 0x2042a5(%rip),%edx        # 606128 <target_prefix>
  401e83:	4c 8d 05 96 36 20 00 	lea    0x203696(%rip),%r8        # 605520 <gets_buf>
  401e8a:	89 f9                	mov    %edi,%ecx
  401e8c:	48 8d 35 ef 15 00 00 	lea    0x15ef(%rip),%rsi        # 403482 <_IO_stdin_used+0x462>
  401e93:	bf 01 00 00 00       	mov    $0x1,%edi
  401e98:	b8 00 00 00 00       	mov    $0x0,%eax
  401e9d:	e8 3e ef ff ff       	callq  400de0 <__printf_chk@plt>
  401ea2:	5b                   	pop    %rbx
  401ea3:	c3                   	retq   
  401ea4:	48 8d 3d b9 15 00 00 	lea    0x15b9(%rip),%rdi        # 403464 <_IO_stdin_used+0x444>
  401eab:	e8 10 ee ff ff       	callq  400cc0 <puts@plt>
  401eb0:	b8 00 00 00 00       	mov    $0x0,%eax
  401eb5:	e8 fc fc ff ff       	callq  401bb6 <check_fail>
  401eba:	89 f9                	mov    %edi,%ecx
  401ebc:	48 8d 35 dd 16 00 00 	lea    0x16dd(%rip),%rsi        # 4035a0 <_IO_stdin_used+0x580>
  401ec3:	bf 01 00 00 00       	mov    $0x1,%edi
  401ec8:	b8 00 00 00 00       	mov    $0x0,%eax
  401ecd:	e8 0e ef ff ff       	callq  400de0 <__printf_chk@plt>
  401ed2:	b8 00 00 00 00       	mov    $0x0,%eax
  401ed7:	e8 da fc ff ff       	callq  401bb6 <check_fail>
  401edc:	39 3d 1a 36 20 00    	cmp    %edi,0x20361a(%rip)        # 6054fc <vlevel>
  401ee2:	74 1a                	je     401efe <validate+0xa0>
  401ee4:	48 8d 3d 79 15 00 00 	lea    0x1579(%rip),%rdi        # 403464 <_IO_stdin_used+0x444>
  401eeb:	e8 d0 ed ff ff       	callq  400cc0 <puts@plt>
  401ef0:	89 de                	mov    %ebx,%esi
  401ef2:	bf 00 00 00 00       	mov    $0x0,%edi
  401ef7:	e8 44 fd ff ff       	callq  401c40 <notify_server>
  401efc:	eb a4                	jmp    401ea2 <validate+0x44>
  401efe:	0f be 0d 23 42 20 00 	movsbl 0x204223(%rip),%ecx        # 606128 <target_prefix>
  401f05:	89 fa                	mov    %edi,%edx
  401f07:	48 8d 35 ba 16 00 00 	lea    0x16ba(%rip),%rsi        # 4035c8 <_IO_stdin_used+0x5a8>
  401f0e:	bf 01 00 00 00       	mov    $0x1,%edi
  401f13:	b8 00 00 00 00       	mov    $0x0,%eax
  401f18:	e8 c3 ee ff ff       	callq  400de0 <__printf_chk@plt>
  401f1d:	89 de                	mov    %ebx,%esi
  401f1f:	bf 01 00 00 00       	mov    $0x1,%edi
  401f24:	e8 17 fd ff ff       	callq  401c40 <notify_server>
  401f29:	e9 74 ff ff ff       	jmpq   401ea2 <validate+0x44>

0000000000401f2e <fail>:
  401f2e:	48 83 ec 08          	sub    $0x8,%rsp
  401f32:	83 3d cf 35 20 00 00 	cmpl   $0x0,0x2035cf(%rip)        # 605508 <is_checker>
  401f39:	75 11                	jne    401f4c <fail+0x1e>
  401f3b:	89 fe                	mov    %edi,%esi
  401f3d:	bf 00 00 00 00       	mov    $0x0,%edi
  401f42:	e8 f9 fc ff ff       	callq  401c40 <notify_server>
  401f47:	48 83 c4 08          	add    $0x8,%rsp
  401f4b:	c3                   	retq   
  401f4c:	b8 00 00 00 00       	mov    $0x0,%eax
  401f51:	e8 60 fc ff ff       	callq  401bb6 <check_fail>

0000000000401f56 <bushandler>:
  401f56:	48 83 ec 08          	sub    $0x8,%rsp
  401f5a:	83 3d a7 35 20 00 00 	cmpl   $0x0,0x2035a7(%rip)        # 605508 <is_checker>
  401f61:	74 16                	je     401f79 <bushandler+0x23>
  401f63:	48 8d 3d 2d 15 00 00 	lea    0x152d(%rip),%rdi        # 403497 <_IO_stdin_used+0x477>
  401f6a:	e8 51 ed ff ff       	callq  400cc0 <puts@plt>
  401f6f:	b8 00 00 00 00       	mov    $0x0,%eax
  401f74:	e8 3d fc ff ff       	callq  401bb6 <check_fail>
  401f79:	48 8d 3d 80 16 00 00 	lea    0x1680(%rip),%rdi        # 403600 <_IO_stdin_used+0x5e0>
  401f80:	e8 3b ed ff ff       	callq  400cc0 <puts@plt>
  401f85:	48 8d 3d 15 15 00 00 	lea    0x1515(%rip),%rdi        # 4034a1 <_IO_stdin_used+0x481>
  401f8c:	e8 2f ed ff ff       	callq  400cc0 <puts@plt>
  401f91:	be 00 00 00 00       	mov    $0x0,%esi
  401f96:	bf 00 00 00 00       	mov    $0x0,%edi
  401f9b:	e8 a0 fc ff ff       	callq  401c40 <notify_server>
  401fa0:	bf 01 00 00 00       	mov    $0x1,%edi
  401fa5:	e8 86 ee ff ff       	callq  400e30 <exit@plt>

0000000000401faa <seghandler>:
  401faa:	48 83 ec 08          	sub    $0x8,%rsp
  401fae:	83 3d 53 35 20 00 00 	cmpl   $0x0,0x203553(%rip)        # 605508 <is_checker>
  401fb5:	74 16                	je     401fcd <seghandler+0x23>
  401fb7:	48 8d 3d f9 14 00 00 	lea    0x14f9(%rip),%rdi        # 4034b7 <_IO_stdin_used+0x497>
  401fbe:	e8 fd ec ff ff       	callq  400cc0 <puts@plt>
  401fc3:	b8 00 00 00 00       	mov    $0x0,%eax
  401fc8:	e8 e9 fb ff ff       	callq  401bb6 <check_fail>
  401fcd:	48 8d 3d 4c 16 00 00 	lea    0x164c(%rip),%rdi        # 403620 <_IO_stdin_used+0x600>
  401fd4:	e8 e7 ec ff ff       	callq  400cc0 <puts@plt>
  401fd9:	48 8d 3d c1 14 00 00 	lea    0x14c1(%rip),%rdi        # 4034a1 <_IO_stdin_used+0x481>
  401fe0:	e8 db ec ff ff       	callq  400cc0 <puts@plt>
  401fe5:	be 00 00 00 00       	mov    $0x0,%esi
  401fea:	bf 00 00 00 00       	mov    $0x0,%edi
  401fef:	e8 4c fc ff ff       	callq  401c40 <notify_server>
  401ff4:	bf 01 00 00 00       	mov    $0x1,%edi
  401ff9:	e8 32 ee ff ff       	callq  400e30 <exit@plt>

0000000000401ffe <illegalhandler>:
  401ffe:	48 83 ec 08          	sub    $0x8,%rsp
  402002:	83 3d ff 34 20 00 00 	cmpl   $0x0,0x2034ff(%rip)        # 605508 <is_checker>
  402009:	74 16                	je     402021 <illegalhandler+0x23>
  40200b:	48 8d 3d b8 14 00 00 	lea    0x14b8(%rip),%rdi        # 4034ca <_IO_stdin_used+0x4aa>
  402012:	e8 a9 ec ff ff       	callq  400cc0 <puts@plt>
  402017:	b8 00 00 00 00       	mov    $0x0,%eax
  40201c:	e8 95 fb ff ff       	callq  401bb6 <check_fail>
  402021:	48 8d 3d 20 16 00 00 	lea    0x1620(%rip),%rdi        # 403648 <_IO_stdin_used+0x628>
  402028:	e8 93 ec ff ff       	callq  400cc0 <puts@plt>
  40202d:	48 8d 3d 6d 14 00 00 	lea    0x146d(%rip),%rdi        # 4034a1 <_IO_stdin_used+0x481>
  402034:	e8 87 ec ff ff       	callq  400cc0 <puts@plt>
  402039:	be 00 00 00 00       	mov    $0x0,%esi
  40203e:	bf 00 00 00 00       	mov    $0x0,%edi
  402043:	e8 f8 fb ff ff       	callq  401c40 <notify_server>
  402048:	bf 01 00 00 00       	mov    $0x1,%edi
  40204d:	e8 de ed ff ff       	callq  400e30 <exit@plt>

0000000000402052 <sigalrmhandler>:
  402052:	48 83 ec 08          	sub    $0x8,%rsp
  402056:	83 3d ab 34 20 00 00 	cmpl   $0x0,0x2034ab(%rip)        # 605508 <is_checker>
  40205d:	74 16                	je     402075 <sigalrmhandler+0x23>
  40205f:	48 8d 3d 78 14 00 00 	lea    0x1478(%rip),%rdi        # 4034de <_IO_stdin_used+0x4be>
  402066:	e8 55 ec ff ff       	callq  400cc0 <puts@plt>
  40206b:	b8 00 00 00 00       	mov    $0x0,%eax
  402070:	e8 41 fb ff ff       	callq  401bb6 <check_fail>
  402075:	ba 05 00 00 00       	mov    $0x5,%edx
  40207a:	48 8d 35 f7 15 00 00 	lea    0x15f7(%rip),%rsi        # 403678 <_IO_stdin_used+0x658>
  402081:	bf 01 00 00 00       	mov    $0x1,%edi
  402086:	b8 00 00 00 00       	mov    $0x0,%eax
  40208b:	e8 50 ed ff ff       	callq  400de0 <__printf_chk@plt>
  402090:	be 00 00 00 00       	mov    $0x0,%esi
  402095:	bf 00 00 00 00       	mov    $0x0,%edi
  40209a:	e8 a1 fb ff ff       	callq  401c40 <notify_server>
  40209f:	bf 01 00 00 00       	mov    $0x1,%edi
  4020a4:	e8 87 ed ff ff       	callq  400e30 <exit@plt>

00000000004020a9 <launch>:
  4020a9:	55                   	push   %rbp
  4020aa:	48 89 e5             	mov    %rsp,%rbp
  4020ad:	48 83 ec 10          	sub    $0x10,%rsp
  4020b1:	48 89 fa             	mov    %rdi,%rdx
  4020b4:	64 48 8b 04 25 28 00 	mov    %fs:0x28,%rax
  4020bb:	00 00 
  4020bd:	48 89 45 f8          	mov    %rax,-0x8(%rbp)
  4020c1:	31 c0                	xor    %eax,%eax
  4020c3:	48 8d 47 1e          	lea    0x1e(%rdi),%rax
  4020c7:	48 83 e0 f0          	and    $0xfffffffffffffff0,%rax
  4020cb:	48 29 c4             	sub    %rax,%rsp
  4020ce:	48 8d 7c 24 0f       	lea    0xf(%rsp),%rdi
  4020d3:	48 83 e7 f0          	and    $0xfffffffffffffff0,%rdi
  4020d7:	be f4 00 00 00       	mov    $0xf4,%esi
  4020dc:	e8 1f ec ff ff       	callq  400d00 <memset@plt>
  4020e1:	48 8b 05 b8 33 20 00 	mov    0x2033b8(%rip),%rax        # 6054a0 <stdin@@GLIBC_2.2.5>
  4020e8:	48 39 05 01 34 20 00 	cmp    %rax,0x203401(%rip)        # 6054f0 <infile>
  4020ef:	74 3a                	je     40212b <launch+0x82>
  4020f1:	c7 05 01 34 20 00 00 	movl   $0x0,0x203401(%rip)        # 6054fc <vlevel>
  4020f8:	00 00 00 
  4020fb:	b8 00 00 00 00       	mov    $0x0,%eax
  402100:	e8 f5 f8 ff ff       	callq  4019fa <test>
  402105:	83 3d fc 33 20 00 00 	cmpl   $0x0,0x2033fc(%rip)        # 605508 <is_checker>
  40210c:	75 35                	jne    402143 <launch+0x9a>
  40210e:	48 8d 3d e9 13 00 00 	lea    0x13e9(%rip),%rdi        # 4034fe <_IO_stdin_used+0x4de>
  402115:	e8 a6 eb ff ff       	callq  400cc0 <puts@plt>
  40211a:	48 8b 45 f8          	mov    -0x8(%rbp),%rax
  40211e:	64 48 33 04 25 28 00 	xor    %fs:0x28,%rax
  402125:	00 00 
  402127:	75 30                	jne    402159 <launch+0xb0>
  402129:	c9                   	leaveq 
  40212a:	c3                   	retq   
  40212b:	48 8d 35 b4 13 00 00 	lea    0x13b4(%rip),%rsi        # 4034e6 <_IO_stdin_used+0x4c6>
  402132:	bf 01 00 00 00       	mov    $0x1,%edi
  402137:	b8 00 00 00 00       	mov    $0x0,%eax
  40213c:	e8 9f ec ff ff       	callq  400de0 <__printf_chk@plt>
  402141:	eb ae                	jmp    4020f1 <launch+0x48>
  402143:	48 8d 3d a9 13 00 00 	lea    0x13a9(%rip),%rdi        # 4034f3 <_IO_stdin_used+0x4d3>
  40214a:	e8 71 eb ff ff       	callq  400cc0 <puts@plt>
  40214f:	b8 00 00 00 00       	mov    $0x0,%eax
  402154:	e8 5d fa ff ff       	callq  401bb6 <check_fail>
  402159:	e8 82 eb ff ff       	callq  400ce0 <__stack_chk_fail@plt>

000000000040215e <stable_launch>:
  40215e:	53                   	push   %rbx
  40215f:	48 89 3d 82 33 20 00 	mov    %rdi,0x203382(%rip)        # 6054e8 <global_offset>
  402166:	41 b9 00 00 00 00    	mov    $0x0,%r9d
  40216c:	41 b8 00 00 00 00    	mov    $0x0,%r8d
  402172:	b9 32 01 00 00       	mov    $0x132,%ecx
  402177:	ba 07 00 00 00       	mov    $0x7,%edx
  40217c:	be 00 00 10 00       	mov    $0x100000,%esi
  402181:	bf 00 60 58 55       	mov    $0x55586000,%edi
  402186:	e8 65 eb ff ff       	callq  400cf0 <mmap@plt>
  40218b:	48 89 c3             	mov    %rax,%rbx
  40218e:	48 3d 00 60 58 55    	cmp    $0x55586000,%rax
  402194:	75 43                	jne    4021d9 <stable_launch+0x7b>
  402196:	48 8d 90 f8 ff 0f 00 	lea    0xffff8(%rax),%rdx
  40219d:	48 89 15 8c 3f 20 00 	mov    %rdx,0x203f8c(%rip)        # 606130 <stack_top>
  4021a4:	48 89 e0             	mov    %rsp,%rax
  4021a7:	48 89 d4             	mov    %rdx,%rsp
  4021aa:	48 89 c2             	mov    %rax,%rdx
  4021ad:	48 89 15 2c 33 20 00 	mov    %rdx,0x20332c(%rip)        # 6054e0 <global_save_stack>
  4021b4:	48 8b 3d 2d 33 20 00 	mov    0x20332d(%rip),%rdi        # 6054e8 <global_offset>
  4021bb:	e8 e9 fe ff ff       	callq  4020a9 <launch>
  4021c0:	48 8b 05 19 33 20 00 	mov    0x203319(%rip),%rax        # 6054e0 <global_save_stack>
  4021c7:	48 89 c4             	mov    %rax,%rsp
  4021ca:	be 00 00 10 00       	mov    $0x100000,%esi
  4021cf:	48 89 df             	mov    %rbx,%rdi
  4021d2:	e8 f9 eb ff ff       	callq  400dd0 <munmap@plt>
  4021d7:	5b                   	pop    %rbx
  4021d8:	c3                   	retq   
  4021d9:	be 00 00 10 00       	mov    $0x100000,%esi
  4021de:	48 89 c7             	mov    %rax,%rdi
  4021e1:	e8 ea eb ff ff       	callq  400dd0 <munmap@plt>
  4021e6:	b9 00 60 58 55       	mov    $0x55586000,%ecx
  4021eb:	48 8d 15 be 14 00 00 	lea    0x14be(%rip),%rdx        # 4036b0 <_IO_stdin_used+0x690>
  4021f2:	be 01 00 00 00       	mov    $0x1,%esi
  4021f7:	48 8b 3d c2 32 20 00 	mov    0x2032c2(%rip),%rdi        # 6054c0 <stderr@@GLIBC_2.2.5>
  4021fe:	b8 00 00 00 00       	mov    $0x0,%eax
  402203:	e8 48 ec ff ff       	callq  400e50 <__fprintf_chk@plt>
  402208:	bf 01 00 00 00       	mov    $0x1,%edi
  40220d:	e8 1e ec ff ff       	callq  400e30 <exit@plt>

0000000000402212 <rio_readinitb>:
  402212:	89 37                	mov    %esi,(%rdi)
  402214:	c7 47 04 00 00 00 00 	movl   $0x0,0x4(%rdi)
  40221b:	48 8d 47 10          	lea    0x10(%rdi),%rax
  40221f:	48 89 47 08          	mov    %rax,0x8(%rdi)
  402223:	c3                   	retq   

0000000000402224 <sigalrm_handler>:
  402224:	48 83 ec 08          	sub    $0x8,%rsp
  402228:	b9 00 00 00 00       	mov    $0x0,%ecx
  40222d:	48 8d 15 bc 14 00 00 	lea    0x14bc(%rip),%rdx        # 4036f0 <trans_char+0x10>
  402234:	be 01 00 00 00       	mov    $0x1,%esi
  402239:	48 8b 3d 80 32 20 00 	mov    0x203280(%rip),%rdi        # 6054c0 <stderr@@GLIBC_2.2.5>
  402240:	b8 00 00 00 00       	mov    $0x0,%eax
  402245:	e8 06 ec ff ff       	callq  400e50 <__fprintf_chk@plt>
  40224a:	bf 01 00 00 00       	mov    $0x1,%edi
  40224f:	e8 dc eb ff ff       	callq  400e30 <exit@plt>

0000000000402254 <rio_writen>:
  402254:	41 55                	push   %r13
  402256:	41 54                	push   %r12
  402258:	55                   	push   %rbp
  402259:	53                   	push   %rbx
  40225a:	48 83 ec 08          	sub    $0x8,%rsp
  40225e:	41 89 fc             	mov    %edi,%r12d
  402261:	48 89 f5             	mov    %rsi,%rbp
  402264:	49 89 d5             	mov    %rdx,%r13
  402267:	48 89 d3             	mov    %rdx,%rbx
  40226a:	eb 06                	jmp    402272 <rio_writen+0x1e>
  40226c:	48 29 c3             	sub    %rax,%rbx
  40226f:	48 01 c5             	add    %rax,%rbp
  402272:	48 85 db             	test   %rbx,%rbx
  402275:	74 24                	je     40229b <rio_writen+0x47>
  402277:	48 89 da             	mov    %rbx,%rdx
  40227a:	48 89 ee             	mov    %rbp,%rsi
  40227d:	44 89 e7             	mov    %r12d,%edi
  402280:	e8 4b ea ff ff       	callq  400cd0 <write@plt>
  402285:	48 85 c0             	test   %rax,%rax
  402288:	7f e2                	jg     40226c <rio_writen+0x18>
  40228a:	e8 f1 e9 ff ff       	callq  400c80 <__errno_location@plt>
  40228f:	83 38 04             	cmpl   $0x4,(%rax)
  402292:	75 15                	jne    4022a9 <rio_writen+0x55>
  402294:	b8 00 00 00 00       	mov    $0x0,%eax
  402299:	eb d1                	jmp    40226c <rio_writen+0x18>
  40229b:	4c 89 e8             	mov    %r13,%rax
  40229e:	48 83 c4 08          	add    $0x8,%rsp
  4022a2:	5b                   	pop    %rbx
  4022a3:	5d                   	pop    %rbp
  4022a4:	41 5c                	pop    %r12
  4022a6:	41 5d                	pop    %r13
  4022a8:	c3                   	retq   
  4022a9:	48 c7 c0 ff ff ff ff 	mov    $0xffffffffffffffff,%rax
  4022b0:	eb ec                	jmp    40229e <rio_writen+0x4a>

00000000004022b2 <rio_read>:
  4022b2:	41 55                	push   %r13
  4022b4:	41 54                	push   %r12
  4022b6:	55                   	push   %rbp
  4022b7:	53                   	push   %rbx
  4022b8:	48 83 ec 08          	sub    $0x8,%rsp
  4022bc:	48 89 fb             	mov    %rdi,%rbx
  4022bf:	49 89 f5             	mov    %rsi,%r13
  4022c2:	49 89 d4             	mov    %rdx,%r12
  4022c5:	eb 0a                	jmp    4022d1 <rio_read+0x1f>
  4022c7:	e8 b4 e9 ff ff       	callq  400c80 <__errno_location@plt>
  4022cc:	83 38 04             	cmpl   $0x4,(%rax)
  4022cf:	75 5c                	jne    40232d <rio_read+0x7b>
  4022d1:	8b 6b 04             	mov    0x4(%rbx),%ebp
  4022d4:	85 ed                	test   %ebp,%ebp
  4022d6:	7f 24                	jg     4022fc <rio_read+0x4a>
  4022d8:	48 8d 6b 10          	lea    0x10(%rbx),%rbp
  4022dc:	8b 3b                	mov    (%rbx),%edi
  4022de:	ba 00 20 00 00       	mov    $0x2000,%edx
  4022e3:	48 89 ee             	mov    %rbp,%rsi
  4022e6:	e8 45 ea ff ff       	callq  400d30 <read@plt>
  4022eb:	89 43 04             	mov    %eax,0x4(%rbx)
  4022ee:	85 c0                	test   %eax,%eax
  4022f0:	78 d5                	js     4022c7 <rio_read+0x15>
  4022f2:	85 c0                	test   %eax,%eax
  4022f4:	74 40                	je     402336 <rio_read+0x84>
  4022f6:	48 89 6b 08          	mov    %rbp,0x8(%rbx)
  4022fa:	eb d5                	jmp    4022d1 <rio_read+0x1f>
  4022fc:	89 e8                	mov    %ebp,%eax
  4022fe:	4c 39 e0             	cmp    %r12,%rax
  402301:	72 03                	jb     402306 <rio_read+0x54>
  402303:	44 89 e5             	mov    %r12d,%ebp
  402306:	4c 63 e5             	movslq %ebp,%r12
  402309:	48 8b 73 08          	mov    0x8(%rbx),%rsi
  40230d:	4c 89 e2             	mov    %r12,%rdx
  402310:	4c 89 ef             	mov    %r13,%rdi
  402313:	e8 68 ea ff ff       	callq  400d80 <memcpy@plt>
  402318:	4c 01 63 08          	add    %r12,0x8(%rbx)
  40231c:	29 6b 04             	sub    %ebp,0x4(%rbx)
  40231f:	4c 89 e0             	mov    %r12,%rax
  402322:	48 83 c4 08          	add    $0x8,%rsp
  402326:	5b                   	pop    %rbx
  402327:	5d                   	pop    %rbp
  402328:	41 5c                	pop    %r12
  40232a:	41 5d                	pop    %r13
  40232c:	c3                   	retq   
  40232d:	48 c7 c0 ff ff ff ff 	mov    $0xffffffffffffffff,%rax
  402334:	eb ec                	jmp    402322 <rio_read+0x70>
  402336:	b8 00 00 00 00       	mov    $0x0,%eax
  40233b:	eb e5                	jmp    402322 <rio_read+0x70>

000000000040233d <rio_readlineb>:
  40233d:	41 55                	push   %r13
  40233f:	41 54                	push   %r12
  402341:	55                   	push   %rbp
  402342:	53                   	push   %rbx
  402343:	48 83 ec 18          	sub    $0x18,%rsp
  402347:	49 89 fd             	mov    %rdi,%r13
  40234a:	48 89 f5             	mov    %rsi,%rbp
  40234d:	49 89 d4             	mov    %rdx,%r12
  402350:	64 48 8b 04 25 28 00 	mov    %fs:0x28,%rax
  402357:	00 00 
  402359:	48 89 44 24 08       	mov    %rax,0x8(%rsp)
  40235e:	31 c0                	xor    %eax,%eax
  402360:	bb 01 00 00 00       	mov    $0x1,%ebx
  402365:	4c 39 e3             	cmp    %r12,%rbx
  402368:	73 47                	jae    4023b1 <rio_readlineb+0x74>
  40236a:	48 8d 74 24 07       	lea    0x7(%rsp),%rsi
  40236f:	ba 01 00 00 00       	mov    $0x1,%edx
  402374:	4c 89 ef             	mov    %r13,%rdi
  402377:	e8 36 ff ff ff       	callq  4022b2 <rio_read>
  40237c:	83 f8 01             	cmp    $0x1,%eax
  40237f:	75 1c                	jne    40239d <rio_readlineb+0x60>
  402381:	48 8d 45 01          	lea    0x1(%rbp),%rax
  402385:	0f b6 54 24 07       	movzbl 0x7(%rsp),%edx
  40238a:	88 55 00             	mov    %dl,0x0(%rbp)
  40238d:	80 7c 24 07 0a       	cmpb   $0xa,0x7(%rsp)
  402392:	74 1a                	je     4023ae <rio_readlineb+0x71>
  402394:	48 83 c3 01          	add    $0x1,%rbx
  402398:	48 89 c5             	mov    %rax,%rbp
  40239b:	eb c8                	jmp    402365 <rio_readlineb+0x28>
  40239d:	85 c0                	test   %eax,%eax
  40239f:	75 32                	jne    4023d3 <rio_readlineb+0x96>
  4023a1:	48 83 fb 01          	cmp    $0x1,%rbx
  4023a5:	75 0a                	jne    4023b1 <rio_readlineb+0x74>
  4023a7:	b8 00 00 00 00       	mov    $0x0,%eax
  4023ac:	eb 0a                	jmp    4023b8 <rio_readlineb+0x7b>
  4023ae:	48 89 c5             	mov    %rax,%rbp
  4023b1:	c6 45 00 00          	movb   $0x0,0x0(%rbp)
  4023b5:	48 89 d8             	mov    %rbx,%rax
  4023b8:	48 8b 4c 24 08       	mov    0x8(%rsp),%rcx
  4023bd:	64 48 33 0c 25 28 00 	xor    %fs:0x28,%rcx
  4023c4:	00 00 
  4023c6:	75 14                	jne    4023dc <rio_readlineb+0x9f>
  4023c8:	48 83 c4 18          	add    $0x18,%rsp
  4023cc:	5b                   	pop    %rbx
  4023cd:	5d                   	pop    %rbp
  4023ce:	41 5c                	pop    %r12
  4023d0:	41 5d                	pop    %r13
  4023d2:	c3                   	retq   
  4023d3:	48 c7 c0 ff ff ff ff 	mov    $0xffffffffffffffff,%rax
  4023da:	eb dc                	jmp    4023b8 <rio_readlineb+0x7b>
  4023dc:	e8 ff e8 ff ff       	callq  400ce0 <__stack_chk_fail@plt>

00000000004023e1 <urlencode>:
  4023e1:	41 54                	push   %r12
  4023e3:	55                   	push   %rbp
  4023e4:	53                   	push   %rbx
  4023e5:	48 83 ec 10          	sub    $0x10,%rsp
  4023e9:	48 89 fb             	mov    %rdi,%rbx
  4023ec:	48 89 f5             	mov    %rsi,%rbp
  4023ef:	64 48 8b 04 25 28 00 	mov    %fs:0x28,%rax
  4023f6:	00 00 
  4023f8:	48 89 44 24 08       	mov    %rax,0x8(%rsp)
  4023fd:	31 c0                	xor    %eax,%eax
  4023ff:	48 c7 c1 ff ff ff ff 	mov    $0xffffffffffffffff,%rcx
  402406:	f2 ae                	repnz scas %es:(%rdi),%al
  402408:	48 89 ce             	mov    %rcx,%rsi
  40240b:	48 f7 d6             	not    %rsi
  40240e:	8d 46 ff             	lea    -0x1(%rsi),%eax
  402411:	eb 0f                	jmp    402422 <urlencode+0x41>
  402413:	44 88 45 00          	mov    %r8b,0x0(%rbp)
  402417:	48 8d 6d 01          	lea    0x1(%rbp),%rbp
  40241b:	48 83 c3 01          	add    $0x1,%rbx
  40241f:	44 89 e0             	mov    %r12d,%eax
  402422:	44 8d 60 ff          	lea    -0x1(%rax),%r12d
  402426:	85 c0                	test   %eax,%eax
  402428:	0f 84 a8 00 00 00    	je     4024d6 <urlencode+0xf5>
  40242e:	44 0f b6 03          	movzbl (%rbx),%r8d
  402432:	41 80 f8 2a          	cmp    $0x2a,%r8b
  402436:	0f 94 c2             	sete   %dl
  402439:	41 80 f8 2d          	cmp    $0x2d,%r8b
  40243d:	0f 94 c0             	sete   %al
  402440:	08 c2                	or     %al,%dl
  402442:	75 cf                	jne    402413 <urlencode+0x32>
  402444:	41 80 f8 2e          	cmp    $0x2e,%r8b
  402448:	74 c9                	je     402413 <urlencode+0x32>
  40244a:	41 80 f8 5f          	cmp    $0x5f,%r8b
  40244e:	74 c3                	je     402413 <urlencode+0x32>
  402450:	41 8d 40 d0          	lea    -0x30(%r8),%eax
  402454:	3c 09                	cmp    $0x9,%al
  402456:	76 bb                	jbe    402413 <urlencode+0x32>
  402458:	41 8d 40 bf          	lea    -0x41(%r8),%eax
  40245c:	3c 19                	cmp    $0x19,%al
  40245e:	76 b3                	jbe    402413 <urlencode+0x32>
  402460:	41 8d 40 9f          	lea    -0x61(%r8),%eax
  402464:	3c 19                	cmp    $0x19,%al
  402466:	76 ab                	jbe    402413 <urlencode+0x32>
  402468:	41 80 f8 20          	cmp    $0x20,%r8b
  40246c:	74 56                	je     4024c4 <urlencode+0xe3>
  40246e:	41 8d 40 e0          	lea    -0x20(%r8),%eax
  402472:	3c 5f                	cmp    $0x5f,%al
  402474:	0f 96 c2             	setbe  %dl
  402477:	41 80 f8 09          	cmp    $0x9,%r8b
  40247b:	0f 94 c0             	sete   %al
  40247e:	08 c2                	or     %al,%dl
  402480:	74 4f                	je     4024d1 <urlencode+0xf0>
  402482:	48 89 e7             	mov    %rsp,%rdi
  402485:	45 0f b6 c0          	movzbl %r8b,%r8d
  402489:	48 8d 0d f8 12 00 00 	lea    0x12f8(%rip),%rcx        # 403788 <trans_char+0xa8>
  402490:	ba 08 00 00 00       	mov    $0x8,%edx
  402495:	be 01 00 00 00       	mov    $0x1,%esi
  40249a:	b8 00 00 00 00       	mov    $0x0,%eax
  40249f:	e8 bc e9 ff ff       	callq  400e60 <__sprintf_chk@plt>
  4024a4:	0f b6 04 24          	movzbl (%rsp),%eax
  4024a8:	88 45 00             	mov    %al,0x0(%rbp)
  4024ab:	0f b6 44 24 01       	movzbl 0x1(%rsp),%eax
  4024b0:	88 45 01             	mov    %al,0x1(%rbp)
  4024b3:	0f b6 44 24 02       	movzbl 0x2(%rsp),%eax
  4024b8:	88 45 02             	mov    %al,0x2(%rbp)
  4024bb:	48 8d 6d 03          	lea    0x3(%rbp),%rbp
  4024bf:	e9 57 ff ff ff       	jmpq   40241b <urlencode+0x3a>
  4024c4:	c6 45 00 2b          	movb   $0x2b,0x0(%rbp)
  4024c8:	48 8d 6d 01          	lea    0x1(%rbp),%rbp
  4024cc:	e9 4a ff ff ff       	jmpq   40241b <urlencode+0x3a>
  4024d1:	b8 ff ff ff ff       	mov    $0xffffffff,%eax
  4024d6:	48 8b 74 24 08       	mov    0x8(%rsp),%rsi
  4024db:	64 48 33 34 25 28 00 	xor    %fs:0x28,%rsi
  4024e2:	00 00 
  4024e4:	75 09                	jne    4024ef <urlencode+0x10e>
  4024e6:	48 83 c4 10          	add    $0x10,%rsp
  4024ea:	5b                   	pop    %rbx
  4024eb:	5d                   	pop    %rbp
  4024ec:	41 5c                	pop    %r12
  4024ee:	c3                   	retq   
  4024ef:	e8 ec e7 ff ff       	callq  400ce0 <__stack_chk_fail@plt>

00000000004024f4 <submitr>:
  4024f4:	41 57                	push   %r15
  4024f6:	41 56                	push   %r14
  4024f8:	41 55                	push   %r13
  4024fa:	41 54                	push   %r12
  4024fc:	55                   	push   %rbp
  4024fd:	53                   	push   %rbx
  4024fe:	48 81 ec 68 a0 00 00 	sub    $0xa068,%rsp
  402505:	49 89 fd             	mov    %rdi,%r13
  402508:	89 74 24 14          	mov    %esi,0x14(%rsp)
  40250c:	49 89 d7             	mov    %rdx,%r15
  40250f:	48 89 4c 24 08       	mov    %rcx,0x8(%rsp)
  402514:	4c 89 44 24 18       	mov    %r8,0x18(%rsp)
  402519:	4d 89 ce             	mov    %r9,%r14
  40251c:	48 8b ac 24 a0 a0 00 	mov    0xa0a0(%rsp),%rbp
  402523:	00 
  402524:	64 48 8b 04 25 28 00 	mov    %fs:0x28,%rax
  40252b:	00 00 
  40252d:	48 89 84 24 58 a0 00 	mov    %rax,0xa058(%rsp)
  402534:	00 
  402535:	31 c0                	xor    %eax,%eax
  402537:	c7 44 24 2c 00 00 00 	movl   $0x0,0x2c(%rsp)
  40253e:	00 
  40253f:	ba 00 00 00 00       	mov    $0x0,%edx
  402544:	be 01 00 00 00       	mov    $0x1,%esi
  402549:	bf 02 00 00 00       	mov    $0x2,%edi
  40254e:	e8 1d e9 ff ff       	callq  400e70 <socket@plt>
  402553:	85 c0                	test   %eax,%eax
  402555:	0f 88 a9 02 00 00    	js     402804 <submitr+0x310>
  40255b:	89 c3                	mov    %eax,%ebx
  40255d:	4c 89 ef             	mov    %r13,%rdi
  402560:	e8 eb e7 ff ff       	callq  400d50 <gethostbyname@plt>
  402565:	48 85 c0             	test   %rax,%rax
  402568:	0f 84 e2 02 00 00    	je     402850 <submitr+0x35c>
  40256e:	4c 8d 64 24 30       	lea    0x30(%rsp),%r12
  402573:	48 c7 44 24 32 00 00 	movq   $0x0,0x32(%rsp)
  40257a:	00 00 
  40257c:	c7 44 24 3a 00 00 00 	movl   $0x0,0x3a(%rsp)
  402583:	00 
  402584:	66 c7 44 24 3e 00 00 	movw   $0x0,0x3e(%rsp)
  40258b:	66 c7 44 24 30 02 00 	movw   $0x2,0x30(%rsp)
  402592:	48 63 50 14          	movslq 0x14(%rax),%rdx
  402596:	48 8b 40 18          	mov    0x18(%rax),%rax
  40259a:	48 8b 30             	mov    (%rax),%rsi
  40259d:	48 8d 7c 24 34       	lea    0x34(%rsp),%rdi
  4025a2:	b9 0c 00 00 00       	mov    $0xc,%ecx
  4025a7:	e8 b4 e7 ff ff       	callq  400d60 <__memmove_chk@plt>
  4025ac:	0f b7 44 24 14       	movzwl 0x14(%rsp),%eax
  4025b1:	66 c1 c8 08          	ror    $0x8,%ax
  4025b5:	66 89 44 24 32       	mov    %ax,0x32(%rsp)
  4025ba:	ba 10 00 00 00       	mov    $0x10,%edx
  4025bf:	4c 89 e6             	mov    %r12,%rsi
  4025c2:	89 df                	mov    %ebx,%edi
  4025c4:	e8 77 e8 ff ff       	callq  400e40 <connect@plt>
  4025c9:	85 c0                	test   %eax,%eax
  4025cb:	0f 88 e7 02 00 00    	js     4028b8 <submitr+0x3c4>
  4025d1:	48 c7 c6 ff ff ff ff 	mov    $0xffffffffffffffff,%rsi
  4025d8:	b8 00 00 00 00       	mov    $0x0,%eax
  4025dd:	48 89 f1             	mov    %rsi,%rcx
  4025e0:	4c 89 f7             	mov    %r14,%rdi
  4025e3:	f2 ae                	repnz scas %es:(%rdi),%al
  4025e5:	48 89 ca             	mov    %rcx,%rdx
  4025e8:	48 f7 d2             	not    %rdx
  4025eb:	48 89 f1             	mov    %rsi,%rcx
  4025ee:	4c 89 ff             	mov    %r15,%rdi
  4025f1:	f2 ae                	repnz scas %es:(%rdi),%al
  4025f3:	48 f7 d1             	not    %rcx
  4025f6:	49 89 c8             	mov    %rcx,%r8
  4025f9:	48 89 f1             	mov    %rsi,%rcx
  4025fc:	48 8b 7c 24 08       	mov    0x8(%rsp),%rdi
  402601:	f2 ae                	repnz scas %es:(%rdi),%al
  402603:	48 f7 d1             	not    %rcx
  402606:	4d 8d 44 08 fe       	lea    -0x2(%r8,%rcx,1),%r8
  40260b:	48 89 f1             	mov    %rsi,%rcx
  40260e:	48 8b 7c 24 18       	mov    0x18(%rsp),%rdi
  402613:	f2 ae                	repnz scas %es:(%rdi),%al
  402615:	48 89 c8             	mov    %rcx,%rax
  402618:	48 f7 d0             	not    %rax
  40261b:	49 8d 4c 00 ff       	lea    -0x1(%r8,%rax,1),%rcx
  402620:	48 8d 44 52 fd       	lea    -0x3(%rdx,%rdx,2),%rax
  402625:	48 8d 84 01 80 00 00 	lea    0x80(%rcx,%rax,1),%rax
  40262c:	00 
  40262d:	48 3d 00 20 00 00    	cmp    $0x2000,%rax
  402633:	0f 87 d9 02 00 00    	ja     402912 <submitr+0x41e>
  402639:	48 8d b4 24 50 40 00 	lea    0x4050(%rsp),%rsi
  402640:	00 
  402641:	b9 00 04 00 00       	mov    $0x400,%ecx
  402646:	b8 00 00 00 00       	mov    $0x0,%eax
  40264b:	48 89 f7             	mov    %rsi,%rdi
  40264e:	f3 48 ab             	rep stos %rax,%es:(%rdi)
  402651:	4c 89 f7             	mov    %r14,%rdi
  402654:	e8 88 fd ff ff       	callq  4023e1 <urlencode>
  402659:	85 c0                	test   %eax,%eax
  40265b:	0f 88 24 03 00 00    	js     402985 <submitr+0x491>
  402661:	4c 8d a4 24 50 20 00 	lea    0x2050(%rsp),%r12
  402668:	00 
  402669:	41 55                	push   %r13
  40266b:	48 8d 84 24 58 40 00 	lea    0x4058(%rsp),%rax
  402672:	00 
  402673:	50                   	push   %rax
  402674:	4d 89 f9             	mov    %r15,%r9
  402677:	4c 8b 44 24 18       	mov    0x18(%rsp),%r8
  40267c:	48 8d 0d 95 10 00 00 	lea    0x1095(%rip),%rcx        # 403718 <trans_char+0x38>
  402683:	ba 00 20 00 00       	mov    $0x2000,%edx
  402688:	be 01 00 00 00       	mov    $0x1,%esi
  40268d:	4c 89 e7             	mov    %r12,%rdi
  402690:	b8 00 00 00 00       	mov    $0x0,%eax
  402695:	e8 c6 e7 ff ff       	callq  400e60 <__sprintf_chk@plt>
  40269a:	48 c7 c1 ff ff ff ff 	mov    $0xffffffffffffffff,%rcx
  4026a1:	b8 00 00 00 00       	mov    $0x0,%eax
  4026a6:	4c 89 e7             	mov    %r12,%rdi
  4026a9:	f2 ae                	repnz scas %es:(%rdi),%al
  4026ab:	48 89 ca             	mov    %rcx,%rdx
  4026ae:	48 f7 d2             	not    %rdx
  4026b1:	48 8d 52 ff          	lea    -0x1(%rdx),%rdx
  4026b5:	4c 89 e6             	mov    %r12,%rsi
  4026b8:	89 df                	mov    %ebx,%edi
  4026ba:	e8 95 fb ff ff       	callq  402254 <rio_writen>
  4026bf:	48 83 c4 10          	add    $0x10,%rsp
  4026c3:	48 85 c0             	test   %rax,%rax
  4026c6:	0f 88 44 03 00 00    	js     402a10 <submitr+0x51c>
  4026cc:	4c 8d 64 24 40       	lea    0x40(%rsp),%r12
  4026d1:	89 de                	mov    %ebx,%esi
  4026d3:	4c 89 e7             	mov    %r12,%rdi
  4026d6:	e8 37 fb ff ff       	callq  402212 <rio_readinitb>
  4026db:	48 8d b4 24 50 20 00 	lea    0x2050(%rsp),%rsi
  4026e2:	00 
  4026e3:	ba 00 20 00 00       	mov    $0x2000,%edx
  4026e8:	4c 89 e7             	mov    %r12,%rdi
  4026eb:	e8 4d fc ff ff       	callq  40233d <rio_readlineb>
  4026f0:	48 85 c0             	test   %rax,%rax
  4026f3:	0f 8e 86 03 00 00    	jle    402a7f <submitr+0x58b>
  4026f9:	48 8d 4c 24 2c       	lea    0x2c(%rsp),%rcx
  4026fe:	48 8d 94 24 50 60 00 	lea    0x6050(%rsp),%rdx
  402705:	00 
  402706:	48 8d bc 24 50 20 00 	lea    0x2050(%rsp),%rdi
  40270d:	00 
  40270e:	4c 8d 84 24 50 80 00 	lea    0x8050(%rsp),%r8
  402715:	00 
  402716:	48 8d 35 72 10 00 00 	lea    0x1072(%rip),%rsi        # 40378f <trans_char+0xaf>
  40271d:	b8 00 00 00 00       	mov    $0x0,%eax
  402722:	e8 99 e6 ff ff       	callq  400dc0 <__isoc99_sscanf@plt>
  402727:	48 8d b4 24 50 20 00 	lea    0x2050(%rsp),%rsi
  40272e:	00 
  40272f:	b9 03 00 00 00       	mov    $0x3,%ecx
  402734:	48 8d 3d 6b 10 00 00 	lea    0x106b(%rip),%rdi        # 4037a6 <trans_char+0xc6>
  40273b:	f3 a6                	repz cmpsb %es:(%rdi),%ds:(%rsi)
  40273d:	0f 97 c0             	seta   %al
  402740:	1c 00                	sbb    $0x0,%al
  402742:	84 c0                	test   %al,%al
  402744:	0f 84 b3 03 00 00    	je     402afd <submitr+0x609>
  40274a:	48 8d b4 24 50 20 00 	lea    0x2050(%rsp),%rsi
  402751:	00 
  402752:	48 8d 7c 24 40       	lea    0x40(%rsp),%rdi
  402757:	ba 00 20 00 00       	mov    $0x2000,%edx
  40275c:	e8 dc fb ff ff       	callq  40233d <rio_readlineb>
  402761:	48 85 c0             	test   %rax,%rax
  402764:	7f c1                	jg     402727 <submitr+0x233>
  402766:	48 b8 45 72 72 6f 72 	movabs $0x43203a726f727245,%rax
  40276d:	3a 20 43 
  402770:	48 ba 6c 69 65 6e 74 	movabs $0x6e7520746e65696c,%rdx
  402777:	20 75 6e 
  40277a:	48 89 45 00          	mov    %rax,0x0(%rbp)
  40277e:	48 89 55 08          	mov    %rdx,0x8(%rbp)
  402782:	48 b8 61 62 6c 65 20 	movabs $0x206f7420656c6261,%rax
  402789:	74 6f 20 
  40278c:	48 ba 72 65 61 64 20 	movabs $0x6165682064616572,%rdx
  402793:	68 65 61 
  402796:	48 89 45 10          	mov    %rax,0x10(%rbp)
  40279a:	48 89 55 18          	mov    %rdx,0x18(%rbp)
  40279e:	48 b8 64 65 72 73 20 	movabs $0x6f72662073726564,%rax
  4027a5:	66 72 6f 
  4027a8:	48 ba 6d 20 74 68 65 	movabs $0x657220656874206d,%rdx
  4027af:	20 72 65 
  4027b2:	48 89 45 20          	mov    %rax,0x20(%rbp)
  4027b6:	48 89 55 28          	mov    %rdx,0x28(%rbp)
  4027ba:	48 b8 73 75 6c 74 20 	movabs $0x72657320746c7573,%rax
  4027c1:	73 65 72 
  4027c4:	48 89 45 30          	mov    %rax,0x30(%rbp)
  4027c8:	c7 45 38 76 65 72 00 	movl   $0x726576,0x38(%rbp)
  4027cf:	89 df                	mov    %ebx,%edi
  4027d1:	e8 4a e5 ff ff       	callq  400d20 <close@plt>
  4027d6:	b8 ff ff ff ff       	mov    $0xffffffff,%eax
  4027db:	48 8b 9c 24 58 a0 00 	mov    0xa058(%rsp),%rbx
  4027e2:	00 
  4027e3:	64 48 33 1c 25 28 00 	xor    %fs:0x28,%rbx
  4027ea:	00 00 
  4027ec:	0f 85 7e 04 00 00    	jne    402c70 <submitr+0x77c>
  4027f2:	48 81 c4 68 a0 00 00 	add    $0xa068,%rsp
  4027f9:	5b                   	pop    %rbx
  4027fa:	5d                   	pop    %rbp
  4027fb:	41 5c                	pop    %r12
  4027fd:	41 5d                	pop    %r13
  4027ff:	41 5e                	pop    %r14
  402801:	41 5f                	pop    %r15
  402803:	c3                   	retq   
  402804:	48 b8 45 72 72 6f 72 	movabs $0x43203a726f727245,%rax
  40280b:	3a 20 43 
  40280e:	48 ba 6c 69 65 6e 74 	movabs $0x6e7520746e65696c,%rdx
  402815:	20 75 6e 
  402818:	48 89 45 00          	mov    %rax,0x0(%rbp)
  40281c:	48 89 55 08          	mov    %rdx,0x8(%rbp)
  402820:	48 b8 61 62 6c 65 20 	movabs $0x206f7420656c6261,%rax
  402827:	74 6f 20 
  40282a:	48 ba 63 72 65 61 74 	movabs $0x7320657461657263,%rdx
  402831:	65 20 73 
  402834:	48 89 45 10          	mov    %rax,0x10(%rbp)
  402838:	48 89 55 18          	mov    %rdx,0x18(%rbp)
  40283c:	c7 45 20 6f 63 6b 65 	movl   $0x656b636f,0x20(%rbp)
  402843:	66 c7 45 24 74 00    	movw   $0x74,0x24(%rbp)
  402849:	b8 ff ff ff ff       	mov    $0xffffffff,%eax
  40284e:	eb 8b                	jmp    4027db <submitr+0x2e7>
  402850:	48 b8 45 72 72 6f 72 	movabs $0x44203a726f727245,%rax
  402857:	3a 20 44 
  40285a:	48 ba 4e 53 20 69 73 	movabs $0x6e7520736920534e,%rdx
  402861:	20 75 6e 
  402864:	48 89 45 00          	mov    %rax,0x0(%rbp)
  402868:	48 89 55 08          	mov    %rdx,0x8(%rbp)
  40286c:	48 b8 61 62 6c 65 20 	movabs $0x206f7420656c6261,%rax
  402873:	74 6f 20 
  402876:	48 ba 72 65 73 6f 6c 	movabs $0x2065766c6f736572,%rdx
  40287d:	76 65 20 
  402880:	48 89 45 10          	mov    %rax,0x10(%rbp)
  402884:	48 89 55 18          	mov    %rdx,0x18(%rbp)
  402888:	48 b8 73 65 72 76 65 	movabs $0x6120726576726573,%rax
  40288f:	72 20 61 
  402892:	48 89 45 20          	mov    %rax,0x20(%rbp)
  402896:	c7 45 28 64 64 72 65 	movl   $0x65726464,0x28(%rbp)
  40289d:	66 c7 45 2c 73 73    	movw   $0x7373,0x2c(%rbp)
  4028a3:	c6 45 2e 00          	movb   $0x0,0x2e(%rbp)
  4028a7:	89 df                	mov    %ebx,%edi
  4028a9:	e8 72 e4 ff ff       	callq  400d20 <close@plt>
  4028ae:	b8 ff ff ff ff       	mov    $0xffffffff,%eax
  4028b3:	e9 23 ff ff ff       	jmpq   4027db <submitr+0x2e7>
  4028b8:	48 b8 45 72 72 6f 72 	movabs $0x55203a726f727245,%rax
  4028bf:	3a 20 55 
  4028c2:	48 ba 6e 61 62 6c 65 	movabs $0x6f7420656c62616e,%rdx
  4028c9:	20 74 6f 
  4028cc:	48 89 45 00          	mov    %rax,0x0(%rbp)
  4028d0:	48 89 55 08          	mov    %rdx,0x8(%rbp)
  4028d4:	48 b8 20 63 6f 6e 6e 	movabs $0x7463656e6e6f6320,%rax
  4028db:	65 63 74 
  4028de:	48 ba 20 74 6f 20 74 	movabs $0x20656874206f7420,%rdx
  4028e5:	68 65 20 
  4028e8:	48 89 45 10          	mov    %rax,0x10(%rbp)
  4028ec:	48 89 55 18          	mov    %rdx,0x18(%rbp)
  4028f0:	c7 45 20 73 65 72 76 	movl   $0x76726573,0x20(%rbp)
  4028f7:	66 c7 45 24 65 72    	movw   $0x7265,0x24(%rbp)
  4028fd:	c6 45 26 00          	movb   $0x0,0x26(%rbp)
  402901:	89 df                	mov    %ebx,%edi
  402903:	e8 18 e4 ff ff       	callq  400d20 <close@plt>
  402908:	b8 ff ff ff ff       	mov    $0xffffffff,%eax
  40290d:	e9 c9 fe ff ff       	jmpq   4027db <submitr+0x2e7>
  402912:	48 b8 45 72 72 6f 72 	movabs $0x52203a726f727245,%rax
  402919:	3a 20 52 
  40291c:	48 ba 65 73 75 6c 74 	movabs $0x747320746c757365,%rdx
  402923:	20 73 74 
  402926:	48 89 45 00          	mov    %rax,0x0(%rbp)
  40292a:	48 89 55 08          	mov    %rdx,0x8(%rbp)
  40292e:	48 b8 72 69 6e 67 20 	movabs $0x6f6f7420676e6972,%rax
  402935:	74 6f 6f 
  402938:	48 ba 20 6c 61 72 67 	movabs $0x202e656772616c20,%rdx
  40293f:	65 2e 20 
  402942:	48 89 45 10          	mov    %rax,0x10(%rbp)
  402946:	48 89 55 18          	mov    %rdx,0x18(%rbp)
  40294a:	48 b8 49 6e 63 72 65 	movabs $0x6573616572636e49,%rax
  402951:	61 73 65 
  402954:	48 ba 20 53 55 42 4d 	movabs $0x5254494d42555320,%rdx
  40295b:	49 54 52 
  40295e:	48 89 45 20          	mov    %rax,0x20(%rbp)
  402962:	48 89 55 28          	mov    %rdx,0x28(%rbp)
  402966:	48 b8 5f 4d 41 58 42 	movabs $0x46554258414d5f,%rax
  40296d:	55 46 00 
  402970:	48 89 45 30          	mov    %rax,0x30(%rbp)
  402974:	89 df                	mov    %ebx,%edi
  402976:	e8 a5 e3 ff ff       	callq  400d20 <close@plt>
  40297b:	b8 ff ff ff ff       	mov    $0xffffffff,%eax
  402980:	e9 56 fe ff ff       	jmpq   4027db <submitr+0x2e7>
  402985:	48 b8 45 72 72 6f 72 	movabs $0x52203a726f727245,%rax
  40298c:	3a 20 52 
  40298f:	48 ba 65 73 75 6c 74 	movabs $0x747320746c757365,%rdx
  402996:	20 73 74 
  402999:	48 89 45 00          	mov    %rax,0x0(%rbp)
  40299d:	48 89 55 08          	mov    %rdx,0x8(%rbp)
  4029a1:	48 b8 72 69 6e 67 20 	movabs $0x6e6f6320676e6972,%rax
  4029a8:	63 6f 6e 
  4029ab:	48 ba 74 61 69 6e 73 	movabs $0x6e6120736e696174,%rdx
  4029b2:	20 61 6e 
  4029b5:	48 89 45 10          	mov    %rax,0x10(%rbp)
  4029b9:	48 89 55 18          	mov    %rdx,0x18(%rbp)
  4029bd:	48 b8 20 69 6c 6c 65 	movabs $0x6c6167656c6c6920,%rax
  4029c4:	67 61 6c 
  4029c7:	48 ba 20 6f 72 20 75 	movabs $0x72706e7520726f20,%rdx
  4029ce:	6e 70 72 
  4029d1:	48 89 45 20          	mov    %rax,0x20(%rbp)
  4029d5:	48 89 55 28          	mov    %rdx,0x28(%rbp)
  4029d9:	48 b8 69 6e 74 61 62 	movabs $0x20656c6261746e69,%rax
  4029e0:	6c 65 20 
  4029e3:	48 ba 63 68 61 72 61 	movabs $0x6574636172616863,%rdx
  4029ea:	63 74 65 
  4029ed:	48 89 45 30          	mov    %rax,0x30(%rbp)
  4029f1:	48 89 55 38          	mov    %rdx,0x38(%rbp)
  4029f5:	66 c7 45 40 72 2e    	movw   $0x2e72,0x40(%rbp)
  4029fb:	c6 45 42 00          	movb   $0x0,0x42(%rbp)
  4029ff:	89 df                	mov    %ebx,%edi
  402a01:	e8 1a e3 ff ff       	callq  400d20 <close@plt>
  402a06:	b8 ff ff ff ff       	mov    $0xffffffff,%eax
  402a0b:	e9 cb fd ff ff       	jmpq   4027db <submitr+0x2e7>
  402a10:	48 b8 45 72 72 6f 72 	movabs $0x43203a726f727245,%rax
  402a17:	3a 20 43 
  402a1a:	48 ba 6c 69 65 6e 74 	movabs $0x6e7520746e65696c,%rdx
  402a21:	20 75 6e 
  402a24:	48 89 45 00          	mov    %rax,0x0(%rbp)
  402a28:	48 89 55 08          	mov    %rdx,0x8(%rbp)
  402a2c:	48 b8 61 62 6c 65 20 	movabs $0x206f7420656c6261,%rax
  402a33:	74 6f 20 
  402a36:	48 ba 77 72 69 74 65 	movabs $0x6f74206574697277,%rdx
  402a3d:	20 74 6f 
  402a40:	48 89 45 10          	mov    %rax,0x10(%rbp)
  402a44:	48 89 55 18          	mov    %rdx,0x18(%rbp)
  402a48:	48 b8 20 74 68 65 20 	movabs $0x7365722065687420,%rax
  402a4f:	72 65 73 
  402a52:	48 ba 75 6c 74 20 73 	movabs $0x7672657320746c75,%rdx
  402a59:	65 72 76 
  402a5c:	48 89 45 20          	mov    %rax,0x20(%rbp)
  402a60:	48 89 55 28          	mov    %rdx,0x28(%rbp)
  402a64:	66 c7 45 30 65 72    	movw   $0x7265,0x30(%rbp)
  402a6a:	c6 45 32 00          	movb   $0x0,0x32(%rbp)
  402a6e:	89 df                	mov    %ebx,%edi
  402a70:	e8 ab e2 ff ff       	callq  400d20 <close@plt>
  402a75:	b8 ff ff ff ff       	mov    $0xffffffff,%eax
  402a7a:	e9 5c fd ff ff       	jmpq   4027db <submitr+0x2e7>
  402a7f:	48 b8 45 72 72 6f 72 	movabs $0x43203a726f727245,%rax
  402a86:	3a 20 43 
  402a89:	48 ba 6c 69 65 6e 74 	movabs $0x6e7520746e65696c,%rdx
  402a90:	20 75 6e 
  402a93:	48 89 45 00          	mov    %rax,0x0(%rbp)
  402a97:	48 89 55 08          	mov    %rdx,0x8(%rbp)
  402a9b:	48 b8 61 62 6c 65 20 	movabs $0x206f7420656c6261,%rax
  402aa2:	74 6f 20 
  402aa5:	48 ba 72 65 61 64 20 	movabs $0x7269662064616572,%rdx
  402aac:	66 69 72 
  402aaf:	48 89 45 10          	mov    %rax,0x10(%rbp)
  402ab3:	48 89 55 18          	mov    %rdx,0x18(%rbp)
  402ab7:	48 b8 73 74 20 68 65 	movabs $0x6564616568207473,%rax
  402abe:	61 64 65 
  402ac1:	48 ba 72 20 66 72 6f 	movabs $0x72206d6f72662072,%rdx
  402ac8:	6d 20 72 
  402acb:	48 89 45 20          	mov    %rax,0x20(%rbp)
  402acf:	48 89 55 28          	mov    %rdx,0x28(%rbp)
  402ad3:	48 b8 65 73 75 6c 74 	movabs $0x657320746c757365,%rax
  402ada:	20 73 65 
  402add:	48 89 45 30          	mov    %rax,0x30(%rbp)
  402ae1:	c7 45 38 72 76 65 72 	movl   $0x72657672,0x38(%rbp)
  402ae8:	c6 45 3c 00          	movb   $0x0,0x3c(%rbp)
  402aec:	89 df                	mov    %ebx,%edi
  402aee:	e8 2d e2 ff ff       	callq  400d20 <close@plt>
  402af3:	b8 ff ff ff ff       	mov    $0xffffffff,%eax
  402af8:	e9 de fc ff ff       	jmpq   4027db <submitr+0x2e7>
  402afd:	48 8d b4 24 50 20 00 	lea    0x2050(%rsp),%rsi
  402b04:	00 
  402b05:	48 8d 7c 24 40       	lea    0x40(%rsp),%rdi
  402b0a:	ba 00 20 00 00       	mov    $0x2000,%edx
  402b0f:	e8 29 f8 ff ff       	callq  40233d <rio_readlineb>
  402b14:	48 85 c0             	test   %rax,%rax
  402b17:	0f 8e 96 00 00 00    	jle    402bb3 <submitr+0x6bf>
  402b1d:	44 8b 44 24 2c       	mov    0x2c(%rsp),%r8d
  402b22:	41 81 f8 c8 00 00 00 	cmp    $0xc8,%r8d
  402b29:	0f 85 08 01 00 00    	jne    402c37 <submitr+0x743>
  402b2f:	48 8d b4 24 50 20 00 	lea    0x2050(%rsp),%rsi
  402b36:	00 
  402b37:	48 89 ef             	mov    %rbp,%rdi
  402b3a:	e8 71 e1 ff ff       	callq  400cb0 <strcpy@plt>
  402b3f:	89 df                	mov    %ebx,%edi
  402b41:	e8 da e1 ff ff       	callq  400d20 <close@plt>
  402b46:	b9 04 00 00 00       	mov    $0x4,%ecx
  402b4b:	48 8d 3d 4e 0c 00 00 	lea    0xc4e(%rip),%rdi        # 4037a0 <trans_char+0xc0>
  402b52:	48 89 ee             	mov    %rbp,%rsi
  402b55:	f3 a6                	repz cmpsb %es:(%rdi),%ds:(%rsi)
  402b57:	0f 97 c0             	seta   %al
  402b5a:	1c 00                	sbb    $0x0,%al
  402b5c:	0f be c0             	movsbl %al,%eax
  402b5f:	85 c0                	test   %eax,%eax
  402b61:	0f 84 74 fc ff ff    	je     4027db <submitr+0x2e7>
  402b67:	b9 05 00 00 00       	mov    $0x5,%ecx
  402b6c:	48 8d 3d 31 0c 00 00 	lea    0xc31(%rip),%rdi        # 4037a4 <trans_char+0xc4>
  402b73:	48 89 ee             	mov    %rbp,%rsi
  402b76:	f3 a6                	repz cmpsb %es:(%rdi),%ds:(%rsi)
  402b78:	0f 97 c0             	seta   %al
  402b7b:	1c 00                	sbb    $0x0,%al
  402b7d:	0f be c0             	movsbl %al,%eax
  402b80:	85 c0                	test   %eax,%eax
  402b82:	0f 84 53 fc ff ff    	je     4027db <submitr+0x2e7>
  402b88:	b9 03 00 00 00       	mov    $0x3,%ecx
  402b8d:	48 8d 3d 15 0c 00 00 	lea    0xc15(%rip),%rdi        # 4037a9 <trans_char+0xc9>
  402b94:	48 89 ee             	mov    %rbp,%rsi
  402b97:	f3 a6                	repz cmpsb %es:(%rdi),%ds:(%rsi)
  402b99:	0f 97 c0             	seta   %al
  402b9c:	1c 00                	sbb    $0x0,%al
  402b9e:	0f be c0             	movsbl %al,%eax
  402ba1:	85 c0                	test   %eax,%eax
  402ba3:	0f 84 32 fc ff ff    	je     4027db <submitr+0x2e7>
  402ba9:	b8 ff ff ff ff       	mov    $0xffffffff,%eax
  402bae:	e9 28 fc ff ff       	jmpq   4027db <submitr+0x2e7>
  402bb3:	48 b8 45 72 72 6f 72 	movabs $0x43203a726f727245,%rax
  402bba:	3a 20 43 
  402bbd:	48 ba 6c 69 65 6e 74 	movabs $0x6e7520746e65696c,%rdx
  402bc4:	20 75 6e 
  402bc7:	48 89 45 00          	mov    %rax,0x0(%rbp)
  402bcb:	48 89 55 08          	mov    %rdx,0x8(%rbp)
  402bcf:	48 b8 61 62 6c 65 20 	movabs $0x206f7420656c6261,%rax
  402bd6:	74 6f 20 
  402bd9:	48 ba 72 65 61 64 20 	movabs $0x6174732064616572,%rdx
  402be0:	73 74 61 
  402be3:	48 89 45 10          	mov    %rax,0x10(%rbp)
  402be7:	48 89 55 18          	mov    %rdx,0x18(%rbp)
  402beb:	48 b8 74 75 73 20 6d 	movabs $0x7373656d20737574,%rax
  402bf2:	65 73 73 
  402bf5:	48 ba 61 67 65 20 66 	movabs $0x6d6f726620656761,%rdx
  402bfc:	72 6f 6d 
  402bff:	48 89 45 20          	mov    %rax,0x20(%rbp)
  402c03:	48 89 55 28          	mov    %rdx,0x28(%rbp)
  402c07:	48 b8 20 72 65 73 75 	movabs $0x20746c7573657220,%rax
  402c0e:	6c 74 20 
  402c11:	48 89 45 30          	mov    %rax,0x30(%rbp)
  402c15:	c7 45 38 73 65 72 76 	movl   $0x76726573,0x38(%rbp)
  402c1c:	66 c7 45 3c 65 72    	movw   $0x7265,0x3c(%rbp)
  402c22:	c6 45 3e 00          	movb   $0x0,0x3e(%rbp)
  402c26:	89 df                	mov    %ebx,%edi
  402c28:	e8 f3 e0 ff ff       	callq  400d20 <close@plt>
  402c2d:	b8 ff ff ff ff       	mov    $0xffffffff,%eax
  402c32:	e9 a4 fb ff ff       	jmpq   4027db <submitr+0x2e7>
  402c37:	4c 8d 8c 24 50 80 00 	lea    0x8050(%rsp),%r9
  402c3e:	00 
  402c3f:	48 8d 0d 12 0b 00 00 	lea    0xb12(%rip),%rcx        # 403758 <trans_char+0x78>
  402c46:	48 c7 c2 ff ff ff ff 	mov    $0xffffffffffffffff,%rdx
  402c4d:	be 01 00 00 00       	mov    $0x1,%esi
  402c52:	48 89 ef             	mov    %rbp,%rdi
  402c55:	b8 00 00 00 00       	mov    $0x0,%eax
  402c5a:	e8 01 e2 ff ff       	callq  400e60 <__sprintf_chk@plt>
  402c5f:	89 df                	mov    %ebx,%edi
  402c61:	e8 ba e0 ff ff       	callq  400d20 <close@plt>
  402c66:	b8 ff ff ff ff       	mov    $0xffffffff,%eax
  402c6b:	e9 6b fb ff ff       	jmpq   4027db <submitr+0x2e7>
  402c70:	e8 6b e0 ff ff       	callq  400ce0 <__stack_chk_fail@plt>

0000000000402c75 <init_timeout>:
  402c75:	85 ff                	test   %edi,%edi
  402c77:	74 28                	je     402ca1 <init_timeout+0x2c>
  402c79:	53                   	push   %rbx
  402c7a:	89 fb                	mov    %edi,%ebx
  402c7c:	85 ff                	test   %edi,%edi
  402c7e:	78 1a                	js     402c9a <init_timeout+0x25>
  402c80:	48 8d 35 9d f5 ff ff 	lea    -0xa63(%rip),%rsi        # 402224 <sigalrm_handler>
  402c87:	bf 0e 00 00 00       	mov    $0xe,%edi
  402c8c:	e8 af e0 ff ff       	callq  400d40 <signal@plt>
  402c91:	89 df                	mov    %ebx,%edi
  402c93:	e8 78 e0 ff ff       	callq  400d10 <alarm@plt>
  402c98:	5b                   	pop    %rbx
  402c99:	c3                   	retq   
  402c9a:	bb 00 00 00 00       	mov    $0x0,%ebx
  402c9f:	eb df                	jmp    402c80 <init_timeout+0xb>
  402ca1:	f3 c3                	repz retq 

0000000000402ca3 <init_driver>:
  402ca3:	41 54                	push   %r12
  402ca5:	55                   	push   %rbp
  402ca6:	53                   	push   %rbx
  402ca7:	48 83 ec 20          	sub    $0x20,%rsp
  402cab:	49 89 fc             	mov    %rdi,%r12
  402cae:	64 48 8b 04 25 28 00 	mov    %fs:0x28,%rax
  402cb5:	00 00 
  402cb7:	48 89 44 24 18       	mov    %rax,0x18(%rsp)
  402cbc:	31 c0                	xor    %eax,%eax
  402cbe:	be 01 00 00 00       	mov    $0x1,%esi
  402cc3:	bf 0d 00 00 00       	mov    $0xd,%edi
  402cc8:	e8 73 e0 ff ff       	callq  400d40 <signal@plt>
  402ccd:	be 01 00 00 00       	mov    $0x1,%esi
  402cd2:	bf 1d 00 00 00       	mov    $0x1d,%edi
  402cd7:	e8 64 e0 ff ff       	callq  400d40 <signal@plt>
  402cdc:	be 01 00 00 00       	mov    $0x1,%esi
  402ce1:	bf 1d 00 00 00       	mov    $0x1d,%edi
  402ce6:	e8 55 e0 ff ff       	callq  400d40 <signal@plt>
  402ceb:	ba 00 00 00 00       	mov    $0x0,%edx
  402cf0:	be 01 00 00 00       	mov    $0x1,%esi
  402cf5:	bf 02 00 00 00       	mov    $0x2,%edi
  402cfa:	e8 71 e1 ff ff       	callq  400e70 <socket@plt>
  402cff:	85 c0                	test   %eax,%eax
  402d01:	0f 88 a3 00 00 00    	js     402daa <init_driver+0x107>
  402d07:	89 c3                	mov    %eax,%ebx
  402d09:	48 8d 3d 9c 0a 00 00 	lea    0xa9c(%rip),%rdi        # 4037ac <trans_char+0xcc>
  402d10:	e8 3b e0 ff ff       	callq  400d50 <gethostbyname@plt>
  402d15:	48 85 c0             	test   %rax,%rax
  402d18:	0f 84 df 00 00 00    	je     402dfd <init_driver+0x15a>
  402d1e:	48 89 e5             	mov    %rsp,%rbp
  402d21:	48 c7 44 24 02 00 00 	movq   $0x0,0x2(%rsp)
  402d28:	00 00 
  402d2a:	c7 45 0a 00 00 00 00 	movl   $0x0,0xa(%rbp)
  402d31:	66 c7 45 0e 00 00    	movw   $0x0,0xe(%rbp)
  402d37:	66 c7 04 24 02 00    	movw   $0x2,(%rsp)
  402d3d:	48 63 50 14          	movslq 0x14(%rax),%rdx
  402d41:	48 8b 40 18          	mov    0x18(%rax),%rax
  402d45:	48 8b 30             	mov    (%rax),%rsi
  402d48:	48 8d 7d 04          	lea    0x4(%rbp),%rdi
  402d4c:	b9 0c 00 00 00       	mov    $0xc,%ecx
  402d51:	e8 0a e0 ff ff       	callq  400d60 <__memmove_chk@plt>
  402d56:	66 c7 44 24 02 3c 9a 	movw   $0x9a3c,0x2(%rsp)
  402d5d:	ba 10 00 00 00       	mov    $0x10,%edx
  402d62:	48 89 ee             	mov    %rbp,%rsi
  402d65:	89 df                	mov    %ebx,%edi
  402d67:	e8 d4 e0 ff ff       	callq  400e40 <connect@plt>
  402d6c:	85 c0                	test   %eax,%eax
  402d6e:	0f 88 fb 00 00 00    	js     402e6f <init_driver+0x1cc>
  402d74:	89 df                	mov    %ebx,%edi
  402d76:	e8 a5 df ff ff       	callq  400d20 <close@plt>
  402d7b:	66 41 c7 04 24 4f 4b 	movw   $0x4b4f,(%r12)
  402d82:	41 c6 44 24 02 00    	movb   $0x0,0x2(%r12)
  402d88:	b8 00 00 00 00       	mov    $0x0,%eax
  402d8d:	48 8b 4c 24 18       	mov    0x18(%rsp),%rcx
  402d92:	64 48 33 0c 25 28 00 	xor    %fs:0x28,%rcx
  402d99:	00 00 
  402d9b:	0f 85 28 01 00 00    	jne    402ec9 <init_driver+0x226>
  402da1:	48 83 c4 20          	add    $0x20,%rsp
  402da5:	5b                   	pop    %rbx
  402da6:	5d                   	pop    %rbp
  402da7:	41 5c                	pop    %r12
  402da9:	c3                   	retq   
  402daa:	48 b8 45 72 72 6f 72 	movabs $0x43203a726f727245,%rax
  402db1:	3a 20 43 
  402db4:	48 ba 6c 69 65 6e 74 	movabs $0x6e7520746e65696c,%rdx
  402dbb:	20 75 6e 
  402dbe:	49 89 04 24          	mov    %rax,(%r12)
  402dc2:	49 89 54 24 08       	mov    %rdx,0x8(%r12)
  402dc7:	48 b8 61 62 6c 65 20 	movabs $0x206f7420656c6261,%rax
  402dce:	74 6f 20 
  402dd1:	48 ba 63 72 65 61 74 	movabs $0x7320657461657263,%rdx
  402dd8:	65 20 73 
  402ddb:	49 89 44 24 10       	mov    %rax,0x10(%r12)
  402de0:	49 89 54 24 18       	mov    %rdx,0x18(%r12)
  402de5:	41 c7 44 24 20 6f 63 	movl   $0x656b636f,0x20(%r12)
  402dec:	6b 65 
  402dee:	66 41 c7 44 24 24 74 	movw   $0x74,0x24(%r12)
  402df5:	00 
  402df6:	b8 ff ff ff ff       	mov    $0xffffffff,%eax
  402dfb:	eb 90                	jmp    402d8d <init_driver+0xea>
  402dfd:	48 b8 45 72 72 6f 72 	movabs $0x44203a726f727245,%rax
  402e04:	3a 20 44 
  402e07:	48 ba 4e 53 20 69 73 	movabs $0x6e7520736920534e,%rdx
  402e0e:	20 75 6e 
  402e11:	49 89 04 24          	mov    %rax,(%r12)
  402e15:	49 89 54 24 08       	mov    %rdx,0x8(%r12)
  402e1a:	48 b8 61 62 6c 65 20 	movabs $0x206f7420656c6261,%rax
  402e21:	74 6f 20 
  402e24:	48 ba 72 65 73 6f 6c 	movabs $0x2065766c6f736572,%rdx
  402e2b:	76 65 20 
  402e2e:	49 89 44 24 10       	mov    %rax,0x10(%r12)
  402e33:	49 89 54 24 18       	mov    %rdx,0x18(%r12)
  402e38:	48 b8 73 65 72 76 65 	movabs $0x6120726576726573,%rax
  402e3f:	72 20 61 
  402e42:	49 89 44 24 20       	mov    %rax,0x20(%r12)
  402e47:	41 c7 44 24 28 64 64 	movl   $0x65726464,0x28(%r12)
  402e4e:	72 65 
  402e50:	66 41 c7 44 24 2c 73 	movw   $0x7373,0x2c(%r12)
  402e57:	73 
  402e58:	41 c6 44 24 2e 00    	movb   $0x0,0x2e(%r12)
  402e5e:	89 df                	mov    %ebx,%edi
  402e60:	e8 bb de ff ff       	callq  400d20 <close@plt>
  402e65:	b8 ff ff ff ff       	mov    $0xffffffff,%eax
  402e6a:	e9 1e ff ff ff       	jmpq   402d8d <init_driver+0xea>
  402e6f:	48 b8 45 72 72 6f 72 	movabs $0x55203a726f727245,%rax
  402e76:	3a 20 55 
  402e79:	48 ba 6e 61 62 6c 65 	movabs $0x6f7420656c62616e,%rdx
  402e80:	20 74 6f 
  402e83:	49 89 04 24          	mov    %rax,(%r12)
  402e87:	49 89 54 24 08       	mov    %rdx,0x8(%r12)
  402e8c:	48 b8 20 63 6f 6e 6e 	movabs $0x7463656e6e6f6320,%rax
  402e93:	65 63 74 
  402e96:	48 ba 20 74 6f 20 73 	movabs $0x76726573206f7420,%rdx
  402e9d:	65 72 76 
  402ea0:	49 89 44 24 10       	mov    %rax,0x10(%r12)
  402ea5:	49 89 54 24 18       	mov    %rdx,0x18(%r12)
  402eaa:	66 41 c7 44 24 20 65 	movw   $0x7265,0x20(%r12)
  402eb1:	72 
  402eb2:	41 c6 44 24 22 00    	movb   $0x0,0x22(%r12)
  402eb8:	89 df                	mov    %ebx,%edi
  402eba:	e8 61 de ff ff       	callq  400d20 <close@plt>
  402ebf:	b8 ff ff ff ff       	mov    $0xffffffff,%eax
  402ec4:	e9 c4 fe ff ff       	jmpq   402d8d <init_driver+0xea>
  402ec9:	e8 12 de ff ff       	callq  400ce0 <__stack_chk_fail@plt>

0000000000402ece <driver_post>:
  402ece:	53                   	push   %rbx
  402ecf:	4c 89 cb             	mov    %r9,%rbx
  402ed2:	45 85 c0             	test   %r8d,%r8d
  402ed5:	75 18                	jne    402eef <driver_post+0x21>
  402ed7:	48 85 ff             	test   %rdi,%rdi
  402eda:	74 05                	je     402ee1 <driver_post+0x13>
  402edc:	80 3f 00             	cmpb   $0x0,(%rdi)
  402edf:	75 37                	jne    402f18 <driver_post+0x4a>
  402ee1:	66 c7 03 4f 4b       	movw   $0x4b4f,(%rbx)
  402ee6:	c6 43 02 00          	movb   $0x0,0x2(%rbx)
  402eea:	44 89 c0             	mov    %r8d,%eax
  402eed:	5b                   	pop    %rbx
  402eee:	c3                   	retq   
  402eef:	48 89 ca             	mov    %rcx,%rdx
  402ef2:	48 8d 35 bf 08 00 00 	lea    0x8bf(%rip),%rsi        # 4037b8 <trans_char+0xd8>
  402ef9:	bf 01 00 00 00       	mov    $0x1,%edi
  402efe:	b8 00 00 00 00       	mov    $0x0,%eax
  402f03:	e8 d8 de ff ff       	callq  400de0 <__printf_chk@plt>
  402f08:	66 c7 03 4f 4b       	movw   $0x4b4f,(%rbx)
  402f0d:	c6 43 02 00          	movb   $0x0,0x2(%rbx)
  402f11:	b8 00 00 00 00       	mov    $0x0,%eax
  402f16:	eb d5                	jmp    402eed <driver_post+0x1f>
  402f18:	48 83 ec 08          	sub    $0x8,%rsp
  402f1c:	41 51                	push   %r9
  402f1e:	49 89 c9             	mov    %rcx,%r9
  402f21:	49 89 d0             	mov    %rdx,%r8
  402f24:	48 89 f9             	mov    %rdi,%rcx
  402f27:	48 89 f2             	mov    %rsi,%rdx
  402f2a:	be 9a 3c 00 00       	mov    $0x3c9a,%esi
  402f2f:	48 8d 3d 76 08 00 00 	lea    0x876(%rip),%rdi        # 4037ac <trans_char+0xcc>
  402f36:	e8 b9 f5 ff ff       	callq  4024f4 <submitr>
  402f3b:	48 83 c4 10          	add    $0x10,%rsp
  402f3f:	eb ac                	jmp    402eed <driver_post+0x1f>

0000000000402f41 <check>:
  402f41:	89 f8                	mov    %edi,%eax
  402f43:	c1 e8 1c             	shr    $0x1c,%eax
  402f46:	85 c0                	test   %eax,%eax
  402f48:	74 1d                	je     402f67 <check+0x26>
  402f4a:	b9 00 00 00 00       	mov    $0x0,%ecx
  402f4f:	83 f9 1f             	cmp    $0x1f,%ecx
  402f52:	7f 0d                	jg     402f61 <check+0x20>
  402f54:	89 f8                	mov    %edi,%eax
  402f56:	d3 e8                	shr    %cl,%eax
  402f58:	3c 0a                	cmp    $0xa,%al
  402f5a:	74 11                	je     402f6d <check+0x2c>
  402f5c:	83 c1 08             	add    $0x8,%ecx
  402f5f:	eb ee                	jmp    402f4f <check+0xe>
  402f61:	b8 01 00 00 00       	mov    $0x1,%eax
  402f66:	c3                   	retq   
  402f67:	b8 00 00 00 00       	mov    $0x0,%eax
  402f6c:	c3                   	retq   
  402f6d:	b8 00 00 00 00       	mov    $0x0,%eax
  402f72:	c3                   	retq   

0000000000402f73 <gencookie>:
  402f73:	53                   	push   %rbx
  402f74:	83 c7 01             	add    $0x1,%edi
  402f77:	e8 14 dd ff ff       	callq  400c90 <srandom@plt>
  402f7c:	e8 1f de ff ff       	callq  400da0 <random@plt>
  402f81:	89 c3                	mov    %eax,%ebx
  402f83:	89 c7                	mov    %eax,%edi
  402f85:	e8 b7 ff ff ff       	callq  402f41 <check>
  402f8a:	85 c0                	test   %eax,%eax
  402f8c:	74 ee                	je     402f7c <gencookie+0x9>
  402f8e:	89 d8                	mov    %ebx,%eax
  402f90:	5b                   	pop    %rbx
  402f91:	c3                   	retq   
  402f92:	66 2e 0f 1f 84 00 00 	nopw   %cs:0x0(%rax,%rax,1)
  402f99:	00 00 00 
  402f9c:	0f 1f 40 00          	nopl   0x0(%rax)

0000000000402fa0 <__libc_csu_init>:
  402fa0:	41 57                	push   %r15
  402fa2:	41 56                	push   %r14
  402fa4:	49 89 d7             	mov    %rdx,%r15
  402fa7:	41 55                	push   %r13
  402fa9:	41 54                	push   %r12
  402fab:	4c 8d 25 5e 1e 20 00 	lea    0x201e5e(%rip),%r12        # 604e10 <__frame_dummy_init_array_entry>
  402fb2:	55                   	push   %rbp
  402fb3:	48 8d 2d 5e 1e 20 00 	lea    0x201e5e(%rip),%rbp        # 604e18 <__init_array_end>
  402fba:	53                   	push   %rbx
  402fbb:	41 89 fd             	mov    %edi,%r13d
  402fbe:	49 89 f6             	mov    %rsi,%r14
  402fc1:	4c 29 e5             	sub    %r12,%rbp
  402fc4:	48 83 ec 08          	sub    $0x8,%rsp
  402fc8:	48 c1 fd 03          	sar    $0x3,%rbp
  402fcc:	e8 77 dc ff ff       	callq  400c48 <_init>
  402fd1:	48 85 ed             	test   %rbp,%rbp
  402fd4:	74 20                	je     402ff6 <__libc_csu_init+0x56>
  402fd6:	31 db                	xor    %ebx,%ebx
  402fd8:	0f 1f 84 00 00 00 00 	nopl   0x0(%rax,%rax,1)
  402fdf:	00 
  402fe0:	4c 89 fa             	mov    %r15,%rdx
  402fe3:	4c 89 f6             	mov    %r14,%rsi
  402fe6:	44 89 ef             	mov    %r13d,%edi
  402fe9:	41 ff 14 dc          	callq  *(%r12,%rbx,8)
  402fed:	48 83 c3 01          	add    $0x1,%rbx
  402ff1:	48 39 dd             	cmp    %rbx,%rbp
  402ff4:	75 ea                	jne    402fe0 <__libc_csu_init+0x40>
  402ff6:	48 83 c4 08          	add    $0x8,%rsp
  402ffa:	5b                   	pop    %rbx
  402ffb:	5d                   	pop    %rbp
  402ffc:	41 5c                	pop    %r12
  402ffe:	41 5d                	pop    %r13
  403000:	41 5e                	pop    %r14
  403002:	41 5f                	pop    %r15
  403004:	c3                   	retq   
  403005:	90                   	nop
  403006:	66 2e 0f 1f 84 00 00 	nopw   %cs:0x0(%rax,%rax,1)
  40300d:	00 00 00 

0000000000403010 <__libc_csu_fini>:
  403010:	f3 c3                	repz retq 

Disassembly of section .fini:

0000000000403014 <_fini>:
  403014:	48 83 ec 08          	sub    $0x8,%rsp
  403018:	48 83 c4 08          	add    $0x8,%rsp
  40301c:	c3                   	retq   
