
bomb:     file format elf32-i386


Disassembly of section .init:

08048794 <_init>:
 8048794:	53                   	push   %ebx
 8048795:	83 ec 08             	sub    $0x8,%esp
 8048798:	e8 a3 02 00 00       	call   8048a40 <__x86.get_pc_thunk.bx>
 804879d:	81 c3 63 48 00 00    	add    $0x4863,%ebx
 80487a3:	8b 83 f4 ff ff ff    	mov    -0xc(%ebx),%eax
 80487a9:	85 c0                	test   %eax,%eax
 80487ab:	74 05                	je     80487b2 <_init+0x1e>
 80487ad:	e8 2e 02 00 00       	call   80489e0 <__gmon_start__@plt>
 80487b2:	83 c4 08             	add    $0x8,%esp
 80487b5:	5b                   	pop    %ebx
 80487b6:	c3                   	ret    

Disassembly of section .plt:

080487c0 <.plt>:
 80487c0:	ff 35 04 d0 04 08    	pushl  0x804d004
 80487c6:	ff 25 08 d0 04 08    	jmp    *0x804d008
 80487cc:	00 00                	add    %al,(%eax)
	...

080487d0 <strcmp@plt>:
 80487d0:	ff 25 0c d0 04 08    	jmp    *0x804d00c
 80487d6:	68 00 00 00 00       	push   $0x0
 80487db:	e9 e0 ff ff ff       	jmp    80487c0 <.plt>

080487e0 <read@plt>:
 80487e0:	ff 25 10 d0 04 08    	jmp    *0x804d010
 80487e6:	68 08 00 00 00       	push   $0x8
 80487eb:	e9 d0 ff ff ff       	jmp    80487c0 <.plt>

080487f0 <printf@plt>:
 80487f0:	ff 25 14 d0 04 08    	jmp    *0x804d014
 80487f6:	68 10 00 00 00       	push   $0x10
 80487fb:	e9 c0 ff ff ff       	jmp    80487c0 <.plt>

08048800 <fflush@plt>:
 8048800:	ff 25 18 d0 04 08    	jmp    *0x804d018
 8048806:	68 18 00 00 00       	push   $0x18
 804880b:	e9 b0 ff ff ff       	jmp    80487c0 <.plt>

08048810 <memcpy@plt>:
 8048810:	ff 25 1c d0 04 08    	jmp    *0x804d01c
 8048816:	68 20 00 00 00       	push   $0x20
 804881b:	e9 a0 ff ff ff       	jmp    80487c0 <.plt>

08048820 <bzero@plt>:
 8048820:	ff 25 20 d0 04 08    	jmp    *0x804d020
 8048826:	68 28 00 00 00       	push   $0x28
 804882b:	e9 90 ff ff ff       	jmp    80487c0 <.plt>

08048830 <fgets@plt>:
 8048830:	ff 25 24 d0 04 08    	jmp    *0x804d024
 8048836:	68 30 00 00 00       	push   $0x30
 804883b:	e9 80 ff ff ff       	jmp    80487c0 <.plt>

08048840 <signal@plt>:
 8048840:	ff 25 28 d0 04 08    	jmp    *0x804d028
 8048846:	68 38 00 00 00       	push   $0x38
 804884b:	e9 70 ff ff ff       	jmp    80487c0 <.plt>

08048850 <sleep@plt>:
 8048850:	ff 25 2c d0 04 08    	jmp    *0x804d02c
 8048856:	68 40 00 00 00       	push   $0x40
 804885b:	e9 60 ff ff ff       	jmp    80487c0 <.plt>

08048860 <alarm@plt>:
 8048860:	ff 25 30 d0 04 08    	jmp    *0x804d030
 8048866:	68 48 00 00 00       	push   $0x48
 804886b:	e9 50 ff ff ff       	jmp    80487c0 <.plt>

08048870 <__stack_chk_fail@plt>:
 8048870:	ff 25 34 d0 04 08    	jmp    *0x804d034
 8048876:	68 50 00 00 00       	push   $0x50
 804887b:	e9 40 ff ff ff       	jmp    80487c0 <.plt>

08048880 <htons@plt>:
 8048880:	ff 25 38 d0 04 08    	jmp    *0x804d038
 8048886:	68 58 00 00 00       	push   $0x58
 804888b:	e9 30 ff ff ff       	jmp    80487c0 <.plt>

08048890 <bcopy@plt>:
 8048890:	ff 25 3c d0 04 08    	jmp    *0x804d03c
 8048896:	68 60 00 00 00       	push   $0x60
 804889b:	e9 20 ff ff ff       	jmp    80487c0 <.plt>

080488a0 <strcpy@plt>:
 80488a0:	ff 25 40 d0 04 08    	jmp    *0x804d040
 80488a6:	68 68 00 00 00       	push   $0x68
 80488ab:	e9 10 ff ff ff       	jmp    80487c0 <.plt>

080488b0 <gethostname@plt>:
 80488b0:	ff 25 44 d0 04 08    	jmp    *0x804d044
 80488b6:	68 70 00 00 00       	push   $0x70
 80488bb:	e9 00 ff ff ff       	jmp    80487c0 <.plt>

080488c0 <getenv@plt>:
 80488c0:	ff 25 48 d0 04 08    	jmp    *0x804d048
 80488c6:	68 78 00 00 00       	push   $0x78
 80488cb:	e9 f0 fe ff ff       	jmp    80487c0 <.plt>

080488d0 <puts@plt>:
 80488d0:	ff 25 4c d0 04 08    	jmp    *0x804d04c
 80488d6:	68 80 00 00 00       	push   $0x80
 80488db:	e9 e0 fe ff ff       	jmp    80487c0 <.plt>

080488e0 <exit@plt>:
 80488e0:	ff 25 50 d0 04 08    	jmp    *0x804d050
 80488e6:	68 88 00 00 00       	push   $0x88
 80488eb:	e9 d0 fe ff ff       	jmp    80487c0 <.plt>

080488f0 <strlen@plt>:
 80488f0:	ff 25 54 d0 04 08    	jmp    *0x804d054
 80488f6:	68 90 00 00 00       	push   $0x90
 80488fb:	e9 c0 fe ff ff       	jmp    80487c0 <.plt>

08048900 <__libc_start_main@plt>:
 8048900:	ff 25 58 d0 04 08    	jmp    *0x804d058
 8048906:	68 98 00 00 00       	push   $0x98
 804890b:	e9 b0 fe ff ff       	jmp    80487c0 <.plt>

08048910 <fprintf@plt>:
 8048910:	ff 25 5c d0 04 08    	jmp    *0x804d05c
 8048916:	68 a0 00 00 00       	push   $0xa0
 804891b:	e9 a0 fe ff ff       	jmp    80487c0 <.plt>

08048920 <write@plt>:
 8048920:	ff 25 60 d0 04 08    	jmp    *0x804d060
 8048926:	68 a8 00 00 00       	push   $0xa8
 804892b:	e9 90 fe ff ff       	jmp    80487c0 <.plt>

08048930 <strcasecmp@plt>:
 8048930:	ff 25 64 d0 04 08    	jmp    *0x804d064
 8048936:	68 b0 00 00 00       	push   $0xb0
 804893b:	e9 80 fe ff ff       	jmp    80487c0 <.plt>

08048940 <__isoc99_sscanf@plt>:
 8048940:	ff 25 68 d0 04 08    	jmp    *0x804d068
 8048946:	68 b8 00 00 00       	push   $0xb8
 804894b:	e9 70 fe ff ff       	jmp    80487c0 <.plt>

08048950 <fopen@plt>:
 8048950:	ff 25 6c d0 04 08    	jmp    *0x804d06c
 8048956:	68 c0 00 00 00       	push   $0xc0
 804895b:	e9 60 fe ff ff       	jmp    80487c0 <.plt>

08048960 <__errno_location@plt>:
 8048960:	ff 25 70 d0 04 08    	jmp    *0x804d070
 8048966:	68 c8 00 00 00       	push   $0xc8
 804896b:	e9 50 fe ff ff       	jmp    80487c0 <.plt>

08048970 <sprintf@plt>:
 8048970:	ff 25 74 d0 04 08    	jmp    *0x804d074
 8048976:	68 d0 00 00 00       	push   $0xd0
 804897b:	e9 40 fe ff ff       	jmp    80487c0 <.plt>

08048980 <atoi@plt>:
 8048980:	ff 25 78 d0 04 08    	jmp    *0x804d078
 8048986:	68 d8 00 00 00       	push   $0xd8
 804898b:	e9 30 fe ff ff       	jmp    80487c0 <.plt>

08048990 <socket@plt>:
 8048990:	ff 25 7c d0 04 08    	jmp    *0x804d07c
 8048996:	68 e0 00 00 00       	push   $0xe0
 804899b:	e9 20 fe ff ff       	jmp    80487c0 <.plt>

080489a0 <gethostbyname@plt>:
 80489a0:	ff 25 80 d0 04 08    	jmp    *0x804d080
 80489a6:	68 e8 00 00 00       	push   $0xe8
 80489ab:	e9 10 fe ff ff       	jmp    80487c0 <.plt>

080489b0 <connect@plt>:
 80489b0:	ff 25 84 d0 04 08    	jmp    *0x804d084
 80489b6:	68 f0 00 00 00       	push   $0xf0
 80489bb:	e9 00 fe ff ff       	jmp    80487c0 <.plt>

080489c0 <close@plt>:
 80489c0:	ff 25 88 d0 04 08    	jmp    *0x804d088
 80489c6:	68 f8 00 00 00       	push   $0xf8
 80489cb:	e9 f0 fd ff ff       	jmp    80487c0 <.plt>

080489d0 <__ctype_b_loc@plt>:
 80489d0:	ff 25 8c d0 04 08    	jmp    *0x804d08c
 80489d6:	68 00 01 00 00       	push   $0x100
 80489db:	e9 e0 fd ff ff       	jmp    80487c0 <.plt>

Disassembly of section .plt.got:

080489e0 <__gmon_start__@plt>:
 80489e0:	ff 25 f4 cf 04 08    	jmp    *0x804cff4
 80489e6:	66 90                	xchg   %ax,%ax

Disassembly of section .text:

080489f0 <_start>:
 80489f0:	31 ed                	xor    %ebp,%ebp
 80489f2:	5e                   	pop    %esi
 80489f3:	89 e1                	mov    %esp,%ecx
 80489f5:	83 e4 f0             	and    $0xfffffff0,%esp
 80489f8:	50                   	push   %eax
 80489f9:	54                   	push   %esp
 80489fa:	52                   	push   %edx
 80489fb:	e8 23 00 00 00       	call   8048a23 <_start+0x33>
 8048a00:	81 c3 00 46 00 00    	add    $0x4600,%ebx
 8048a06:	8d 83 80 d9 ff ff    	lea    -0x2680(%ebx),%eax
 8048a0c:	50                   	push   %eax
 8048a0d:	8d 83 20 d9 ff ff    	lea    -0x26e0(%ebx),%eax
 8048a13:	50                   	push   %eax
 8048a14:	51                   	push   %ecx
 8048a15:	56                   	push   %esi
 8048a16:	c7 c0 06 8b 04 08    	mov    $0x8048b06,%eax
 8048a1c:	50                   	push   %eax
 8048a1d:	e8 de fe ff ff       	call   8048900 <__libc_start_main@plt>
 8048a22:	f4                   	hlt    
 8048a23:	8b 1c 24             	mov    (%esp),%ebx
 8048a26:	c3                   	ret    
 8048a27:	66 90                	xchg   %ax,%ax
 8048a29:	66 90                	xchg   %ax,%ax
 8048a2b:	66 90                	xchg   %ax,%ax
 8048a2d:	66 90                	xchg   %ax,%ax
 8048a2f:	90                   	nop

08048a30 <_dl_relocate_static_pie>:
 8048a30:	f3 c3                	repz ret 
 8048a32:	66 90                	xchg   %ax,%ax
 8048a34:	66 90                	xchg   %ax,%ax
 8048a36:	66 90                	xchg   %ax,%ax
 8048a38:	66 90                	xchg   %ax,%ax
 8048a3a:	66 90                	xchg   %ax,%ax
 8048a3c:	66 90                	xchg   %ax,%ax
 8048a3e:	66 90                	xchg   %ax,%ax

08048a40 <__x86.get_pc_thunk.bx>:
 8048a40:	8b 1c 24             	mov    (%esp),%ebx
 8048a43:	c3                   	ret    
 8048a44:	66 90                	xchg   %ax,%ax
 8048a46:	66 90                	xchg   %ax,%ax
 8048a48:	66 90                	xchg   %ax,%ax
 8048a4a:	66 90                	xchg   %ax,%ax
 8048a4c:	66 90                	xchg   %ax,%ax
 8048a4e:	66 90                	xchg   %ax,%ax

08048a50 <deregister_tm_clones>:
 8048a50:	b8 40 d4 04 08       	mov    $0x804d440,%eax
 8048a55:	3d 40 d4 04 08       	cmp    $0x804d440,%eax
 8048a5a:	74 24                	je     8048a80 <deregister_tm_clones+0x30>
 8048a5c:	b8 00 00 00 00       	mov    $0x0,%eax
 8048a61:	85 c0                	test   %eax,%eax
 8048a63:	74 1b                	je     8048a80 <deregister_tm_clones+0x30>
 8048a65:	55                   	push   %ebp
 8048a66:	89 e5                	mov    %esp,%ebp
 8048a68:	83 ec 14             	sub    $0x14,%esp
 8048a6b:	68 40 d4 04 08       	push   $0x804d440
 8048a70:	ff d0                	call   *%eax
 8048a72:	83 c4 10             	add    $0x10,%esp
 8048a75:	c9                   	leave  
 8048a76:	c3                   	ret    
 8048a77:	89 f6                	mov    %esi,%esi
 8048a79:	8d bc 27 00 00 00 00 	lea    0x0(%edi,%eiz,1),%edi
 8048a80:	f3 c3                	repz ret 
 8048a82:	8d b4 26 00 00 00 00 	lea    0x0(%esi,%eiz,1),%esi
 8048a89:	8d bc 27 00 00 00 00 	lea    0x0(%edi,%eiz,1),%edi

08048a90 <register_tm_clones>:
 8048a90:	b8 40 d4 04 08       	mov    $0x804d440,%eax
 8048a95:	2d 40 d4 04 08       	sub    $0x804d440,%eax
 8048a9a:	c1 f8 02             	sar    $0x2,%eax
 8048a9d:	89 c2                	mov    %eax,%edx
 8048a9f:	c1 ea 1f             	shr    $0x1f,%edx
 8048aa2:	01 d0                	add    %edx,%eax
 8048aa4:	d1 f8                	sar    %eax
 8048aa6:	74 20                	je     8048ac8 <register_tm_clones+0x38>
 8048aa8:	ba 00 00 00 00       	mov    $0x0,%edx
 8048aad:	85 d2                	test   %edx,%edx
 8048aaf:	74 17                	je     8048ac8 <register_tm_clones+0x38>
 8048ab1:	55                   	push   %ebp
 8048ab2:	89 e5                	mov    %esp,%ebp
 8048ab4:	83 ec 10             	sub    $0x10,%esp
 8048ab7:	50                   	push   %eax
 8048ab8:	68 40 d4 04 08       	push   $0x804d440
 8048abd:	ff d2                	call   *%edx
 8048abf:	83 c4 10             	add    $0x10,%esp
 8048ac2:	c9                   	leave  
 8048ac3:	c3                   	ret    
 8048ac4:	8d 74 26 00          	lea    0x0(%esi,%eiz,1),%esi
 8048ac8:	f3 c3                	repz ret 
 8048aca:	8d b6 00 00 00 00    	lea    0x0(%esi),%esi

08048ad0 <__do_global_dtors_aux>:
 8048ad0:	80 3d 40 d4 04 08 00 	cmpb   $0x0,0x804d440
 8048ad7:	75 17                	jne    8048af0 <__do_global_dtors_aux+0x20>
 8048ad9:	55                   	push   %ebp
 8048ada:	89 e5                	mov    %esp,%ebp
 8048adc:	83 ec 08             	sub    $0x8,%esp
 8048adf:	e8 6c ff ff ff       	call   8048a50 <deregister_tm_clones>
 8048ae4:	c6 05 40 d4 04 08 01 	movb   $0x1,0x804d440
 8048aeb:	c9                   	leave  
 8048aec:	c3                   	ret    
 8048aed:	8d 76 00             	lea    0x0(%esi),%esi
 8048af0:	f3 c3                	repz ret 
 8048af2:	8d b4 26 00 00 00 00 	lea    0x0(%esi,%eiz,1),%esi
 8048af9:	8d bc 27 00 00 00 00 	lea    0x0(%edi,%eiz,1),%edi

08048b00 <frame_dummy>:
 8048b00:	55                   	push   %ebp
 8048b01:	89 e5                	mov    %esp,%ebp
 8048b03:	5d                   	pop    %ebp
 8048b04:	eb 8a                	jmp    8048a90 <register_tm_clones>

08048b06 <main>:
 8048b06:	8d 4c 24 04          	lea    0x4(%esp),%ecx
 8048b0a:	83 e4 f0             	and    $0xfffffff0,%esp
 8048b0d:	ff 71 fc             	pushl  -0x4(%ecx)
 8048b10:	55                   	push   %ebp
 8048b11:	89 e5                	mov    %esp,%ebp
 8048b13:	56                   	push   %esi
 8048b14:	53                   	push   %ebx
 8048b15:	51                   	push   %ecx
 8048b16:	83 ec 1c             	sub    $0x1c,%esp
 8048b19:	e8 22 ff ff ff       	call   8048a40 <__x86.get_pc_thunk.bx>
 8048b1e:	81 c3 e2 44 00 00    	add    $0x44e2,%ebx
 8048b24:	89 ce                	mov    %ecx,%esi
 8048b26:	83 3e 01             	cmpl   $0x1,(%esi)
 8048b29:	75 15                	jne    8048b40 <main+0x3a>
 8048b2b:	8b 83 f8 ff ff ff    	mov    -0x8(%ebx),%eax
 8048b31:	8b 10                	mov    (%eax),%edx
 8048b33:	c7 c0 48 d4 04 08    	mov    $0x804d448,%eax
 8048b39:	89 10                	mov    %edx,(%eax)
 8048b3b:	e9 83 00 00 00       	jmp    8048bc3 <main+0xbd>
 8048b40:	83 3e 02             	cmpl   $0x2,(%esi)
 8048b43:	75 5c                	jne    8048ba1 <main+0x9b>
 8048b45:	8b 46 04             	mov    0x4(%esi),%eax
 8048b48:	83 c0 04             	add    $0x4,%eax
 8048b4b:	8b 00                	mov    (%eax),%eax
 8048b4d:	83 ec 08             	sub    $0x8,%esp
 8048b50:	8d 93 c0 d9 ff ff    	lea    -0x2640(%ebx),%edx
 8048b56:	52                   	push   %edx
 8048b57:	50                   	push   %eax
 8048b58:	e8 f3 fd ff ff       	call   8048950 <fopen@plt>
 8048b5d:	83 c4 10             	add    $0x10,%esp
 8048b60:	89 c2                	mov    %eax,%edx
 8048b62:	c7 c0 48 d4 04 08    	mov    $0x804d448,%eax
 8048b68:	89 10                	mov    %edx,(%eax)
 8048b6a:	c7 c0 48 d4 04 08    	mov    $0x804d448,%eax
 8048b70:	8b 00                	mov    (%eax),%eax
 8048b72:	85 c0                	test   %eax,%eax
 8048b74:	75 4d                	jne    8048bc3 <main+0xbd>
 8048b76:	8b 46 04             	mov    0x4(%esi),%eax
 8048b79:	83 c0 04             	add    $0x4,%eax
 8048b7c:	8b 10                	mov    (%eax),%edx
 8048b7e:	8b 46 04             	mov    0x4(%esi),%eax
 8048b81:	8b 00                	mov    (%eax),%eax
 8048b83:	83 ec 04             	sub    $0x4,%esp
 8048b86:	52                   	push   %edx
 8048b87:	50                   	push   %eax
 8048b88:	8d 83 c2 d9 ff ff    	lea    -0x263e(%ebx),%eax
 8048b8e:	50                   	push   %eax
 8048b8f:	e8 5c fc ff ff       	call   80487f0 <printf@plt>
 8048b94:	83 c4 10             	add    $0x10,%esp
 8048b97:	83 ec 0c             	sub    $0xc,%esp
 8048b9a:	6a 08                	push   $0x8
 8048b9c:	e8 3f fd ff ff       	call   80488e0 <exit@plt>
 8048ba1:	8b 46 04             	mov    0x4(%esi),%eax
 8048ba4:	8b 00                	mov    (%eax),%eax
 8048ba6:	83 ec 08             	sub    $0x8,%esp
 8048ba9:	50                   	push   %eax
 8048baa:	8d 83 df d9 ff ff    	lea    -0x2621(%ebx),%eax
 8048bb0:	50                   	push   %eax
 8048bb1:	e8 3a fc ff ff       	call   80487f0 <printf@plt>
 8048bb6:	83 c4 10             	add    $0x10,%esp
 8048bb9:	83 ec 0c             	sub    $0xc,%esp
 8048bbc:	6a 08                	push   $0x8
 8048bbe:	e8 1d fd ff ff       	call   80488e0 <exit@plt>
 8048bc3:	e8 a5 08 00 00       	call   804946d <initialize_bomb>
 8048bc8:	83 ec 0c             	sub    $0xc,%esp
 8048bcb:	8d 83 fc d9 ff ff    	lea    -0x2604(%ebx),%eax
 8048bd1:	50                   	push   %eax
 8048bd2:	e8 f9 fc ff ff       	call   80488d0 <puts@plt>
 8048bd7:	83 c4 10             	add    $0x10,%esp
 8048bda:	83 ec 0c             	sub    $0xc,%esp
 8048bdd:	8d 83 38 da ff ff    	lea    -0x25c8(%ebx),%eax
 8048be3:	50                   	push   %eax
 8048be4:	e8 e7 fc ff ff       	call   80488d0 <puts@plt>
 8048be9:	83 c4 10             	add    $0x10,%esp
 8048bec:	e8 8e 0a 00 00       	call   804967f <read_line>
 8048bf1:	89 45 e4             	mov    %eax,-0x1c(%ebp)
 8048bf4:	83 ec 0c             	sub    $0xc,%esp
 8048bf7:	ff 75 e4             	pushl  -0x1c(%ebp)
 8048bfa:	e8 f9 00 00 00       	call   8048cf8 <phase_1>
 8048bff:	83 c4 10             	add    $0x10,%esp
 8048c02:	e8 87 0d 00 00       	call   804998e <phase_defused>
 8048c07:	83 ec 0c             	sub    $0xc,%esp
 8048c0a:	8d 83 64 da ff ff    	lea    -0x259c(%ebx),%eax
 8048c10:	50                   	push   %eax
 8048c11:	e8 ba fc ff ff       	call   80488d0 <puts@plt>
 8048c16:	83 c4 10             	add    $0x10,%esp
 8048c19:	e8 61 0a 00 00       	call   804967f <read_line>
 8048c1e:	89 45 e4             	mov    %eax,-0x1c(%ebp)
 8048c21:	83 ec 0c             	sub    $0xc,%esp
 8048c24:	ff 75 e4             	pushl  -0x1c(%ebp)
 8048c27:	e8 02 01 00 00       	call   8048d2e <phase_2>
 8048c2c:	83 c4 10             	add    $0x10,%esp
 8048c2f:	e8 5a 0d 00 00       	call   804998e <phase_defused>
 8048c34:	83 ec 0c             	sub    $0xc,%esp
 8048c37:	8d 83 8d da ff ff    	lea    -0x2573(%ebx),%eax
 8048c3d:	50                   	push   %eax
 8048c3e:	e8 8d fc ff ff       	call   80488d0 <puts@plt>
 8048c43:	83 c4 10             	add    $0x10,%esp
 8048c46:	e8 34 0a 00 00       	call   804967f <read_line>
 8048c4b:	89 45 e4             	mov    %eax,-0x1c(%ebp)
 8048c4e:	83 ec 0c             	sub    $0xc,%esp
 8048c51:	ff 75 e4             	pushl  -0x1c(%ebp)
 8048c54:	e8 6e 01 00 00       	call   8048dc7 <phase_3>
 8048c59:	83 c4 10             	add    $0x10,%esp
 8048c5c:	e8 2d 0d 00 00       	call   804998e <phase_defused>
 8048c61:	83 ec 0c             	sub    $0xc,%esp
 8048c64:	8d 83 ab da ff ff    	lea    -0x2555(%ebx),%eax
 8048c6a:	50                   	push   %eax
 8048c6b:	e8 60 fc ff ff       	call   80488d0 <puts@plt>
 8048c70:	83 c4 10             	add    $0x10,%esp
 8048c73:	e8 07 0a 00 00       	call   804967f <read_line>
 8048c78:	89 45 e4             	mov    %eax,-0x1c(%ebp)
 8048c7b:	83 ec 0c             	sub    $0xc,%esp
 8048c7e:	ff 75 e4             	pushl  -0x1c(%ebp)
 8048c81:	e8 7d 02 00 00       	call   8048f03 <phase_4>
 8048c86:	83 c4 10             	add    $0x10,%esp
 8048c89:	e8 00 0d 00 00       	call   804998e <phase_defused>
 8048c8e:	83 ec 0c             	sub    $0xc,%esp
 8048c91:	8d 83 bc da ff ff    	lea    -0x2544(%ebx),%eax
 8048c97:	50                   	push   %eax
 8048c98:	e8 33 fc ff ff       	call   80488d0 <puts@plt>
 8048c9d:	83 c4 10             	add    $0x10,%esp
 8048ca0:	e8 da 09 00 00       	call   804967f <read_line>
 8048ca5:	89 45 e4             	mov    %eax,-0x1c(%ebp)
 8048ca8:	83 ec 0c             	sub    $0xc,%esp
 8048cab:	ff 75 e4             	pushl  -0x1c(%ebp)
 8048cae:	e8 eb 02 00 00       	call   8048f9e <phase_5>
 8048cb3:	83 c4 10             	add    $0x10,%esp
 8048cb6:	e8 d3 0c 00 00       	call   804998e <phase_defused>
 8048cbb:	83 ec 0c             	sub    $0xc,%esp
 8048cbe:	8d 83 e0 da ff ff    	lea    -0x2520(%ebx),%eax
 8048cc4:	50                   	push   %eax
 8048cc5:	e8 06 fc ff ff       	call   80488d0 <puts@plt>
 8048cca:	83 c4 10             	add    $0x10,%esp
 8048ccd:	e8 ad 09 00 00       	call   804967f <read_line>
 8048cd2:	89 45 e4             	mov    %eax,-0x1c(%ebp)
 8048cd5:	83 ec 0c             	sub    $0xc,%esp
 8048cd8:	ff 75 e4             	pushl  -0x1c(%ebp)
 8048cdb:	e8 71 03 00 00       	call   8049051 <phase_6>
 8048ce0:	83 c4 10             	add    $0x10,%esp
 8048ce3:	e8 a6 0c 00 00       	call   804998e <phase_defused>
 8048ce8:	b8 00 00 00 00       	mov    $0x0,%eax
 8048ced:	8d 65 f4             	lea    -0xc(%ebp),%esp
 8048cf0:	59                   	pop    %ecx
 8048cf1:	5b                   	pop    %ebx
 8048cf2:	5e                   	pop    %esi
 8048cf3:	5d                   	pop    %ebp
 8048cf4:	8d 61 fc             	lea    -0x4(%ecx),%esp
 8048cf7:	c3                   	ret    

08048cf8 <phase_1>:
 8048cf8:	55                   	push   %ebp
 8048cf9:	89 e5                	mov    %esp,%ebp
 8048cfb:	53                   	push   %ebx
 8048cfc:	83 ec 04             	sub    $0x4,%esp
 8048cff:	e8 3c fd ff ff       	call   8048a40 <__x86.get_pc_thunk.bx>
 8048d04:	81 c3 fc 42 00 00    	add    $0x42fc,%ebx
 8048d0a:	83 ec 08             	sub    $0x8,%esp
 8048d0d:	8d 83 00 db ff ff    	lea    -0x2500(%ebx),%eax
 8048d13:	50                   	push   %eax
 8048d14:	ff 75 08             	pushl  0x8(%ebp)
 8048d17:	e8 dc 06 00 00       	call   80493f8 <strings_not_equal>
 8048d1c:	83 c4 10             	add    $0x10,%esp
 8048d1f:	85 c0                	test   %eax,%eax
 8048d21:	74 05                	je     8048d28 <phase_1+0x30>
 8048d23:	e8 07 0c 00 00       	call   804992f <explode_bomb>
 8048d28:	90                   	nop
 8048d29:	8b 5d fc             	mov    -0x4(%ebp),%ebx
 8048d2c:	c9                   	leave  
 8048d2d:	c3                   	ret    

08048d2e <phase_2>:
 8048d2e:	55                   	push   %ebp
 8048d2f:	89 e5                	mov    %esp,%ebp
 8048d31:	53                   	push   %ebx
 8048d32:	83 ec 34             	sub    $0x34,%esp
 8048d35:	e8 06 fd ff ff       	call   8048a40 <__x86.get_pc_thunk.bx>
 8048d3a:	81 c3 c6 42 00 00    	add    $0x42c6,%ebx
 8048d40:	8b 45 08             	mov    0x8(%ebp),%eax
 8048d43:	89 45 d4             	mov    %eax,-0x2c(%ebp)
 8048d46:	65 a1 14 00 00 00    	mov    %gs:0x14,%eax
 8048d4c:	89 45 f4             	mov    %eax,-0xc(%ebp)
 8048d4f:	31 c0                	xor    %eax,%eax
 8048d51:	83 ec 08             	sub    $0x8,%esp
 8048d54:	8d 45 dc             	lea    -0x24(%ebp),%eax
 8048d57:	50                   	push   %eax
 8048d58:	ff 75 d4             	pushl  -0x2c(%ebp)
 8048d5b:	e8 fe 05 00 00       	call   804935e <read_six_numbers>
 8048d60:	83 c4 10             	add    $0x10,%esp
 8048d63:	8b 45 dc             	mov    -0x24(%ebp),%eax
 8048d66:	85 c0                	test   %eax,%eax
 8048d68:	75 08                	jne    8048d72 <phase_2+0x44>
 8048d6a:	8b 45 e0             	mov    -0x20(%ebp),%eax
 8048d6d:	83 f8 01             	cmp    $0x1,%eax
 8048d70:	74 05                	je     8048d77 <phase_2+0x49>
 8048d72:	e8 b8 0b 00 00       	call   804992f <explode_bomb>
 8048d77:	c7 45 d8 02 00 00 00 	movl   $0x2,-0x28(%ebp)
 8048d7e:	eb 2a                	jmp    8048daa <phase_2+0x7c>
 8048d80:	8b 45 d8             	mov    -0x28(%ebp),%eax
 8048d83:	8b 44 85 dc          	mov    -0x24(%ebp,%eax,4),%eax
 8048d87:	8b 55 d8             	mov    -0x28(%ebp),%edx
 8048d8a:	83 ea 02             	sub    $0x2,%edx
 8048d8d:	8b 4c 95 dc          	mov    -0x24(%ebp,%edx,4),%ecx
 8048d91:	8b 55 d8             	mov    -0x28(%ebp),%edx
 8048d94:	83 ea 01             	sub    $0x1,%edx
 8048d97:	8b 54 95 dc          	mov    -0x24(%ebp,%edx,4),%edx
 8048d9b:	01 ca                	add    %ecx,%edx
 8048d9d:	39 d0                	cmp    %edx,%eax
 8048d9f:	74 05                	je     8048da6 <phase_2+0x78>
 8048da1:	e8 89 0b 00 00       	call   804992f <explode_bomb>
 8048da6:	83 45 d8 01          	addl   $0x1,-0x28(%ebp)
 8048daa:	83 7d d8 05          	cmpl   $0x5,-0x28(%ebp)
 8048dae:	7e d0                	jle    8048d80 <phase_2+0x52>
 8048db0:	90                   	nop
 8048db1:	8b 45 f4             	mov    -0xc(%ebp),%eax
 8048db4:	65 33 05 14 00 00 00 	xor    %gs:0x14,%eax
 8048dbb:	74 05                	je     8048dc2 <phase_2+0x94>
 8048dbd:	e8 ce 1b 00 00       	call   804a990 <__stack_chk_fail_local>
 8048dc2:	8b 5d fc             	mov    -0x4(%ebp),%ebx
 8048dc5:	c9                   	leave  
 8048dc6:	c3                   	ret    

08048dc7 <phase_3>:
 8048dc7:	55                   	push   %ebp
 8048dc8:	89 e5                	mov    %esp,%ebp
 8048dca:	53                   	push   %ebx
 8048dcb:	83 ec 34             	sub    $0x34,%esp
 8048dce:	e8 6d fc ff ff       	call   8048a40 <__x86.get_pc_thunk.bx>
 8048dd3:	81 c3 2d 42 00 00    	add    $0x422d,%ebx
 8048dd9:	8b 45 08             	mov    0x8(%ebp),%eax
 8048ddc:	89 45 d4             	mov    %eax,-0x2c(%ebp)
 8048ddf:	65 a1 14 00 00 00    	mov    %gs:0x14,%eax
 8048de5:	89 45 f4             	mov    %eax,-0xc(%ebp)
 8048de8:	31 c0                	xor    %eax,%eax
 8048dea:	c7 45 ec 00 00 00 00 	movl   $0x0,-0x14(%ebp)
 8048df1:	c7 45 f0 00 00 00 00 	movl   $0x0,-0x10(%ebp)
 8048df8:	8d 45 e8             	lea    -0x18(%ebp),%eax
 8048dfb:	50                   	push   %eax
 8048dfc:	8d 45 e4             	lea    -0x1c(%ebp),%eax
 8048dff:	50                   	push   %eax
 8048e00:	8d 83 28 db ff ff    	lea    -0x24d8(%ebx),%eax
 8048e06:	50                   	push   %eax
 8048e07:	ff 75 d4             	pushl  -0x2c(%ebp)
 8048e0a:	e8 31 fb ff ff       	call   8048940 <__isoc99_sscanf@plt>
 8048e0f:	83 c4 10             	add    $0x10,%esp
 8048e12:	89 45 f0             	mov    %eax,-0x10(%ebp)
 8048e15:	83 7d f0 01          	cmpl   $0x1,-0x10(%ebp)
 8048e19:	7f 05                	jg     8048e20 <phase_3+0x59>
 8048e1b:	e8 0f 0b 00 00       	call   804992f <explode_bomb>
 8048e20:	8b 45 e4             	mov    -0x1c(%ebp),%eax
 8048e23:	83 f8 07             	cmp    $0x7,%eax
 8048e26:	77 48                	ja     8048e70 <.L22+0x9>
 8048e28:	c1 e0 02             	shl    $0x2,%eax
 8048e2b:	8b 84 18 30 db ff ff 	mov    -0x24d0(%eax,%ebx,1),%eax
 8048e32:	01 d8                	add    %ebx,%eax
 8048e34:	ff e0                	jmp    *%eax

08048e36 <.L14>:
 8048e36:	81 45 ec 3d 03 00 00 	addl   $0x33d,-0x14(%ebp)

08048e3d <.L16>:
 8048e3d:	81 6d ec 19 02 00 00 	subl   $0x219,-0x14(%ebp)

08048e44 <.L17>:
 8048e44:	81 45 ec 0f 03 00 00 	addl   $0x30f,-0x14(%ebp)

08048e4b <.L18>:
 8048e4b:	81 6d ec da 00 00 00 	subl   $0xda,-0x14(%ebp)

08048e52 <.L19>:
 8048e52:	81 45 ec da 00 00 00 	addl   $0xda,-0x14(%ebp)

08048e59 <.L20>:
 8048e59:	81 6d ec da 00 00 00 	subl   $0xda,-0x14(%ebp)

08048e60 <.L21>:
 8048e60:	81 45 ec da 00 00 00 	addl   $0xda,-0x14(%ebp)

08048e67 <.L22>:
 8048e67:	81 6d ec da 00 00 00 	subl   $0xda,-0x14(%ebp)
 8048e6e:	eb 05                	jmp    8048e75 <.L22+0xe>
 8048e70:	e8 ba 0a 00 00       	call   804992f <explode_bomb>
 8048e75:	8b 45 e4             	mov    -0x1c(%ebp),%eax
 8048e78:	83 f8 05             	cmp    $0x5,%eax
 8048e7b:	7f 08                	jg     8048e85 <.L22+0x1e>
 8048e7d:	8b 45 e8             	mov    -0x18(%ebp),%eax
 8048e80:	39 45 ec             	cmp    %eax,-0x14(%ebp)
 8048e83:	74 05                	je     8048e8a <.L22+0x23>
 8048e85:	e8 a5 0a 00 00       	call   804992f <explode_bomb>
 8048e8a:	90                   	nop
 8048e8b:	8b 45 f4             	mov    -0xc(%ebp),%eax
 8048e8e:	65 33 05 14 00 00 00 	xor    %gs:0x14,%eax
 8048e95:	74 05                	je     8048e9c <.L22+0x35>
 8048e97:	e8 f4 1a 00 00       	call   804a990 <__stack_chk_fail_local>
 8048e9c:	8b 5d fc             	mov    -0x4(%ebp),%ebx
 8048e9f:	c9                   	leave  
 8048ea0:	c3                   	ret    

08048ea1 <func4>:
 8048ea1:	55                   	push   %ebp
 8048ea2:	89 e5                	mov    %esp,%ebp
 8048ea4:	53                   	push   %ebx
 8048ea5:	83 ec 04             	sub    $0x4,%esp
 8048ea8:	e8 fc 03 00 00       	call   80492a9 <__x86.get_pc_thunk.ax>
 8048ead:	05 53 41 00 00       	add    $0x4153,%eax
 8048eb2:	83 7d 08 00          	cmpl   $0x0,0x8(%ebp)
 8048eb6:	7f 07                	jg     8048ebf <func4+0x1e>
 8048eb8:	b8 00 00 00 00       	mov    $0x0,%eax
 8048ebd:	eb 3f                	jmp    8048efe <func4+0x5d>
 8048ebf:	83 7d 08 01          	cmpl   $0x1,0x8(%ebp)
 8048ec3:	75 05                	jne    8048eca <func4+0x29>
 8048ec5:	8b 45 0c             	mov    0xc(%ebp),%eax
 8048ec8:	eb 34                	jmp    8048efe <func4+0x5d>
 8048eca:	8b 45 08             	mov    0x8(%ebp),%eax
 8048ecd:	83 e8 01             	sub    $0x1,%eax
 8048ed0:	83 ec 08             	sub    $0x8,%esp
 8048ed3:	ff 75 0c             	pushl  0xc(%ebp)
 8048ed6:	50                   	push   %eax
 8048ed7:	e8 c5 ff ff ff       	call   8048ea1 <func4>
 8048edc:	83 c4 10             	add    $0x10,%esp
 8048edf:	89 c2                	mov    %eax,%edx
 8048ee1:	8b 45 0c             	mov    0xc(%ebp),%eax
 8048ee4:	8d 1c 02             	lea    (%edx,%eax,1),%ebx
 8048ee7:	8b 45 08             	mov    0x8(%ebp),%eax
 8048eea:	83 e8 02             	sub    $0x2,%eax
 8048eed:	83 ec 08             	sub    $0x8,%esp
 8048ef0:	ff 75 0c             	pushl  0xc(%ebp)
 8048ef3:	50                   	push   %eax
 8048ef4:	e8 a8 ff ff ff       	call   8048ea1 <func4>
 8048ef9:	83 c4 10             	add    $0x10,%esp
 8048efc:	01 d8                	add    %ebx,%eax
 8048efe:	8b 5d fc             	mov    -0x4(%ebp),%ebx
 8048f01:	c9                   	leave  
 8048f02:	c3                   	ret    

08048f03 <phase_4>:
 8048f03:	55                   	push   %ebp
 8048f04:	89 e5                	mov    %esp,%ebp
 8048f06:	53                   	push   %ebx
 8048f07:	83 ec 34             	sub    $0x34,%esp
 8048f0a:	e8 31 fb ff ff       	call   8048a40 <__x86.get_pc_thunk.bx>
 8048f0f:	81 c3 f1 40 00 00    	add    $0x40f1,%ebx
 8048f15:	8b 45 08             	mov    0x8(%ebp),%eax
 8048f18:	89 45 d4             	mov    %eax,-0x2c(%ebp)
 8048f1b:	65 a1 14 00 00 00    	mov    %gs:0x14,%eax
 8048f21:	89 45 f4             	mov    %eax,-0xc(%ebp)
 8048f24:	31 c0                	xor    %eax,%eax
 8048f26:	8d 45 e0             	lea    -0x20(%ebp),%eax
 8048f29:	50                   	push   %eax
 8048f2a:	8d 45 e4             	lea    -0x1c(%ebp),%eax
 8048f2d:	50                   	push   %eax
 8048f2e:	8d 83 28 db ff ff    	lea    -0x24d8(%ebx),%eax
 8048f34:	50                   	push   %eax
 8048f35:	ff 75 d4             	pushl  -0x2c(%ebp)
 8048f38:	e8 03 fa ff ff       	call   8048940 <__isoc99_sscanf@plt>
 8048f3d:	83 c4 10             	add    $0x10,%esp
 8048f40:	89 45 e8             	mov    %eax,-0x18(%ebp)
 8048f43:	83 7d e8 02          	cmpl   $0x2,-0x18(%ebp)
 8048f47:	75 10                	jne    8048f59 <phase_4+0x56>
 8048f49:	8b 45 e0             	mov    -0x20(%ebp),%eax
 8048f4c:	83 f8 01             	cmp    $0x1,%eax
 8048f4f:	7e 08                	jle    8048f59 <phase_4+0x56>
 8048f51:	8b 45 e0             	mov    -0x20(%ebp),%eax
 8048f54:	83 f8 04             	cmp    $0x4,%eax
 8048f57:	7e 05                	jle    8048f5e <phase_4+0x5b>
 8048f59:	e8 d1 09 00 00       	call   804992f <explode_bomb>
 8048f5e:	c7 45 ec 09 00 00 00 	movl   $0x9,-0x14(%ebp)
 8048f65:	8b 45 e0             	mov    -0x20(%ebp),%eax
 8048f68:	83 ec 08             	sub    $0x8,%esp
 8048f6b:	50                   	push   %eax
 8048f6c:	ff 75 ec             	pushl  -0x14(%ebp)
 8048f6f:	e8 2d ff ff ff       	call   8048ea1 <func4>
 8048f74:	83 c4 10             	add    $0x10,%esp
 8048f77:	89 45 f0             	mov    %eax,-0x10(%ebp)
 8048f7a:	8b 45 e4             	mov    -0x1c(%ebp),%eax
 8048f7d:	39 45 f0             	cmp    %eax,-0x10(%ebp)
 8048f80:	74 05                	je     8048f87 <phase_4+0x84>
 8048f82:	e8 a8 09 00 00       	call   804992f <explode_bomb>
 8048f87:	90                   	nop
 8048f88:	8b 45 f4             	mov    -0xc(%ebp),%eax
 8048f8b:	65 33 05 14 00 00 00 	xor    %gs:0x14,%eax
 8048f92:	74 05                	je     8048f99 <phase_4+0x96>
 8048f94:	e8 f7 19 00 00       	call   804a990 <__stack_chk_fail_local>
 8048f99:	8b 5d fc             	mov    -0x4(%ebp),%ebx
 8048f9c:	c9                   	leave  
 8048f9d:	c3                   	ret    

08048f9e <phase_5>:
 8048f9e:	55                   	push   %ebp
 8048f9f:	89 e5                	mov    %esp,%ebp
 8048fa1:	53                   	push   %ebx
 8048fa2:	83 ec 34             	sub    $0x34,%esp
 8048fa5:	e8 96 fa ff ff       	call   8048a40 <__x86.get_pc_thunk.bx>
 8048faa:	81 c3 56 40 00 00    	add    $0x4056,%ebx
 8048fb0:	8b 45 08             	mov    0x8(%ebp),%eax
 8048fb3:	89 45 d4             	mov    %eax,-0x2c(%ebp)
 8048fb6:	65 a1 14 00 00 00    	mov    %gs:0x14,%eax
 8048fbc:	89 45 f4             	mov    %eax,-0xc(%ebp)
 8048fbf:	31 c0                	xor    %eax,%eax
 8048fc1:	8d 45 e0             	lea    -0x20(%ebp),%eax
 8048fc4:	50                   	push   %eax
 8048fc5:	8d 45 dc             	lea    -0x24(%ebp),%eax
 8048fc8:	50                   	push   %eax
 8048fc9:	8d 83 28 db ff ff    	lea    -0x24d8(%ebx),%eax
 8048fcf:	50                   	push   %eax
 8048fd0:	ff 75 d4             	pushl  -0x2c(%ebp)
 8048fd3:	e8 68 f9 ff ff       	call   8048940 <__isoc99_sscanf@plt>
 8048fd8:	83 c4 10             	add    $0x10,%esp
 8048fdb:	89 45 ec             	mov    %eax,-0x14(%ebp)
 8048fde:	83 7d ec 01          	cmpl   $0x1,-0x14(%ebp)
 8048fe2:	7f 05                	jg     8048fe9 <phase_5+0x4b>
 8048fe4:	e8 46 09 00 00       	call   804992f <explode_bomb>
 8048fe9:	8b 45 dc             	mov    -0x24(%ebp),%eax
 8048fec:	83 e0 0f             	and    $0xf,%eax
 8048fef:	89 45 dc             	mov    %eax,-0x24(%ebp)
 8048ff2:	8b 45 dc             	mov    -0x24(%ebp),%eax
 8048ff5:	89 45 f0             	mov    %eax,-0x10(%ebp)
 8048ff8:	c7 45 e4 00 00 00 00 	movl   $0x0,-0x1c(%ebp)
 8048fff:	c7 45 e8 00 00 00 00 	movl   $0x0,-0x18(%ebp)
 8049006:	eb 17                	jmp    804901f <phase_5+0x81>
 8049008:	83 45 e4 01          	addl   $0x1,-0x1c(%ebp)
 804900c:	8b 45 dc             	mov    -0x24(%ebp),%eax
 804900f:	8b 84 83 60 01 00 00 	mov    0x160(%ebx,%eax,4),%eax
 8049016:	89 45 dc             	mov    %eax,-0x24(%ebp)
 8049019:	8b 45 dc             	mov    -0x24(%ebp),%eax
 804901c:	01 45 e8             	add    %eax,-0x18(%ebp)
 804901f:	8b 45 dc             	mov    -0x24(%ebp),%eax
 8049022:	83 f8 0f             	cmp    $0xf,%eax
 8049025:	75 e1                	jne    8049008 <phase_5+0x6a>
 8049027:	83 7d e4 0f          	cmpl   $0xf,-0x1c(%ebp)
 804902b:	75 08                	jne    8049035 <phase_5+0x97>
 804902d:	8b 45 e0             	mov    -0x20(%ebp),%eax
 8049030:	39 45 e8             	cmp    %eax,-0x18(%ebp)
 8049033:	74 05                	je     804903a <phase_5+0x9c>
 8049035:	e8 f5 08 00 00       	call   804992f <explode_bomb>
 804903a:	90                   	nop
 804903b:	8b 45 f4             	mov    -0xc(%ebp),%eax
 804903e:	65 33 05 14 00 00 00 	xor    %gs:0x14,%eax
 8049045:	74 05                	je     804904c <phase_5+0xae>
 8049047:	e8 44 19 00 00       	call   804a990 <__stack_chk_fail_local>
 804904c:	8b 5d fc             	mov    -0x4(%ebp),%ebx
 804904f:	c9                   	leave  
 8049050:	c3                   	ret    

08049051 <phase_6>:
 8049051:	55                   	push   %ebp
 8049052:	89 e5                	mov    %esp,%ebp
 8049054:	53                   	push   %ebx
 8049055:	83 ec 64             	sub    $0x64,%esp
 8049058:	e8 e3 f9 ff ff       	call   8048a40 <__x86.get_pc_thunk.bx>
 804905d:	81 c3 a3 3f 00 00    	add    $0x3fa3,%ebx
 8049063:	8b 45 08             	mov    0x8(%ebp),%eax
 8049066:	89 45 a4             	mov    %eax,-0x5c(%ebp)
 8049069:	65 a1 14 00 00 00    	mov    %gs:0x14,%eax
 804906f:	89 45 f4             	mov    %eax,-0xc(%ebp)
 8049072:	31 c0                	xor    %eax,%eax
 8049074:	8d 83 d0 01 00 00    	lea    0x1d0(%ebx),%eax
 804907a:	89 45 c0             	mov    %eax,-0x40(%ebp)
 804907d:	83 ec 08             	sub    $0x8,%esp
 8049080:	8d 45 c4             	lea    -0x3c(%ebp),%eax
 8049083:	50                   	push   %eax
 8049084:	ff 75 a4             	pushl  -0x5c(%ebp)
 8049087:	e8 d2 02 00 00       	call   804935e <read_six_numbers>
 804908c:	83 c4 10             	add    $0x10,%esp
 804908f:	c7 45 b8 00 00 00 00 	movl   $0x0,-0x48(%ebp)
 8049096:	eb 4c                	jmp    80490e4 <phase_6+0x93>
 8049098:	8b 45 b8             	mov    -0x48(%ebp),%eax
 804909b:	8b 44 85 c4          	mov    -0x3c(%ebp,%eax,4),%eax
 804909f:	85 c0                	test   %eax,%eax
 80490a1:	7e 0c                	jle    80490af <phase_6+0x5e>
 80490a3:	8b 45 b8             	mov    -0x48(%ebp),%eax
 80490a6:	8b 44 85 c4          	mov    -0x3c(%ebp,%eax,4),%eax
 80490aa:	83 f8 06             	cmp    $0x6,%eax
 80490ad:	7e 05                	jle    80490b4 <phase_6+0x63>
 80490af:	e8 7b 08 00 00       	call   804992f <explode_bomb>
 80490b4:	8b 45 b8             	mov    -0x48(%ebp),%eax
 80490b7:	83 c0 01             	add    $0x1,%eax
 80490ba:	89 45 bc             	mov    %eax,-0x44(%ebp)
 80490bd:	eb 1b                	jmp    80490da <phase_6+0x89>
 80490bf:	8b 45 b8             	mov    -0x48(%ebp),%eax
 80490c2:	8b 54 85 c4          	mov    -0x3c(%ebp,%eax,4),%edx
 80490c6:	8b 45 bc             	mov    -0x44(%ebp),%eax
 80490c9:	8b 44 85 c4          	mov    -0x3c(%ebp,%eax,4),%eax
 80490cd:	39 c2                	cmp    %eax,%edx
 80490cf:	75 05                	jne    80490d6 <phase_6+0x85>
 80490d1:	e8 59 08 00 00       	call   804992f <explode_bomb>
 80490d6:	83 45 bc 01          	addl   $0x1,-0x44(%ebp)
 80490da:	83 7d bc 05          	cmpl   $0x5,-0x44(%ebp)
 80490de:	7e df                	jle    80490bf <phase_6+0x6e>
 80490e0:	83 45 b8 01          	addl   $0x1,-0x48(%ebp)
 80490e4:	83 7d b8 05          	cmpl   $0x5,-0x48(%ebp)
 80490e8:	7e ae                	jle    8049098 <phase_6+0x47>
 80490ea:	c7 45 b8 00 00 00 00 	movl   $0x0,-0x48(%ebp)
 80490f1:	eb 36                	jmp    8049129 <phase_6+0xd8>
 80490f3:	8b 45 c0             	mov    -0x40(%ebp),%eax
 80490f6:	89 45 b4             	mov    %eax,-0x4c(%ebp)
 80490f9:	c7 45 bc 01 00 00 00 	movl   $0x1,-0x44(%ebp)
 8049100:	eb 0d                	jmp    804910f <phase_6+0xbe>
 8049102:	8b 45 b4             	mov    -0x4c(%ebp),%eax
 8049105:	8b 40 08             	mov    0x8(%eax),%eax
 8049108:	89 45 b4             	mov    %eax,-0x4c(%ebp)
 804910b:	83 45 bc 01          	addl   $0x1,-0x44(%ebp)
 804910f:	8b 45 b8             	mov    -0x48(%ebp),%eax
 8049112:	8b 44 85 c4          	mov    -0x3c(%ebp,%eax,4),%eax
 8049116:	39 45 bc             	cmp    %eax,-0x44(%ebp)
 8049119:	7c e7                	jl     8049102 <phase_6+0xb1>
 804911b:	8b 45 b8             	mov    -0x48(%ebp),%eax
 804911e:	8b 55 b4             	mov    -0x4c(%ebp),%edx
 8049121:	89 54 85 dc          	mov    %edx,-0x24(%ebp,%eax,4)
 8049125:	83 45 b8 01          	addl   $0x1,-0x48(%ebp)
 8049129:	83 7d b8 05          	cmpl   $0x5,-0x48(%ebp)
 804912d:	7e c4                	jle    80490f3 <phase_6+0xa2>
 804912f:	8b 45 dc             	mov    -0x24(%ebp),%eax
 8049132:	89 45 c0             	mov    %eax,-0x40(%ebp)
 8049135:	8b 45 c0             	mov    -0x40(%ebp),%eax
 8049138:	89 45 b4             	mov    %eax,-0x4c(%ebp)
 804913b:	c7 45 b8 01 00 00 00 	movl   $0x1,-0x48(%ebp)
 8049142:	eb 1a                	jmp    804915e <phase_6+0x10d>
 8049144:	8b 45 b8             	mov    -0x48(%ebp),%eax
 8049147:	8b 54 85 dc          	mov    -0x24(%ebp,%eax,4),%edx
 804914b:	8b 45 b4             	mov    -0x4c(%ebp),%eax
 804914e:	89 50 08             	mov    %edx,0x8(%eax)
 8049151:	8b 45 b4             	mov    -0x4c(%ebp),%eax
 8049154:	8b 40 08             	mov    0x8(%eax),%eax
 8049157:	89 45 b4             	mov    %eax,-0x4c(%ebp)
 804915a:	83 45 b8 01          	addl   $0x1,-0x48(%ebp)
 804915e:	83 7d b8 05          	cmpl   $0x5,-0x48(%ebp)
 8049162:	7e e0                	jle    8049144 <phase_6+0xf3>
 8049164:	8b 45 b4             	mov    -0x4c(%ebp),%eax
 8049167:	c7 40 08 00 00 00 00 	movl   $0x0,0x8(%eax)
 804916e:	8b 45 c0             	mov    -0x40(%ebp),%eax
 8049171:	89 45 b4             	mov    %eax,-0x4c(%ebp)
 8049174:	c7 45 b8 00 00 00 00 	movl   $0x0,-0x48(%ebp)
 804917b:	eb 23                	jmp    80491a0 <phase_6+0x14f>
 804917d:	8b 45 b4             	mov    -0x4c(%ebp),%eax
 8049180:	8b 10                	mov    (%eax),%edx
 8049182:	8b 45 b4             	mov    -0x4c(%ebp),%eax
 8049185:	8b 40 08             	mov    0x8(%eax),%eax
 8049188:	8b 00                	mov    (%eax),%eax
 804918a:	39 c2                	cmp    %eax,%edx
 804918c:	7d 05                	jge    8049193 <phase_6+0x142>
 804918e:	e8 9c 07 00 00       	call   804992f <explode_bomb>
 8049193:	8b 45 b4             	mov    -0x4c(%ebp),%eax
 8049196:	8b 40 08             	mov    0x8(%eax),%eax
 8049199:	89 45 b4             	mov    %eax,-0x4c(%ebp)
 804919c:	83 45 b8 01          	addl   $0x1,-0x48(%ebp)
 80491a0:	83 7d b8 04          	cmpl   $0x4,-0x48(%ebp)
 80491a4:	7e d7                	jle    804917d <phase_6+0x12c>
 80491a6:	90                   	nop
 80491a7:	8b 45 f4             	mov    -0xc(%ebp),%eax
 80491aa:	65 33 05 14 00 00 00 	xor    %gs:0x14,%eax
 80491b1:	74 05                	je     80491b8 <phase_6+0x167>
 80491b3:	e8 d8 17 00 00       	call   804a990 <__stack_chk_fail_local>
 80491b8:	8b 5d fc             	mov    -0x4(%ebp),%ebx
 80491bb:	c9                   	leave  
 80491bc:	c3                   	ret    

080491bd <fun7>:
 80491bd:	55                   	push   %ebp
 80491be:	89 e5                	mov    %esp,%ebp
 80491c0:	83 ec 08             	sub    $0x8,%esp
 80491c3:	e8 e1 00 00 00       	call   80492a9 <__x86.get_pc_thunk.ax>
 80491c8:	05 38 3e 00 00       	add    $0x3e38,%eax
 80491cd:	83 7d 08 00          	cmpl   $0x0,0x8(%ebp)
 80491d1:	75 07                	jne    80491da <fun7+0x1d>
 80491d3:	b8 ff ff ff ff       	mov    $0xffffffff,%eax
 80491d8:	eb 4e                	jmp    8049228 <fun7+0x6b>
 80491da:	8b 45 08             	mov    0x8(%ebp),%eax
 80491dd:	8b 00                	mov    (%eax),%eax
 80491df:	39 45 0c             	cmp    %eax,0xc(%ebp)
 80491e2:	7d 19                	jge    80491fd <fun7+0x40>
 80491e4:	8b 45 08             	mov    0x8(%ebp),%eax
 80491e7:	8b 40 04             	mov    0x4(%eax),%eax
 80491ea:	83 ec 08             	sub    $0x8,%esp
 80491ed:	ff 75 0c             	pushl  0xc(%ebp)
 80491f0:	50                   	push   %eax
 80491f1:	e8 c7 ff ff ff       	call   80491bd <fun7>
 80491f6:	83 c4 10             	add    $0x10,%esp
 80491f9:	01 c0                	add    %eax,%eax
 80491fb:	eb 2b                	jmp    8049228 <fun7+0x6b>
 80491fd:	8b 45 08             	mov    0x8(%ebp),%eax
 8049200:	8b 00                	mov    (%eax),%eax
 8049202:	39 45 0c             	cmp    %eax,0xc(%ebp)
 8049205:	75 07                	jne    804920e <fun7+0x51>
 8049207:	b8 00 00 00 00       	mov    $0x0,%eax
 804920c:	eb 1a                	jmp    8049228 <fun7+0x6b>
 804920e:	8b 45 08             	mov    0x8(%ebp),%eax
 8049211:	8b 40 08             	mov    0x8(%eax),%eax
 8049214:	83 ec 08             	sub    $0x8,%esp
 8049217:	ff 75 0c             	pushl  0xc(%ebp)
 804921a:	50                   	push   %eax
 804921b:	e8 9d ff ff ff       	call   80491bd <fun7>
 8049220:	83 c4 10             	add    $0x10,%esp
 8049223:	01 c0                	add    %eax,%eax
 8049225:	83 c0 01             	add    $0x1,%eax
 8049228:	c9                   	leave  
 8049229:	c3                   	ret    

0804922a <secret_phase>:
 804922a:	55                   	push   %ebp
 804922b:	89 e5                	mov    %esp,%ebp
 804922d:	53                   	push   %ebx
 804922e:	83 ec 14             	sub    $0x14,%esp
 8049231:	e8 0a f8 ff ff       	call   8048a40 <__x86.get_pc_thunk.bx>
 8049236:	81 c3 ca 3d 00 00    	add    $0x3dca,%ebx
 804923c:	e8 3e 04 00 00       	call   804967f <read_line>
 8049241:	89 45 ec             	mov    %eax,-0x14(%ebp)
 8049244:	83 ec 0c             	sub    $0xc,%esp
 8049247:	ff 75 ec             	pushl  -0x14(%ebp)
 804924a:	e8 31 f7 ff ff       	call   8048980 <atoi@plt>
 804924f:	83 c4 10             	add    $0x10,%esp
 8049252:	89 45 f0             	mov    %eax,-0x10(%ebp)
 8049255:	83 7d f0 00          	cmpl   $0x0,-0x10(%ebp)
 8049259:	7e 09                	jle    8049264 <secret_phase+0x3a>
 804925b:	81 7d f0 e9 03 00 00 	cmpl   $0x3e9,-0x10(%ebp)
 8049262:	7e 05                	jle    8049269 <secret_phase+0x3f>
 8049264:	e8 c6 06 00 00       	call   804992f <explode_bomb>
 8049269:	83 ec 08             	sub    $0x8,%esp
 804926c:	ff 75 f0             	pushl  -0x10(%ebp)
 804926f:	8d 83 24 02 00 00    	lea    0x224(%ebx),%eax
 8049275:	50                   	push   %eax
 8049276:	e8 42 ff ff ff       	call   80491bd <fun7>
 804927b:	83 c4 10             	add    $0x10,%esp
 804927e:	89 45 f4             	mov    %eax,-0xc(%ebp)
 8049281:	83 7d f4 04          	cmpl   $0x4,-0xc(%ebp)
 8049285:	74 05                	je     804928c <secret_phase+0x62>
 8049287:	e8 a3 06 00 00       	call   804992f <explode_bomb>
 804928c:	83 ec 0c             	sub    $0xc,%esp
 804928f:	8d 83 50 db ff ff    	lea    -0x24b0(%ebx),%eax
 8049295:	50                   	push   %eax
 8049296:	e8 35 f6 ff ff       	call   80488d0 <puts@plt>
 804929b:	83 c4 10             	add    $0x10,%esp
 804929e:	e8 eb 06 00 00       	call   804998e <phase_defused>
 80492a3:	90                   	nop
 80492a4:	8b 5d fc             	mov    -0x4(%ebp),%ebx
 80492a7:	c9                   	leave  
 80492a8:	c3                   	ret    

080492a9 <__x86.get_pc_thunk.ax>:
 80492a9:	8b 04 24             	mov    (%esp),%eax
 80492ac:	c3                   	ret    

080492ad <sig_handler>:
 80492ad:	55                   	push   %ebp
 80492ae:	89 e5                	mov    %esp,%ebp
 80492b0:	53                   	push   %ebx
 80492b1:	83 ec 04             	sub    $0x4,%esp
 80492b4:	e8 87 f7 ff ff       	call   8048a40 <__x86.get_pc_thunk.bx>
 80492b9:	81 c3 47 3d 00 00    	add    $0x3d47,%ebx
 80492bf:	83 ec 0c             	sub    $0xc,%esp
 80492c2:	8d 83 e0 db ff ff    	lea    -0x2420(%ebx),%eax
 80492c8:	50                   	push   %eax
 80492c9:	e8 02 f6 ff ff       	call   80488d0 <puts@plt>
 80492ce:	83 c4 10             	add    $0x10,%esp
 80492d1:	83 ec 0c             	sub    $0xc,%esp
 80492d4:	6a 03                	push   $0x3
 80492d6:	e8 75 f5 ff ff       	call   8048850 <sleep@plt>
 80492db:	83 c4 10             	add    $0x10,%esp
 80492de:	83 ec 0c             	sub    $0xc,%esp
 80492e1:	8d 83 18 dc ff ff    	lea    -0x23e8(%ebx),%eax
 80492e7:	50                   	push   %eax
 80492e8:	e8 03 f5 ff ff       	call   80487f0 <printf@plt>
 80492ed:	83 c4 10             	add    $0x10,%esp
 80492f0:	8b 83 fc ff ff ff    	mov    -0x4(%ebx),%eax
 80492f6:	8b 00                	mov    (%eax),%eax
 80492f8:	83 ec 0c             	sub    $0xc,%esp
 80492fb:	50                   	push   %eax
 80492fc:	e8 ff f4 ff ff       	call   8048800 <fflush@plt>
 8049301:	83 c4 10             	add    $0x10,%esp
 8049304:	83 ec 0c             	sub    $0xc,%esp
 8049307:	6a 01                	push   $0x1
 8049309:	e8 42 f5 ff ff       	call   8048850 <sleep@plt>
 804930e:	83 c4 10             	add    $0x10,%esp
 8049311:	83 ec 0c             	sub    $0xc,%esp
 8049314:	8d 83 20 dc ff ff    	lea    -0x23e0(%ebx),%eax
 804931a:	50                   	push   %eax
 804931b:	e8 b0 f5 ff ff       	call   80488d0 <puts@plt>
 8049320:	83 c4 10             	add    $0x10,%esp
 8049323:	83 ec 0c             	sub    $0xc,%esp
 8049326:	6a 10                	push   $0x10
 8049328:	e8 b3 f5 ff ff       	call   80488e0 <exit@plt>

0804932d <invalid_phase>:
 804932d:	55                   	push   %ebp
 804932e:	89 e5                	mov    %esp,%ebp
 8049330:	53                   	push   %ebx
 8049331:	83 ec 04             	sub    $0x4,%esp
 8049334:	e8 07 f7 ff ff       	call   8048a40 <__x86.get_pc_thunk.bx>
 8049339:	81 c3 c7 3c 00 00    	add    $0x3cc7,%ebx
 804933f:	83 ec 08             	sub    $0x8,%esp
 8049342:	ff 75 08             	pushl  0x8(%ebp)
 8049345:	8d 83 28 dc ff ff    	lea    -0x23d8(%ebx),%eax
 804934b:	50                   	push   %eax
 804934c:	e8 9f f4 ff ff       	call   80487f0 <printf@plt>
 8049351:	83 c4 10             	add    $0x10,%esp
 8049354:	83 ec 0c             	sub    $0xc,%esp
 8049357:	6a 08                	push   $0x8
 8049359:	e8 82 f5 ff ff       	call   80488e0 <exit@plt>

0804935e <read_six_numbers>:
 804935e:	55                   	push   %ebp
 804935f:	89 e5                	mov    %esp,%ebp
 8049361:	57                   	push   %edi
 8049362:	56                   	push   %esi
 8049363:	53                   	push   %ebx
 8049364:	83 ec 1c             	sub    $0x1c,%esp
 8049367:	e8 3d ff ff ff       	call   80492a9 <__x86.get_pc_thunk.ax>
 804936c:	05 94 3c 00 00       	add    $0x3c94,%eax
 8049371:	8b 55 0c             	mov    0xc(%ebp),%edx
 8049374:	8d 7a 14             	lea    0x14(%edx),%edi
 8049377:	8b 55 0c             	mov    0xc(%ebp),%edx
 804937a:	8d 72 10             	lea    0x10(%edx),%esi
 804937d:	8b 55 0c             	mov    0xc(%ebp),%edx
 8049380:	8d 5a 0c             	lea    0xc(%edx),%ebx
 8049383:	8b 55 0c             	mov    0xc(%ebp),%edx
 8049386:	8d 4a 08             	lea    0x8(%edx),%ecx
 8049389:	8b 55 0c             	mov    0xc(%ebp),%edx
 804938c:	83 c2 04             	add    $0x4,%edx
 804938f:	57                   	push   %edi
 8049390:	56                   	push   %esi
 8049391:	53                   	push   %ebx
 8049392:	51                   	push   %ecx
 8049393:	52                   	push   %edx
 8049394:	ff 75 0c             	pushl  0xc(%ebp)
 8049397:	8d 90 39 dc ff ff    	lea    -0x23c7(%eax),%edx
 804939d:	52                   	push   %edx
 804939e:	ff 75 08             	pushl  0x8(%ebp)
 80493a1:	89 c3                	mov    %eax,%ebx
 80493a3:	e8 98 f5 ff ff       	call   8048940 <__isoc99_sscanf@plt>
 80493a8:	83 c4 20             	add    $0x20,%esp
 80493ab:	89 45 e4             	mov    %eax,-0x1c(%ebp)
 80493ae:	83 7d e4 05          	cmpl   $0x5,-0x1c(%ebp)
 80493b2:	7f 05                	jg     80493b9 <read_six_numbers+0x5b>
 80493b4:	e8 76 05 00 00       	call   804992f <explode_bomb>
 80493b9:	90                   	nop
 80493ba:	8d 65 f4             	lea    -0xc(%ebp),%esp
 80493bd:	5b                   	pop    %ebx
 80493be:	5e                   	pop    %esi
 80493bf:	5f                   	pop    %edi
 80493c0:	5d                   	pop    %ebp
 80493c1:	c3                   	ret    

080493c2 <string_length>:
 80493c2:	55                   	push   %ebp
 80493c3:	89 e5                	mov    %esp,%ebp
 80493c5:	83 ec 10             	sub    $0x10,%esp
 80493c8:	e8 dc fe ff ff       	call   80492a9 <__x86.get_pc_thunk.ax>
 80493cd:	05 33 3c 00 00       	add    $0x3c33,%eax
 80493d2:	8b 45 08             	mov    0x8(%ebp),%eax
 80493d5:	89 45 fc             	mov    %eax,-0x4(%ebp)
 80493d8:	c7 45 f8 00 00 00 00 	movl   $0x0,-0x8(%ebp)
 80493df:	eb 08                	jmp    80493e9 <string_length+0x27>
 80493e1:	83 45 fc 01          	addl   $0x1,-0x4(%ebp)
 80493e5:	83 45 f8 01          	addl   $0x1,-0x8(%ebp)
 80493e9:	8b 45 fc             	mov    -0x4(%ebp),%eax
 80493ec:	0f b6 00             	movzbl (%eax),%eax
 80493ef:	84 c0                	test   %al,%al
 80493f1:	75 ee                	jne    80493e1 <string_length+0x1f>
 80493f3:	8b 45 f8             	mov    -0x8(%ebp),%eax
 80493f6:	c9                   	leave  
 80493f7:	c3                   	ret    

080493f8 <strings_not_equal>:
 80493f8:	55                   	push   %ebp
 80493f9:	89 e5                	mov    %esp,%ebp
 80493fb:	53                   	push   %ebx
 80493fc:	83 ec 10             	sub    $0x10,%esp
 80493ff:	e8 a5 fe ff ff       	call   80492a9 <__x86.get_pc_thunk.ax>
 8049404:	05 fc 3b 00 00       	add    $0x3bfc,%eax
 8049409:	ff 75 08             	pushl  0x8(%ebp)
 804940c:	e8 b1 ff ff ff       	call   80493c2 <string_length>
 8049411:	83 c4 04             	add    $0x4,%esp
 8049414:	89 c3                	mov    %eax,%ebx
 8049416:	ff 75 0c             	pushl  0xc(%ebp)
 8049419:	e8 a4 ff ff ff       	call   80493c2 <string_length>
 804941e:	83 c4 04             	add    $0x4,%esp
 8049421:	39 c3                	cmp    %eax,%ebx
 8049423:	74 07                	je     804942c <strings_not_equal+0x34>
 8049425:	b8 01 00 00 00       	mov    $0x1,%eax
 804942a:	eb 3c                	jmp    8049468 <strings_not_equal+0x70>
 804942c:	8b 45 08             	mov    0x8(%ebp),%eax
 804942f:	89 45 f4             	mov    %eax,-0xc(%ebp)
 8049432:	8b 45 0c             	mov    0xc(%ebp),%eax
 8049435:	89 45 f8             	mov    %eax,-0x8(%ebp)
 8049438:	eb 1f                	jmp    8049459 <strings_not_equal+0x61>
 804943a:	8b 45 f4             	mov    -0xc(%ebp),%eax
 804943d:	0f b6 10             	movzbl (%eax),%edx
 8049440:	8b 45 f8             	mov    -0x8(%ebp),%eax
 8049443:	0f b6 00             	movzbl (%eax),%eax
 8049446:	38 c2                	cmp    %al,%dl
 8049448:	74 07                	je     8049451 <strings_not_equal+0x59>
 804944a:	b8 01 00 00 00       	mov    $0x1,%eax
 804944f:	eb 17                	jmp    8049468 <strings_not_equal+0x70>
 8049451:	83 45 f4 01          	addl   $0x1,-0xc(%ebp)
 8049455:	83 45 f8 01          	addl   $0x1,-0x8(%ebp)
 8049459:	8b 45 f4             	mov    -0xc(%ebp),%eax
 804945c:	0f b6 00             	movzbl (%eax),%eax
 804945f:	84 c0                	test   %al,%al
 8049461:	75 d7                	jne    804943a <strings_not_equal+0x42>
 8049463:	b8 00 00 00 00       	mov    $0x0,%eax
 8049468:	8b 5d fc             	mov    -0x4(%ebp),%ebx
 804946b:	c9                   	leave  
 804946c:	c3                   	ret    

0804946d <initialize_bomb>:
 804946d:	55                   	push   %ebp
 804946e:	89 e5                	mov    %esp,%ebp
 8049470:	53                   	push   %ebx
 8049471:	81 ec 54 20 00 00    	sub    $0x2054,%esp
 8049477:	e8 c4 f5 ff ff       	call   8048a40 <__x86.get_pc_thunk.bx>
 804947c:	81 c3 84 3b 00 00    	add    $0x3b84,%ebx
 8049482:	65 a1 14 00 00 00    	mov    %gs:0x14,%eax
 8049488:	89 45 f4             	mov    %eax,-0xc(%ebp)
 804948b:	31 c0                	xor    %eax,%eax
 804948d:	c7 85 b0 df ff ff 00 	movl   $0x0,-0x2050(%ebp)
 8049494:	00 00 00 
 8049497:	83 ec 08             	sub    $0x8,%esp
 804949a:	8d 83 ad c2 ff ff    	lea    -0x3d53(%ebx),%eax
 80494a0:	50                   	push   %eax
 80494a1:	6a 02                	push   $0x2
 80494a3:	e8 98 f3 ff ff       	call   8048840 <signal@plt>
 80494a8:	83 c4 10             	add    $0x10,%esp
 80494ab:	83 ec 08             	sub    $0x8,%esp
 80494ae:	6a 40                	push   $0x40
 80494b0:	8d 85 b4 df ff ff    	lea    -0x204c(%ebp),%eax
 80494b6:	50                   	push   %eax
 80494b7:	e8 f4 f3 ff ff       	call   80488b0 <gethostname@plt>
 80494bc:	83 c4 10             	add    $0x10,%esp
 80494bf:	85 c0                	test   %eax,%eax
 80494c1:	74 1c                	je     80494df <initialize_bomb+0x72>
 80494c3:	83 ec 0c             	sub    $0xc,%esp
 80494c6:	8d 83 4c dc ff ff    	lea    -0x23b4(%ebx),%eax
 80494cc:	50                   	push   %eax
 80494cd:	e8 fe f3 ff ff       	call   80488d0 <puts@plt>
 80494d2:	83 c4 10             	add    $0x10,%esp
 80494d5:	83 ec 0c             	sub    $0xc,%esp
 80494d8:	6a 08                	push   $0x8
 80494da:	e8 01 f4 ff ff       	call   80488e0 <exit@plt>
 80494df:	c7 85 ac df ff ff 00 	movl   $0x0,-0x2054(%ebp)
 80494e6:	00 00 00 
 80494e9:	eb 37                	jmp    8049522 <initialize_bomb+0xb5>
 80494eb:	8b 85 ac df ff ff    	mov    -0x2054(%ebp),%eax
 80494f1:	8b 84 83 40 02 00 00 	mov    0x240(%ebx,%eax,4),%eax
 80494f8:	83 ec 08             	sub    $0x8,%esp
 80494fb:	8d 95 b4 df ff ff    	lea    -0x204c(%ebp),%edx
 8049501:	52                   	push   %edx
 8049502:	50                   	push   %eax
 8049503:	e8 28 f4 ff ff       	call   8048930 <strcasecmp@plt>
 8049508:	83 c4 10             	add    $0x10,%esp
 804950b:	85 c0                	test   %eax,%eax
 804950d:	75 0c                	jne    804951b <initialize_bomb+0xae>
 804950f:	c7 85 b0 df ff ff 01 	movl   $0x1,-0x2050(%ebp)
 8049516:	00 00 00 
 8049519:	eb 18                	jmp    8049533 <initialize_bomb+0xc6>
 804951b:	83 85 ac df ff ff 01 	addl   $0x1,-0x2054(%ebp)
 8049522:	8b 85 ac df ff ff    	mov    -0x2054(%ebp),%eax
 8049528:	8b 84 83 40 02 00 00 	mov    0x240(%ebx,%eax,4),%eax
 804952f:	85 c0                	test   %eax,%eax
 8049531:	75 b8                	jne    80494eb <initialize_bomb+0x7e>
 8049533:	c7 85 b0 df ff ff 01 	movl   $0x1,-0x2050(%ebp)
 804953a:	00 00 00 
 804953d:	83 bd b0 df ff ff 00 	cmpl   $0x0,-0x2050(%ebp)
 8049544:	75 1c                	jne    8049562 <initialize_bomb+0xf5>
 8049546:	83 ec 0c             	sub    $0xc,%esp
 8049549:	8d 83 84 dc ff ff    	lea    -0x237c(%ebx),%eax
 804954f:	50                   	push   %eax
 8049550:	e8 7b f3 ff ff       	call   80488d0 <puts@plt>
 8049555:	83 c4 10             	add    $0x10,%esp
 8049558:	83 ec 0c             	sub    $0xc,%esp
 804955b:	6a 08                	push   $0x8
 804955d:	e8 7e f3 ff ff       	call   80488e0 <exit@plt>
 8049562:	83 ec 0c             	sub    $0xc,%esp
 8049565:	8d 85 f4 df ff ff    	lea    -0x200c(%ebp),%eax
 804956b:	50                   	push   %eax
 804956c:	e8 ef 10 00 00       	call   804a660 <init_driver>
 8049571:	83 c4 10             	add    $0x10,%esp
 8049574:	85 c0                	test   %eax,%eax
 8049576:	79 23                	jns    804959b <initialize_bomb+0x12e>
 8049578:	83 ec 08             	sub    $0x8,%esp
 804957b:	8d 85 f4 df ff ff    	lea    -0x200c(%ebp),%eax
 8049581:	50                   	push   %eax
 8049582:	8d 83 b9 dc ff ff    	lea    -0x2347(%ebx),%eax
 8049588:	50                   	push   %eax
 8049589:	e8 62 f2 ff ff       	call   80487f0 <printf@plt>
 804958e:	83 c4 10             	add    $0x10,%esp
 8049591:	83 ec 0c             	sub    $0xc,%esp
 8049594:	6a 08                	push   $0x8
 8049596:	e8 45 f3 ff ff       	call   80488e0 <exit@plt>
 804959b:	90                   	nop
 804959c:	8b 45 f4             	mov    -0xc(%ebp),%eax
 804959f:	65 33 05 14 00 00 00 	xor    %gs:0x14,%eax
 80495a6:	74 05                	je     80495ad <initialize_bomb+0x140>
 80495a8:	e8 e3 13 00 00       	call   804a990 <__stack_chk_fail_local>
 80495ad:	8b 5d fc             	mov    -0x4(%ebp),%ebx
 80495b0:	c9                   	leave  
 80495b1:	c3                   	ret    

080495b2 <initialize_bomb_solve>:
 80495b2:	55                   	push   %ebp
 80495b3:	89 e5                	mov    %esp,%ebp
 80495b5:	e8 ef fc ff ff       	call   80492a9 <__x86.get_pc_thunk.ax>
 80495ba:	05 46 3a 00 00       	add    $0x3a46,%eax
 80495bf:	90                   	nop
 80495c0:	5d                   	pop    %ebp
 80495c1:	c3                   	ret    

080495c2 <blank_line>:
 80495c2:	55                   	push   %ebp
 80495c3:	89 e5                	mov    %esp,%ebp
 80495c5:	53                   	push   %ebx
 80495c6:	83 ec 04             	sub    $0x4,%esp
 80495c9:	e8 72 f4 ff ff       	call   8048a40 <__x86.get_pc_thunk.bx>
 80495ce:	81 c3 32 3a 00 00    	add    $0x3a32,%ebx
 80495d4:	eb 30                	jmp    8049606 <blank_line+0x44>
 80495d6:	e8 f5 f3 ff ff       	call   80489d0 <__ctype_b_loc@plt>
 80495db:	8b 08                	mov    (%eax),%ecx
 80495dd:	8b 45 08             	mov    0x8(%ebp),%eax
 80495e0:	8d 50 01             	lea    0x1(%eax),%edx
 80495e3:	89 55 08             	mov    %edx,0x8(%ebp)
 80495e6:	0f b6 00             	movzbl (%eax),%eax
 80495e9:	0f be c0             	movsbl %al,%eax
 80495ec:	01 c0                	add    %eax,%eax
 80495ee:	01 c8                	add    %ecx,%eax
 80495f0:	0f b7 00             	movzwl (%eax),%eax
 80495f3:	0f b7 c0             	movzwl %ax,%eax
 80495f6:	25 00 20 00 00       	and    $0x2000,%eax
 80495fb:	85 c0                	test   %eax,%eax
 80495fd:	75 07                	jne    8049606 <blank_line+0x44>
 80495ff:	b8 00 00 00 00       	mov    $0x0,%eax
 8049604:	eb 0f                	jmp    8049615 <blank_line+0x53>
 8049606:	8b 45 08             	mov    0x8(%ebp),%eax
 8049609:	0f b6 00             	movzbl (%eax),%eax
 804960c:	84 c0                	test   %al,%al
 804960e:	75 c6                	jne    80495d6 <blank_line+0x14>
 8049610:	b8 01 00 00 00       	mov    $0x1,%eax
 8049615:	83 c4 04             	add    $0x4,%esp
 8049618:	5b                   	pop    %ebx
 8049619:	5d                   	pop    %ebp
 804961a:	c3                   	ret    

0804961b <skip>:
 804961b:	55                   	push   %ebp
 804961c:	89 e5                	mov    %esp,%ebp
 804961e:	53                   	push   %ebx
 804961f:	83 ec 14             	sub    $0x14,%esp
 8049622:	e8 19 f4 ff ff       	call   8048a40 <__x86.get_pc_thunk.bx>
 8049627:	81 c3 d9 39 00 00    	add    $0x39d9,%ebx
 804962d:	c7 c0 48 d4 04 08    	mov    $0x804d448,%eax
 8049633:	8b 08                	mov    (%eax),%ecx
 8049635:	8b 93 44 04 00 00    	mov    0x444(%ebx),%edx
 804963b:	89 d0                	mov    %edx,%eax
 804963d:	c1 e0 02             	shl    $0x2,%eax
 8049640:	01 d0                	add    %edx,%eax
 8049642:	c1 e0 04             	shl    $0x4,%eax
 8049645:	c7 c2 60 d4 04 08    	mov    $0x804d460,%edx
 804964b:	01 d0                	add    %edx,%eax
 804964d:	83 ec 04             	sub    $0x4,%esp
 8049650:	51                   	push   %ecx
 8049651:	6a 50                	push   $0x50
 8049653:	50                   	push   %eax
 8049654:	e8 d7 f1 ff ff       	call   8048830 <fgets@plt>
 8049659:	83 c4 10             	add    $0x10,%esp
 804965c:	89 45 f4             	mov    %eax,-0xc(%ebp)
 804965f:	83 7d f4 00          	cmpl   $0x0,-0xc(%ebp)
 8049663:	74 12                	je     8049677 <skip+0x5c>
 8049665:	83 ec 0c             	sub    $0xc,%esp
 8049668:	ff 75 f4             	pushl  -0xc(%ebp)
 804966b:	e8 52 ff ff ff       	call   80495c2 <blank_line>
 8049670:	83 c4 10             	add    $0x10,%esp
 8049673:	85 c0                	test   %eax,%eax
 8049675:	75 b6                	jne    804962d <skip+0x12>
 8049677:	8b 45 f4             	mov    -0xc(%ebp),%eax
 804967a:	8b 5d fc             	mov    -0x4(%ebp),%ebx
 804967d:	c9                   	leave  
 804967e:	c3                   	ret    

0804967f <read_line>:
 804967f:	55                   	push   %ebp
 8049680:	89 e5                	mov    %esp,%ebp
 8049682:	56                   	push   %esi
 8049683:	53                   	push   %ebx
 8049684:	83 ec 10             	sub    $0x10,%esp
 8049687:	e8 b4 f3 ff ff       	call   8048a40 <__x86.get_pc_thunk.bx>
 804968c:	81 c3 74 39 00 00    	add    $0x3974,%ebx
 8049692:	e8 84 ff ff ff       	call   804961b <skip>
 8049697:	89 45 f0             	mov    %eax,-0x10(%ebp)
 804969a:	83 7d f0 00          	cmpl   $0x0,-0x10(%ebp)
 804969e:	0f 85 8a 00 00 00    	jne    804972e <read_line+0xaf>
 80496a4:	c7 c0 48 d4 04 08    	mov    $0x804d448,%eax
 80496aa:	8b 10                	mov    (%eax),%edx
 80496ac:	8b 83 f8 ff ff ff    	mov    -0x8(%ebx),%eax
 80496b2:	8b 00                	mov    (%eax),%eax
 80496b4:	39 c2                	cmp    %eax,%edx
 80496b6:	75 1c                	jne    80496d4 <read_line+0x55>
 80496b8:	83 ec 0c             	sub    $0xc,%esp
 80496bb:	8d 83 d3 dc ff ff    	lea    -0x232d(%ebx),%eax
 80496c1:	50                   	push   %eax
 80496c2:	e8 09 f2 ff ff       	call   80488d0 <puts@plt>
 80496c7:	83 c4 10             	add    $0x10,%esp
 80496ca:	83 ec 0c             	sub    $0xc,%esp
 80496cd:	6a 08                	push   $0x8
 80496cf:	e8 0c f2 ff ff       	call   80488e0 <exit@plt>
 80496d4:	83 ec 0c             	sub    $0xc,%esp
 80496d7:	8d 83 f1 dc ff ff    	lea    -0x230f(%ebx),%eax
 80496dd:	50                   	push   %eax
 80496de:	e8 dd f1 ff ff       	call   80488c0 <getenv@plt>
 80496e3:	83 c4 10             	add    $0x10,%esp
 80496e6:	85 c0                	test   %eax,%eax
 80496e8:	74 0a                	je     80496f4 <read_line+0x75>
 80496ea:	83 ec 0c             	sub    $0xc,%esp
 80496ed:	6a 00                	push   $0x0
 80496ef:	e8 ec f1 ff ff       	call   80488e0 <exit@plt>
 80496f4:	8b 83 f8 ff ff ff    	mov    -0x8(%ebx),%eax
 80496fa:	8b 10                	mov    (%eax),%edx
 80496fc:	c7 c0 48 d4 04 08    	mov    $0x804d448,%eax
 8049702:	89 10                	mov    %edx,(%eax)
 8049704:	e8 12 ff ff ff       	call   804961b <skip>
 8049709:	89 45 f0             	mov    %eax,-0x10(%ebp)
 804970c:	83 7d f0 00          	cmpl   $0x0,-0x10(%ebp)
 8049710:	75 1c                	jne    804972e <read_line+0xaf>
 8049712:	83 ec 0c             	sub    $0xc,%esp
 8049715:	8d 83 d3 dc ff ff    	lea    -0x232d(%ebx),%eax
 804971b:	50                   	push   %eax
 804971c:	e8 af f1 ff ff       	call   80488d0 <puts@plt>
 8049721:	83 c4 10             	add    $0x10,%esp
 8049724:	83 ec 0c             	sub    $0xc,%esp
 8049727:	6a 00                	push   $0x0
 8049729:	e8 b2 f1 ff ff       	call   80488e0 <exit@plt>
 804972e:	8b 93 44 04 00 00    	mov    0x444(%ebx),%edx
 8049734:	89 d0                	mov    %edx,%eax
 8049736:	c1 e0 02             	shl    $0x2,%eax
 8049739:	01 d0                	add    %edx,%eax
 804973b:	c1 e0 04             	shl    $0x4,%eax
 804973e:	c7 c2 60 d4 04 08    	mov    $0x804d460,%edx
 8049744:	01 d0                	add    %edx,%eax
 8049746:	83 ec 0c             	sub    $0xc,%esp
 8049749:	50                   	push   %eax
 804974a:	e8 a1 f1 ff ff       	call   80488f0 <strlen@plt>
 804974f:	83 c4 10             	add    $0x10,%esp
 8049752:	89 45 f4             	mov    %eax,-0xc(%ebp)
 8049755:	83 7d f4 4e          	cmpl   $0x4e,-0xc(%ebp)
 8049759:	7e 53                	jle    80497ae <read_line+0x12f>
 804975b:	83 ec 0c             	sub    $0xc,%esp
 804975e:	8d 83 fc dc ff ff    	lea    -0x2304(%ebx),%eax
 8049764:	50                   	push   %eax
 8049765:	e8 66 f1 ff ff       	call   80488d0 <puts@plt>
 804976a:	83 c4 10             	add    $0x10,%esp
 804976d:	8b 93 44 04 00 00    	mov    0x444(%ebx),%edx
 8049773:	8d 42 01             	lea    0x1(%edx),%eax
 8049776:	89 83 44 04 00 00    	mov    %eax,0x444(%ebx)
 804977c:	89 d0                	mov    %edx,%eax
 804977e:	c1 e0 02             	shl    $0x2,%eax
 8049781:	01 d0                	add    %edx,%eax
 8049783:	c1 e0 04             	shl    $0x4,%eax
 8049786:	c7 c2 60 d4 04 08    	mov    $0x804d460,%edx
 804978c:	01 d0                	add    %edx,%eax
 804978e:	c7 00 2a 2a 2a 74    	movl   $0x742a2a2a,(%eax)
 8049794:	c7 40 04 72 75 6e 63 	movl   $0x636e7572,0x4(%eax)
 804979b:	c7 40 08 61 74 65 64 	movl   $0x64657461,0x8(%eax)
 80497a2:	c7 40 0c 2a 2a 2a 00 	movl   $0x2a2a2a,0xc(%eax)
 80497a9:	e8 81 01 00 00       	call   804992f <explode_bomb>
 80497ae:	8b 93 44 04 00 00    	mov    0x444(%ebx),%edx
 80497b4:	8b 45 f4             	mov    -0xc(%ebp),%eax
 80497b7:	8d 70 ff             	lea    -0x1(%eax),%esi
 80497ba:	c7 c1 60 d4 04 08    	mov    $0x804d460,%ecx
 80497c0:	89 d0                	mov    %edx,%eax
 80497c2:	c1 e0 02             	shl    $0x2,%eax
 80497c5:	01 d0                	add    %edx,%eax
 80497c7:	c1 e0 04             	shl    $0x4,%eax
 80497ca:	01 c8                	add    %ecx,%eax
 80497cc:	01 f0                	add    %esi,%eax
 80497ce:	c6 00 00             	movb   $0x0,(%eax)
 80497d1:	8b 93 44 04 00 00    	mov    0x444(%ebx),%edx
 80497d7:	8d 42 01             	lea    0x1(%edx),%eax
 80497da:	89 83 44 04 00 00    	mov    %eax,0x444(%ebx)
 80497e0:	89 d0                	mov    %edx,%eax
 80497e2:	c1 e0 02             	shl    $0x2,%eax
 80497e5:	01 d0                	add    %edx,%eax
 80497e7:	c1 e0 04             	shl    $0x4,%eax
 80497ea:	c7 c2 60 d4 04 08    	mov    $0x804d460,%edx
 80497f0:	01 d0                	add    %edx,%eax
 80497f2:	8d 65 f8             	lea    -0x8(%ebp),%esp
 80497f5:	5b                   	pop    %ebx
 80497f6:	5e                   	pop    %esi
 80497f7:	5d                   	pop    %ebp
 80497f8:	c3                   	ret    

080497f9 <send_msg>:
 80497f9:	55                   	push   %ebp
 80497fa:	89 e5                	mov    %esp,%ebp
 80497fc:	56                   	push   %esi
 80497fd:	53                   	push   %ebx
 80497fe:	81 ec 10 40 00 00    	sub    $0x4010,%esp
 8049804:	e8 37 f2 ff ff       	call   8048a40 <__x86.get_pc_thunk.bx>
 8049809:	81 c3 f7 37 00 00    	add    $0x37f7,%ebx
 804980f:	65 a1 14 00 00 00    	mov    %gs:0x14,%eax
 8049815:	89 45 f4             	mov    %eax,-0xc(%ebp)
 8049818:	31 c0                	xor    %eax,%eax
 804981a:	8b 83 44 04 00 00    	mov    0x444(%ebx),%eax
 8049820:	8d 50 ff             	lea    -0x1(%eax),%edx
 8049823:	89 d0                	mov    %edx,%eax
 8049825:	c1 e0 02             	shl    $0x2,%eax
 8049828:	01 d0                	add    %edx,%eax
 804982a:	c1 e0 04             	shl    $0x4,%eax
 804982d:	c7 c2 60 d4 04 08    	mov    $0x804d460,%edx
 8049833:	01 d0                	add    %edx,%eax
 8049835:	83 ec 0c             	sub    $0xc,%esp
 8049838:	50                   	push   %eax
 8049839:	e8 b2 f0 ff ff       	call   80488f0 <strlen@plt>
 804983e:	83 c4 10             	add    $0x10,%esp
 8049841:	83 c0 64             	add    $0x64,%eax
 8049844:	3d 00 20 00 00       	cmp    $0x2000,%eax
 8049849:	76 1c                	jbe    8049867 <send_msg+0x6e>
 804984b:	83 ec 0c             	sub    $0xc,%esp
 804984e:	8d 83 18 dd ff ff    	lea    -0x22e8(%ebx),%eax
 8049854:	50                   	push   %eax
 8049855:	e8 96 ef ff ff       	call   80487f0 <printf@plt>
 804985a:	83 c4 10             	add    $0x10,%esp
 804985d:	83 ec 0c             	sub    $0xc,%esp
 8049860:	6a 08                	push   $0x8
 8049862:	e8 79 f0 ff ff       	call   80488e0 <exit@plt>
 8049867:	8b 83 44 04 00 00    	mov    0x444(%ebx),%eax
 804986d:	8d 50 ff             	lea    -0x1(%eax),%edx
 8049870:	89 d0                	mov    %edx,%eax
 8049872:	c1 e0 02             	shl    $0x2,%eax
 8049875:	01 d0                	add    %edx,%eax
 8049877:	c1 e0 04             	shl    $0x4,%eax
 804987a:	c7 c2 60 d4 04 08    	mov    $0x804d460,%edx
 8049880:	8d 34 10             	lea    (%eax,%edx,1),%esi
 8049883:	8b 8b 44 04 00 00    	mov    0x444(%ebx),%ecx
 8049889:	83 7d 08 00          	cmpl   $0x0,0x8(%ebp)
 804988d:	74 08                	je     8049897 <send_msg+0x9e>
 804988f:	8d 83 3a dd ff ff    	lea    -0x22c6(%ebx),%eax
 8049895:	eb 06                	jmp    804989d <send_msg+0xa4>
 8049897:	8d 83 42 dd ff ff    	lea    -0x22be(%ebx),%eax
 804989d:	c7 c2 c0 d0 04 08    	mov    $0x804d0c0,%edx
 80498a3:	8b 12                	mov    (%edx),%edx
 80498a5:	83 ec 08             	sub    $0x8,%esp
 80498a8:	56                   	push   %esi
 80498a9:	51                   	push   %ecx
 80498aa:	50                   	push   %eax
 80498ab:	52                   	push   %edx
 80498ac:	8d 83 4b dd ff ff    	lea    -0x22b5(%ebx),%eax
 80498b2:	50                   	push   %eax
 80498b3:	8d 85 f4 bf ff ff    	lea    -0x400c(%ebp),%eax
 80498b9:	50                   	push   %eax
 80498ba:	e8 b1 f0 ff ff       	call   8048970 <sprintf@plt>
 80498bf:	83 c4 20             	add    $0x20,%esp
 80498c2:	83 ec 0c             	sub    $0xc,%esp
 80498c5:	8d 85 f4 df ff ff    	lea    -0x200c(%ebp),%eax
 80498cb:	50                   	push   %eax
 80498cc:	6a 00                	push   $0x0
 80498ce:	8d 85 f4 bf ff ff    	lea    -0x400c(%ebp),%eax
 80498d4:	50                   	push   %eax
 80498d5:	c7 c0 d4 d0 04 08    	mov    $0x804d0d4,%eax
 80498db:	50                   	push   %eax
 80498dc:	c7 c0 c4 d0 04 08    	mov    $0x804d0c4,%eax
 80498e2:	50                   	push   %eax
 80498e3:	e8 96 0f 00 00       	call   804a87e <driver_post>
 80498e8:	83 c4 20             	add    $0x20,%esp
 80498eb:	89 85 f0 bf ff ff    	mov    %eax,-0x4010(%ebp)
 80498f1:	83 bd f0 bf ff ff 00 	cmpl   $0x0,-0x4010(%ebp)
 80498f8:	79 1c                	jns    8049916 <send_msg+0x11d>
 80498fa:	83 ec 0c             	sub    $0xc,%esp
 80498fd:	8d 85 f4 df ff ff    	lea    -0x200c(%ebp),%eax
 8049903:	50                   	push   %eax
 8049904:	e8 c7 ef ff ff       	call   80488d0 <puts@plt>
 8049909:	83 c4 10             	add    $0x10,%esp
 804990c:	83 ec 0c             	sub    $0xc,%esp
 804990f:	6a 00                	push   $0x0
 8049911:	e8 ca ef ff ff       	call   80488e0 <exit@plt>
 8049916:	90                   	nop
 8049917:	8b 45 f4             	mov    -0xc(%ebp),%eax
 804991a:	65 33 05 14 00 00 00 	xor    %gs:0x14,%eax
 8049921:	74 05                	je     8049928 <send_msg+0x12f>
 8049923:	e8 68 10 00 00       	call   804a990 <__stack_chk_fail_local>
 8049928:	8d 65 f8             	lea    -0x8(%ebp),%esp
 804992b:	5b                   	pop    %ebx
 804992c:	5e                   	pop    %esi
 804992d:	5d                   	pop    %ebp
 804992e:	c3                   	ret    

0804992f <explode_bomb>:
 804992f:	55                   	push   %ebp
 8049930:	89 e5                	mov    %esp,%ebp
 8049932:	53                   	push   %ebx
 8049933:	83 ec 04             	sub    $0x4,%esp
 8049936:	e8 05 f1 ff ff       	call   8048a40 <__x86.get_pc_thunk.bx>
 804993b:	81 c3 c5 36 00 00    	add    $0x36c5,%ebx
 8049941:	83 ec 0c             	sub    $0xc,%esp
 8049944:	8d 83 57 dd ff ff    	lea    -0x22a9(%ebx),%eax
 804994a:	50                   	push   %eax
 804994b:	e8 80 ef ff ff       	call   80488d0 <puts@plt>
 8049950:	83 c4 10             	add    $0x10,%esp
 8049953:	83 ec 0c             	sub    $0xc,%esp
 8049956:	8d 83 60 dd ff ff    	lea    -0x22a0(%ebx),%eax
 804995c:	50                   	push   %eax
 804995d:	e8 6e ef ff ff       	call   80488d0 <puts@plt>
 8049962:	83 c4 10             	add    $0x10,%esp
 8049965:	83 ec 0c             	sub    $0xc,%esp
 8049968:	6a 00                	push   $0x0
 804996a:	e8 8a fe ff ff       	call   80497f9 <send_msg>
 804996f:	83 c4 10             	add    $0x10,%esp
 8049972:	83 ec 0c             	sub    $0xc,%esp
 8049975:	8d 83 78 dd ff ff    	lea    -0x2288(%ebx),%eax
 804997b:	50                   	push   %eax
 804997c:	e8 4f ef ff ff       	call   80488d0 <puts@plt>
 8049981:	83 c4 10             	add    $0x10,%esp
 8049984:	83 ec 0c             	sub    $0xc,%esp
 8049987:	6a 08                	push   $0x8
 8049989:	e8 52 ef ff ff       	call   80488e0 <exit@plt>

0804998e <phase_defused>:
 804998e:	55                   	push   %ebp
 804998f:	89 e5                	mov    %esp,%ebp
 8049991:	53                   	push   %ebx
 8049992:	83 ec 64             	sub    $0x64,%esp
 8049995:	e8 a6 f0 ff ff       	call   8048a40 <__x86.get_pc_thunk.bx>
 804999a:	81 c3 66 36 00 00    	add    $0x3666,%ebx
 80499a0:	65 a1 14 00 00 00    	mov    %gs:0x14,%eax
 80499a6:	89 45 f4             	mov    %eax,-0xc(%ebp)
 80499a9:	31 c0                	xor    %eax,%eax
 80499ab:	83 ec 0c             	sub    $0xc,%esp
 80499ae:	6a 01                	push   $0x1
 80499b0:	e8 44 fe ff ff       	call   80497f9 <send_msg>
 80499b5:	83 c4 10             	add    $0x10,%esp
 80499b8:	8b 83 44 04 00 00    	mov    0x444(%ebx),%eax
 80499be:	83 f8 06             	cmp    $0x6,%eax
 80499c1:	0f 85 9b 00 00 00    	jne    8049a62 <phase_defused+0xd4>
 80499c7:	83 ec 0c             	sub    $0xc,%esp
 80499ca:	8d 45 a4             	lea    -0x5c(%ebp),%eax
 80499cd:	50                   	push   %eax
 80499ce:	8d 45 9c             	lea    -0x64(%ebp),%eax
 80499d1:	50                   	push   %eax
 80499d2:	8d 45 98             	lea    -0x68(%ebp),%eax
 80499d5:	50                   	push   %eax
 80499d6:	8d 83 9b dd ff ff    	lea    -0x2265(%ebx),%eax
 80499dc:	50                   	push   %eax
 80499dd:	c7 c0 60 d4 04 08    	mov    $0x804d460,%eax
 80499e3:	8d 80 f0 00 00 00    	lea    0xf0(%eax),%eax
 80499e9:	50                   	push   %eax
 80499ea:	e8 51 ef ff ff       	call   8048940 <__isoc99_sscanf@plt>
 80499ef:	83 c4 20             	add    $0x20,%esp
 80499f2:	89 45 a0             	mov    %eax,-0x60(%ebp)
 80499f5:	83 7d a0 03          	cmpl   $0x3,-0x60(%ebp)
 80499f9:	75 43                	jne    8049a3e <phase_defused+0xb0>
 80499fb:	83 ec 08             	sub    $0x8,%esp
 80499fe:	8d 83 a4 dd ff ff    	lea    -0x225c(%ebx),%eax
 8049a04:	50                   	push   %eax
 8049a05:	8d 45 a4             	lea    -0x5c(%ebp),%eax
 8049a08:	50                   	push   %eax
 8049a09:	e8 ea f9 ff ff       	call   80493f8 <strings_not_equal>
 8049a0e:	83 c4 10             	add    $0x10,%esp
 8049a11:	85 c0                	test   %eax,%eax
 8049a13:	75 29                	jne    8049a3e <phase_defused+0xb0>
 8049a15:	83 ec 0c             	sub    $0xc,%esp
 8049a18:	8d 83 ac dd ff ff    	lea    -0x2254(%ebx),%eax
 8049a1e:	50                   	push   %eax
 8049a1f:	e8 ac ee ff ff       	call   80488d0 <puts@plt>
 8049a24:	83 c4 10             	add    $0x10,%esp
 8049a27:	83 ec 0c             	sub    $0xc,%esp
 8049a2a:	8d 83 d4 dd ff ff    	lea    -0x222c(%ebx),%eax
 8049a30:	50                   	push   %eax
 8049a31:	e8 9a ee ff ff       	call   80488d0 <puts@plt>
 8049a36:	83 c4 10             	add    $0x10,%esp
 8049a39:	e8 ec f7 ff ff       	call   804922a <secret_phase>
 8049a3e:	83 ec 0c             	sub    $0xc,%esp
 8049a41:	8d 83 0c de ff ff    	lea    -0x21f4(%ebx),%eax
 8049a47:	50                   	push   %eax
 8049a48:	e8 83 ee ff ff       	call   80488d0 <puts@plt>
 8049a4d:	83 c4 10             	add    $0x10,%esp
 8049a50:	83 ec 0c             	sub    $0xc,%esp
 8049a53:	8d 83 38 de ff ff    	lea    -0x21c8(%ebx),%eax
 8049a59:	50                   	push   %eax
 8049a5a:	e8 71 ee ff ff       	call   80488d0 <puts@plt>
 8049a5f:	83 c4 10             	add    $0x10,%esp
 8049a62:	90                   	nop
 8049a63:	8b 45 f4             	mov    -0xc(%ebp),%eax
 8049a66:	65 33 05 14 00 00 00 	xor    %gs:0x14,%eax
 8049a6d:	74 05                	je     8049a74 <phase_defused+0xe6>
 8049a6f:	e8 1c 0f 00 00       	call   804a990 <__stack_chk_fail_local>
 8049a74:	8b 5d fc             	mov    -0x4(%ebp),%ebx
 8049a77:	c9                   	leave  
 8049a78:	c3                   	ret    

08049a79 <sigalrm_handler>:
 8049a79:	55                   	push   %ebp
 8049a7a:	89 e5                	mov    %esp,%ebp
 8049a7c:	53                   	push   %ebx
 8049a7d:	83 ec 04             	sub    $0x4,%esp
 8049a80:	e8 bb ef ff ff       	call   8048a40 <__x86.get_pc_thunk.bx>
 8049a85:	81 c3 7b 35 00 00    	add    $0x357b,%ebx
 8049a8b:	8b 83 f0 ff ff ff    	mov    -0x10(%ebx),%eax
 8049a91:	8b 00                	mov    (%eax),%eax
 8049a93:	83 ec 04             	sub    $0x4,%esp
 8049a96:	6a 00                	push   $0x0
 8049a98:	8d 93 7c de ff ff    	lea    -0x2184(%ebx),%edx
 8049a9e:	52                   	push   %edx
 8049a9f:	50                   	push   %eax
 8049aa0:	e8 6b ee ff ff       	call   8048910 <fprintf@plt>
 8049aa5:	83 c4 10             	add    $0x10,%esp
 8049aa8:	83 ec 0c             	sub    $0xc,%esp
 8049aab:	6a 01                	push   $0x1
 8049aad:	e8 2e ee ff ff       	call   80488e0 <exit@plt>

08049ab2 <rio_readinitb>:
 8049ab2:	55                   	push   %ebp
 8049ab3:	89 e5                	mov    %esp,%ebp
 8049ab5:	e8 ef f7 ff ff       	call   80492a9 <__x86.get_pc_thunk.ax>
 8049aba:	05 46 35 00 00       	add    $0x3546,%eax
 8049abf:	8b 45 08             	mov    0x8(%ebp),%eax
 8049ac2:	8b 55 0c             	mov    0xc(%ebp),%edx
 8049ac5:	89 10                	mov    %edx,(%eax)
 8049ac7:	8b 45 08             	mov    0x8(%ebp),%eax
 8049aca:	c7 40 04 00 00 00 00 	movl   $0x0,0x4(%eax)
 8049ad1:	8b 45 08             	mov    0x8(%ebp),%eax
 8049ad4:	8d 50 0c             	lea    0xc(%eax),%edx
 8049ad7:	8b 45 08             	mov    0x8(%ebp),%eax
 8049ada:	89 50 08             	mov    %edx,0x8(%eax)
 8049add:	90                   	nop
 8049ade:	5d                   	pop    %ebp
 8049adf:	c3                   	ret    

08049ae0 <rio_read>:
 8049ae0:	55                   	push   %ebp
 8049ae1:	89 e5                	mov    %esp,%ebp
 8049ae3:	53                   	push   %ebx
 8049ae4:	83 ec 14             	sub    $0x14,%esp
 8049ae7:	e8 54 ef ff ff       	call   8048a40 <__x86.get_pc_thunk.bx>
 8049aec:	81 c3 14 35 00 00    	add    $0x3514,%ebx
 8049af2:	eb 5f                	jmp    8049b53 <rio_read+0x73>
 8049af4:	8b 45 08             	mov    0x8(%ebp),%eax
 8049af7:	8d 50 0c             	lea    0xc(%eax),%edx
 8049afa:	8b 45 08             	mov    0x8(%ebp),%eax
 8049afd:	8b 00                	mov    (%eax),%eax
 8049aff:	83 ec 04             	sub    $0x4,%esp
 8049b02:	68 00 20 00 00       	push   $0x2000
 8049b07:	52                   	push   %edx
 8049b08:	50                   	push   %eax
 8049b09:	e8 d2 ec ff ff       	call   80487e0 <read@plt>
 8049b0e:	83 c4 10             	add    $0x10,%esp
 8049b11:	89 c2                	mov    %eax,%edx
 8049b13:	8b 45 08             	mov    0x8(%ebp),%eax
 8049b16:	89 50 04             	mov    %edx,0x4(%eax)
 8049b19:	8b 45 08             	mov    0x8(%ebp),%eax
 8049b1c:	8b 40 04             	mov    0x4(%eax),%eax
 8049b1f:	85 c0                	test   %eax,%eax
 8049b21:	79 13                	jns    8049b36 <rio_read+0x56>
 8049b23:	e8 38 ee ff ff       	call   8048960 <__errno_location@plt>
 8049b28:	8b 00                	mov    (%eax),%eax
 8049b2a:	83 f8 04             	cmp    $0x4,%eax
 8049b2d:	74 24                	je     8049b53 <rio_read+0x73>
 8049b2f:	b8 ff ff ff ff       	mov    $0xffffffff,%eax
 8049b34:	eb 7f                	jmp    8049bb5 <rio_read+0xd5>
 8049b36:	8b 45 08             	mov    0x8(%ebp),%eax
 8049b39:	8b 40 04             	mov    0x4(%eax),%eax
 8049b3c:	85 c0                	test   %eax,%eax
 8049b3e:	75 07                	jne    8049b47 <rio_read+0x67>
 8049b40:	b8 00 00 00 00       	mov    $0x0,%eax
 8049b45:	eb 6e                	jmp    8049bb5 <rio_read+0xd5>
 8049b47:	8b 45 08             	mov    0x8(%ebp),%eax
 8049b4a:	8d 50 0c             	lea    0xc(%eax),%edx
 8049b4d:	8b 45 08             	mov    0x8(%ebp),%eax
 8049b50:	89 50 08             	mov    %edx,0x8(%eax)
 8049b53:	8b 45 08             	mov    0x8(%ebp),%eax
 8049b56:	8b 40 04             	mov    0x4(%eax),%eax
 8049b59:	85 c0                	test   %eax,%eax
 8049b5b:	7e 97                	jle    8049af4 <rio_read+0x14>
 8049b5d:	8b 45 10             	mov    0x10(%ebp),%eax
 8049b60:	89 45 f4             	mov    %eax,-0xc(%ebp)
 8049b63:	8b 45 08             	mov    0x8(%ebp),%eax
 8049b66:	8b 40 04             	mov    0x4(%eax),%eax
 8049b69:	39 45 10             	cmp    %eax,0x10(%ebp)
 8049b6c:	76 09                	jbe    8049b77 <rio_read+0x97>
 8049b6e:	8b 45 08             	mov    0x8(%ebp),%eax
 8049b71:	8b 40 04             	mov    0x4(%eax),%eax
 8049b74:	89 45 f4             	mov    %eax,-0xc(%ebp)
 8049b77:	8b 55 f4             	mov    -0xc(%ebp),%edx
 8049b7a:	8b 45 08             	mov    0x8(%ebp),%eax
 8049b7d:	8b 40 08             	mov    0x8(%eax),%eax
 8049b80:	83 ec 04             	sub    $0x4,%esp
 8049b83:	52                   	push   %edx
 8049b84:	50                   	push   %eax
 8049b85:	ff 75 0c             	pushl  0xc(%ebp)
 8049b88:	e8 83 ec ff ff       	call   8048810 <memcpy@plt>
 8049b8d:	83 c4 10             	add    $0x10,%esp
 8049b90:	8b 45 08             	mov    0x8(%ebp),%eax
 8049b93:	8b 50 08             	mov    0x8(%eax),%edx
 8049b96:	8b 45 f4             	mov    -0xc(%ebp),%eax
 8049b99:	01 c2                	add    %eax,%edx
 8049b9b:	8b 45 08             	mov    0x8(%ebp),%eax
 8049b9e:	89 50 08             	mov    %edx,0x8(%eax)
 8049ba1:	8b 45 08             	mov    0x8(%ebp),%eax
 8049ba4:	8b 40 04             	mov    0x4(%eax),%eax
 8049ba7:	2b 45 f4             	sub    -0xc(%ebp),%eax
 8049baa:	89 c2                	mov    %eax,%edx
 8049bac:	8b 45 08             	mov    0x8(%ebp),%eax
 8049baf:	89 50 04             	mov    %edx,0x4(%eax)
 8049bb2:	8b 45 f4             	mov    -0xc(%ebp),%eax
 8049bb5:	8b 5d fc             	mov    -0x4(%ebp),%ebx
 8049bb8:	c9                   	leave  
 8049bb9:	c3                   	ret    

08049bba <rio_readlineb>:
 8049bba:	55                   	push   %ebp
 8049bbb:	89 e5                	mov    %esp,%ebp
 8049bbd:	83 ec 38             	sub    $0x38,%esp
 8049bc0:	e8 e4 f6 ff ff       	call   80492a9 <__x86.get_pc_thunk.ax>
 8049bc5:	05 3b 34 00 00       	add    $0x343b,%eax
 8049bca:	8b 45 08             	mov    0x8(%ebp),%eax
 8049bcd:	89 45 d4             	mov    %eax,-0x2c(%ebp)
 8049bd0:	8b 45 0c             	mov    0xc(%ebp),%eax
 8049bd3:	89 45 d0             	mov    %eax,-0x30(%ebp)
 8049bd6:	65 a1 14 00 00 00    	mov    %gs:0x14,%eax
 8049bdc:	89 45 f4             	mov    %eax,-0xc(%ebp)
 8049bdf:	31 c0                	xor    %eax,%eax
 8049be1:	8b 45 d0             	mov    -0x30(%ebp),%eax
 8049be4:	89 45 ec             	mov    %eax,-0x14(%ebp)
 8049be7:	c7 45 e8 01 00 00 00 	movl   $0x1,-0x18(%ebp)
 8049bee:	eb 54                	jmp    8049c44 <rio_readlineb+0x8a>
 8049bf0:	83 ec 04             	sub    $0x4,%esp
 8049bf3:	6a 01                	push   $0x1
 8049bf5:	8d 45 e7             	lea    -0x19(%ebp),%eax
 8049bf8:	50                   	push   %eax
 8049bf9:	ff 75 d4             	pushl  -0x2c(%ebp)
 8049bfc:	e8 df fe ff ff       	call   8049ae0 <rio_read>
 8049c01:	83 c4 10             	add    $0x10,%esp
 8049c04:	89 45 f0             	mov    %eax,-0x10(%ebp)
 8049c07:	83 7d f0 01          	cmpl   $0x1,-0x10(%ebp)
 8049c0b:	75 19                	jne    8049c26 <rio_readlineb+0x6c>
 8049c0d:	8b 45 ec             	mov    -0x14(%ebp),%eax
 8049c10:	8d 50 01             	lea    0x1(%eax),%edx
 8049c13:	89 55 ec             	mov    %edx,-0x14(%ebp)
 8049c16:	0f b6 55 e7          	movzbl -0x19(%ebp),%edx
 8049c1a:	88 10                	mov    %dl,(%eax)
 8049c1c:	0f b6 45 e7          	movzbl -0x19(%ebp),%eax
 8049c20:	3c 0a                	cmp    $0xa,%al
 8049c22:	75 1c                	jne    8049c40 <rio_readlineb+0x86>
 8049c24:	eb 29                	jmp    8049c4f <rio_readlineb+0x95>
 8049c26:	83 7d f0 00          	cmpl   $0x0,-0x10(%ebp)
 8049c2a:	75 0d                	jne    8049c39 <rio_readlineb+0x7f>
 8049c2c:	83 7d e8 01          	cmpl   $0x1,-0x18(%ebp)
 8049c30:	75 1c                	jne    8049c4e <rio_readlineb+0x94>
 8049c32:	b8 00 00 00 00       	mov    $0x0,%eax
 8049c37:	eb 1f                	jmp    8049c58 <rio_readlineb+0x9e>
 8049c39:	b8 ff ff ff ff       	mov    $0xffffffff,%eax
 8049c3e:	eb 18                	jmp    8049c58 <rio_readlineb+0x9e>
 8049c40:	83 45 e8 01          	addl   $0x1,-0x18(%ebp)
 8049c44:	8b 45 e8             	mov    -0x18(%ebp),%eax
 8049c47:	39 45 10             	cmp    %eax,0x10(%ebp)
 8049c4a:	77 a4                	ja     8049bf0 <rio_readlineb+0x36>
 8049c4c:	eb 01                	jmp    8049c4f <rio_readlineb+0x95>
 8049c4e:	90                   	nop
 8049c4f:	8b 45 ec             	mov    -0x14(%ebp),%eax
 8049c52:	c6 00 00             	movb   $0x0,(%eax)
 8049c55:	8b 45 e8             	mov    -0x18(%ebp),%eax
 8049c58:	8b 4d f4             	mov    -0xc(%ebp),%ecx
 8049c5b:	65 33 0d 14 00 00 00 	xor    %gs:0x14,%ecx
 8049c62:	74 05                	je     8049c69 <rio_readlineb+0xaf>
 8049c64:	e8 27 0d 00 00       	call   804a990 <__stack_chk_fail_local>
 8049c69:	c9                   	leave  
 8049c6a:	c3                   	ret    

08049c6b <rio_writen>:
 8049c6b:	55                   	push   %ebp
 8049c6c:	89 e5                	mov    %esp,%ebp
 8049c6e:	53                   	push   %ebx
 8049c6f:	83 ec 14             	sub    $0x14,%esp
 8049c72:	e8 c9 ed ff ff       	call   8048a40 <__x86.get_pc_thunk.bx>
 8049c77:	81 c3 89 33 00 00    	add    $0x3389,%ebx
 8049c7d:	8b 45 10             	mov    0x10(%ebp),%eax
 8049c80:	89 45 ec             	mov    %eax,-0x14(%ebp)
 8049c83:	8b 45 0c             	mov    0xc(%ebp),%eax
 8049c86:	89 45 f4             	mov    %eax,-0xc(%ebp)
 8049c89:	eb 45                	jmp    8049cd0 <rio_writen+0x65>
 8049c8b:	83 ec 04             	sub    $0x4,%esp
 8049c8e:	ff 75 ec             	pushl  -0x14(%ebp)
 8049c91:	ff 75 f4             	pushl  -0xc(%ebp)
 8049c94:	ff 75 08             	pushl  0x8(%ebp)
 8049c97:	e8 84 ec ff ff       	call   8048920 <write@plt>
 8049c9c:	83 c4 10             	add    $0x10,%esp
 8049c9f:	89 45 f0             	mov    %eax,-0x10(%ebp)
 8049ca2:	83 7d f0 00          	cmpl   $0x0,-0x10(%ebp)
 8049ca6:	7f 1c                	jg     8049cc4 <rio_writen+0x59>
 8049ca8:	e8 b3 ec ff ff       	call   8048960 <__errno_location@plt>
 8049cad:	8b 00                	mov    (%eax),%eax
 8049caf:	83 f8 04             	cmp    $0x4,%eax
 8049cb2:	75 09                	jne    8049cbd <rio_writen+0x52>
 8049cb4:	c7 45 f0 00 00 00 00 	movl   $0x0,-0x10(%ebp)
 8049cbb:	eb 07                	jmp    8049cc4 <rio_writen+0x59>
 8049cbd:	b8 ff ff ff ff       	mov    $0xffffffff,%eax
 8049cc2:	eb 15                	jmp    8049cd9 <rio_writen+0x6e>
 8049cc4:	8b 45 f0             	mov    -0x10(%ebp),%eax
 8049cc7:	29 45 ec             	sub    %eax,-0x14(%ebp)
 8049cca:	8b 45 f0             	mov    -0x10(%ebp),%eax
 8049ccd:	01 45 f4             	add    %eax,-0xc(%ebp)
 8049cd0:	83 7d ec 00          	cmpl   $0x0,-0x14(%ebp)
 8049cd4:	75 b5                	jne    8049c8b <rio_writen+0x20>
 8049cd6:	8b 45 10             	mov    0x10(%ebp),%eax
 8049cd9:	8b 5d fc             	mov    -0x4(%ebp),%ebx
 8049cdc:	c9                   	leave  
 8049cdd:	c3                   	ret    

08049cde <urlencode>:
 8049cde:	55                   	push   %ebp
 8049cdf:	89 e5                	mov    %esp,%ebp
 8049ce1:	53                   	push   %ebx
 8049ce2:	83 ec 24             	sub    $0x24,%esp
 8049ce5:	e8 56 ed ff ff       	call   8048a40 <__x86.get_pc_thunk.bx>
 8049cea:	81 c3 16 33 00 00    	add    $0x3316,%ebx
 8049cf0:	8b 45 08             	mov    0x8(%ebp),%eax
 8049cf3:	89 45 e4             	mov    %eax,-0x1c(%ebp)
 8049cf6:	8b 45 0c             	mov    0xc(%ebp),%eax
 8049cf9:	89 45 e0             	mov    %eax,-0x20(%ebp)
 8049cfc:	65 a1 14 00 00 00    	mov    %gs:0x14,%eax
 8049d02:	89 45 f4             	mov    %eax,-0xc(%ebp)
 8049d05:	31 c0                	xor    %eax,%eax
 8049d07:	83 ec 0c             	sub    $0xc,%esp
 8049d0a:	ff 75 e4             	pushl  -0x1c(%ebp)
 8049d0d:	e8 de eb ff ff       	call   80488f0 <strlen@plt>
 8049d12:	83 c4 10             	add    $0x10,%esp
 8049d15:	89 45 e8             	mov    %eax,-0x18(%ebp)
 8049d18:	e9 10 01 00 00       	jmp    8049e2d <urlencode+0x14f>
 8049d1d:	8b 45 e4             	mov    -0x1c(%ebp),%eax
 8049d20:	0f b6 00             	movzbl (%eax),%eax
 8049d23:	3c 2a                	cmp    $0x2a,%al
 8049d25:	74 5a                	je     8049d81 <urlencode+0xa3>
 8049d27:	8b 45 e4             	mov    -0x1c(%ebp),%eax
 8049d2a:	0f b6 00             	movzbl (%eax),%eax
 8049d2d:	3c 2d                	cmp    $0x2d,%al
 8049d2f:	74 50                	je     8049d81 <urlencode+0xa3>
 8049d31:	8b 45 e4             	mov    -0x1c(%ebp),%eax
 8049d34:	0f b6 00             	movzbl (%eax),%eax
 8049d37:	3c 2e                	cmp    $0x2e,%al
 8049d39:	74 46                	je     8049d81 <urlencode+0xa3>
 8049d3b:	8b 45 e4             	mov    -0x1c(%ebp),%eax
 8049d3e:	0f b6 00             	movzbl (%eax),%eax
 8049d41:	3c 5f                	cmp    $0x5f,%al
 8049d43:	74 3c                	je     8049d81 <urlencode+0xa3>
 8049d45:	8b 45 e4             	mov    -0x1c(%ebp),%eax
 8049d48:	0f b6 00             	movzbl (%eax),%eax
 8049d4b:	3c 2f                	cmp    $0x2f,%al
 8049d4d:	76 0a                	jbe    8049d59 <urlencode+0x7b>
 8049d4f:	8b 45 e4             	mov    -0x1c(%ebp),%eax
 8049d52:	0f b6 00             	movzbl (%eax),%eax
 8049d55:	3c 39                	cmp    $0x39,%al
 8049d57:	76 28                	jbe    8049d81 <urlencode+0xa3>
 8049d59:	8b 45 e4             	mov    -0x1c(%ebp),%eax
 8049d5c:	0f b6 00             	movzbl (%eax),%eax
 8049d5f:	3c 40                	cmp    $0x40,%al
 8049d61:	76 0a                	jbe    8049d6d <urlencode+0x8f>
 8049d63:	8b 45 e4             	mov    -0x1c(%ebp),%eax
 8049d66:	0f b6 00             	movzbl (%eax),%eax
 8049d69:	3c 5a                	cmp    $0x5a,%al
 8049d6b:	76 14                	jbe    8049d81 <urlencode+0xa3>
 8049d6d:	8b 45 e4             	mov    -0x1c(%ebp),%eax
 8049d70:	0f b6 00             	movzbl (%eax),%eax
 8049d73:	3c 60                	cmp    $0x60,%al
 8049d75:	76 20                	jbe    8049d97 <urlencode+0xb9>
 8049d77:	8b 45 e4             	mov    -0x1c(%ebp),%eax
 8049d7a:	0f b6 00             	movzbl (%eax),%eax
 8049d7d:	3c 7a                	cmp    $0x7a,%al
 8049d7f:	77 16                	ja     8049d97 <urlencode+0xb9>
 8049d81:	8b 45 e0             	mov    -0x20(%ebp),%eax
 8049d84:	8d 50 01             	lea    0x1(%eax),%edx
 8049d87:	89 55 e0             	mov    %edx,-0x20(%ebp)
 8049d8a:	8b 55 e4             	mov    -0x1c(%ebp),%edx
 8049d8d:	0f b6 12             	movzbl (%edx),%edx
 8049d90:	88 10                	mov    %dl,(%eax)
 8049d92:	e9 92 00 00 00       	jmp    8049e29 <urlencode+0x14b>
 8049d97:	8b 45 e4             	mov    -0x1c(%ebp),%eax
 8049d9a:	0f b6 00             	movzbl (%eax),%eax
 8049d9d:	3c 20                	cmp    $0x20,%al
 8049d9f:	75 0e                	jne    8049daf <urlencode+0xd1>
 8049da1:	8b 45 e0             	mov    -0x20(%ebp),%eax
 8049da4:	8d 50 01             	lea    0x1(%eax),%edx
 8049da7:	89 55 e0             	mov    %edx,-0x20(%ebp)
 8049daa:	c6 00 2b             	movb   $0x2b,(%eax)
 8049dad:	eb 7a                	jmp    8049e29 <urlencode+0x14b>
 8049daf:	8b 45 e4             	mov    -0x1c(%ebp),%eax
 8049db2:	0f b6 00             	movzbl (%eax),%eax
 8049db5:	3c 1f                	cmp    $0x1f,%al
 8049db7:	76 0a                	jbe    8049dc3 <urlencode+0xe5>
 8049db9:	8b 45 e4             	mov    -0x1c(%ebp),%eax
 8049dbc:	0f b6 00             	movzbl (%eax),%eax
 8049dbf:	84 c0                	test   %al,%al
 8049dc1:	79 0a                	jns    8049dcd <urlencode+0xef>
 8049dc3:	8b 45 e4             	mov    -0x1c(%ebp),%eax
 8049dc6:	0f b6 00             	movzbl (%eax),%eax
 8049dc9:	3c 09                	cmp    $0x9,%al
 8049dcb:	75 55                	jne    8049e22 <urlencode+0x144>
 8049dcd:	8b 45 e4             	mov    -0x1c(%ebp),%eax
 8049dd0:	0f b6 00             	movzbl (%eax),%eax
 8049dd3:	0f b6 c0             	movzbl %al,%eax
 8049dd6:	83 ec 04             	sub    $0x4,%esp
 8049dd9:	50                   	push   %eax
 8049dda:	8d 83 a0 de ff ff    	lea    -0x2160(%ebx),%eax
 8049de0:	50                   	push   %eax
 8049de1:	8d 45 ec             	lea    -0x14(%ebp),%eax
 8049de4:	50                   	push   %eax
 8049de5:	e8 86 eb ff ff       	call   8048970 <sprintf@plt>
 8049dea:	83 c4 10             	add    $0x10,%esp
 8049ded:	0f b6 4d ec          	movzbl -0x14(%ebp),%ecx
 8049df1:	8b 45 e0             	mov    -0x20(%ebp),%eax
 8049df4:	8d 50 01             	lea    0x1(%eax),%edx
 8049df7:	89 55 e0             	mov    %edx,-0x20(%ebp)
 8049dfa:	89 ca                	mov    %ecx,%edx
 8049dfc:	88 10                	mov    %dl,(%eax)
 8049dfe:	0f b6 4d ed          	movzbl -0x13(%ebp),%ecx
 8049e02:	8b 45 e0             	mov    -0x20(%ebp),%eax
 8049e05:	8d 50 01             	lea    0x1(%eax),%edx
 8049e08:	89 55 e0             	mov    %edx,-0x20(%ebp)
 8049e0b:	89 ca                	mov    %ecx,%edx
 8049e0d:	88 10                	mov    %dl,(%eax)
 8049e0f:	0f b6 4d ee          	movzbl -0x12(%ebp),%ecx
 8049e13:	8b 45 e0             	mov    -0x20(%ebp),%eax
 8049e16:	8d 50 01             	lea    0x1(%eax),%edx
 8049e19:	89 55 e0             	mov    %edx,-0x20(%ebp)
 8049e1c:	89 ca                	mov    %ecx,%edx
 8049e1e:	88 10                	mov    %dl,(%eax)
 8049e20:	eb 07                	jmp    8049e29 <urlencode+0x14b>
 8049e22:	b8 ff ff ff ff       	mov    $0xffffffff,%eax
 8049e27:	eb 1a                	jmp    8049e43 <urlencode+0x165>
 8049e29:	83 45 e4 01          	addl   $0x1,-0x1c(%ebp)
 8049e2d:	8b 45 e8             	mov    -0x18(%ebp),%eax
 8049e30:	8d 50 ff             	lea    -0x1(%eax),%edx
 8049e33:	89 55 e8             	mov    %edx,-0x18(%ebp)
 8049e36:	85 c0                	test   %eax,%eax
 8049e38:	0f 85 df fe ff ff    	jne    8049d1d <urlencode+0x3f>
 8049e3e:	b8 00 00 00 00       	mov    $0x0,%eax
 8049e43:	8b 4d f4             	mov    -0xc(%ebp),%ecx
 8049e46:	65 33 0d 14 00 00 00 	xor    %gs:0x14,%ecx
 8049e4d:	74 05                	je     8049e54 <urlencode+0x176>
 8049e4f:	e8 3c 0b 00 00       	call   804a990 <__stack_chk_fail_local>
 8049e54:	8b 5d fc             	mov    -0x4(%ebp),%ebx
 8049e57:	c9                   	leave  
 8049e58:	c3                   	ret    

08049e59 <submitr>:
 8049e59:	55                   	push   %ebp
 8049e5a:	89 e5                	mov    %esp,%ebp
 8049e5c:	57                   	push   %edi
 8049e5d:	56                   	push   %esi
 8049e5e:	53                   	push   %ebx
 8049e5f:	81 ec 6c a0 00 00    	sub    $0xa06c,%esp
 8049e65:	e8 d6 eb ff ff       	call   8048a40 <__x86.get_pc_thunk.bx>
 8049e6a:	81 c3 96 31 00 00    	add    $0x3196,%ebx
 8049e70:	8b 45 08             	mov    0x8(%ebp),%eax
 8049e73:	89 85 a4 5f ff ff    	mov    %eax,-0xa05c(%ebp)
 8049e79:	8b 45 10             	mov    0x10(%ebp),%eax
 8049e7c:	89 85 a0 5f ff ff    	mov    %eax,-0xa060(%ebp)
 8049e82:	8b 45 14             	mov    0x14(%ebp),%eax
 8049e85:	89 85 9c 5f ff ff    	mov    %eax,-0xa064(%ebp)
 8049e8b:	8b 45 18             	mov    0x18(%ebp),%eax
 8049e8e:	89 85 98 5f ff ff    	mov    %eax,-0xa068(%ebp)
 8049e94:	8b 45 1c             	mov    0x1c(%ebp),%eax
 8049e97:	89 85 94 5f ff ff    	mov    %eax,-0xa06c(%ebp)
 8049e9d:	8b 45 20             	mov    0x20(%ebp),%eax
 8049ea0:	89 85 90 5f ff ff    	mov    %eax,-0xa070(%ebp)
 8049ea6:	8b 45 24             	mov    0x24(%ebp),%eax
 8049ea9:	89 85 8c 5f ff ff    	mov    %eax,-0xa074(%ebp)
 8049eaf:	65 a1 14 00 00 00    	mov    %gs:0x14,%eax
 8049eb5:	89 45 e4             	mov    %eax,-0x1c(%ebp)
 8049eb8:	31 c0                	xor    %eax,%eax
 8049eba:	c7 85 b4 5f ff ff 00 	movl   $0x0,-0xa04c(%ebp)
 8049ec1:	00 00 00 
 8049ec4:	83 ec 04             	sub    $0x4,%esp
 8049ec7:	6a 00                	push   $0x0
 8049ec9:	6a 01                	push   $0x1
 8049ecb:	6a 02                	push   $0x2
 8049ecd:	e8 be ea ff ff       	call   8048990 <socket@plt>
 8049ed2:	83 c4 10             	add    $0x10,%esp
 8049ed5:	89 85 b8 5f ff ff    	mov    %eax,-0xa048(%ebp)
 8049edb:	83 bd b8 5f ff ff 00 	cmpl   $0x0,-0xa048(%ebp)
 8049ee2:	79 54                	jns    8049f38 <submitr+0xdf>
 8049ee4:	8b 85 8c 5f ff ff    	mov    -0xa074(%ebp),%eax
 8049eea:	c7 00 45 72 72 6f    	movl   $0x6f727245,(%eax)
 8049ef0:	c7 40 04 72 3a 20 43 	movl   $0x43203a72,0x4(%eax)
 8049ef7:	c7 40 08 6c 69 65 6e 	movl   $0x6e65696c,0x8(%eax)
 8049efe:	c7 40 0c 74 20 75 6e 	movl   $0x6e752074,0xc(%eax)
 8049f05:	c7 40 10 61 62 6c 65 	movl   $0x656c6261,0x10(%eax)
 8049f0c:	c7 40 14 20 74 6f 20 	movl   $0x206f7420,0x14(%eax)
 8049f13:	c7 40 18 63 72 65 61 	movl   $0x61657263,0x18(%eax)
 8049f1a:	c7 40 1c 74 65 20 73 	movl   $0x73206574,0x1c(%eax)
 8049f21:	c7 40 20 6f 63 6b 65 	movl   $0x656b636f,0x20(%eax)
 8049f28:	66 c7 40 24 74 00    	movw   $0x74,0x24(%eax)
 8049f2e:	b8 ff ff ff ff       	mov    $0xffffffff,%eax
 8049f33:	e9 bf 06 00 00       	jmp    804a5f7 <submitr+0x79e>
 8049f38:	83 ec 0c             	sub    $0xc,%esp
 8049f3b:	ff b5 a4 5f ff ff    	pushl  -0xa05c(%ebp)
 8049f41:	e8 5a ea ff ff       	call   80489a0 <gethostbyname@plt>
 8049f46:	83 c4 10             	add    $0x10,%esp
 8049f49:	89 85 bc 5f ff ff    	mov    %eax,-0xa044(%ebp)
 8049f4f:	83 bd bc 5f ff ff 00 	cmpl   $0x0,-0xa044(%ebp)
 8049f56:	75 77                	jne    8049fcf <submitr+0x176>
 8049f58:	8b 85 8c 5f ff ff    	mov    -0xa074(%ebp),%eax
 8049f5e:	c7 00 45 72 72 6f    	movl   $0x6f727245,(%eax)
 8049f64:	c7 40 04 72 3a 20 44 	movl   $0x44203a72,0x4(%eax)
 8049f6b:	c7 40 08 4e 53 20 69 	movl   $0x6920534e,0x8(%eax)
 8049f72:	c7 40 0c 73 20 75 6e 	movl   $0x6e752073,0xc(%eax)
 8049f79:	c7 40 10 61 62 6c 65 	movl   $0x656c6261,0x10(%eax)
 8049f80:	c7 40 14 20 74 6f 20 	movl   $0x206f7420,0x14(%eax)
 8049f87:	c7 40 18 72 65 73 6f 	movl   $0x6f736572,0x18(%eax)
 8049f8e:	c7 40 1c 6c 76 65 20 	movl   $0x2065766c,0x1c(%eax)
 8049f95:	c7 40 20 73 65 72 76 	movl   $0x76726573,0x20(%eax)
 8049f9c:	c7 40 24 65 72 20 61 	movl   $0x61207265,0x24(%eax)
 8049fa3:	c7 40 28 64 64 72 65 	movl   $0x65726464,0x28(%eax)
 8049faa:	66 c7 40 2c 73 73    	movw   $0x7373,0x2c(%eax)
 8049fb0:	c6 40 2e 00          	movb   $0x0,0x2e(%eax)
 8049fb4:	83 ec 0c             	sub    $0xc,%esp
 8049fb7:	ff b5 b8 5f ff ff    	pushl  -0xa048(%ebp)
 8049fbd:	e8 fe e9 ff ff       	call   80489c0 <close@plt>
 8049fc2:	83 c4 10             	add    $0x10,%esp
 8049fc5:	b8 ff ff ff ff       	mov    $0xffffffff,%eax
 8049fca:	e9 28 06 00 00       	jmp    804a5f7 <submitr+0x79e>
 8049fcf:	83 ec 08             	sub    $0x8,%esp
 8049fd2:	6a 10                	push   $0x10
 8049fd4:	8d 85 c8 5f ff ff    	lea    -0xa038(%ebp),%eax
 8049fda:	50                   	push   %eax
 8049fdb:	e8 40 e8 ff ff       	call   8048820 <bzero@plt>
 8049fe0:	83 c4 10             	add    $0x10,%esp
 8049fe3:	66 c7 85 c8 5f ff ff 	movw   $0x2,-0xa038(%ebp)
 8049fea:	02 00 
 8049fec:	8b 85 bc 5f ff ff    	mov    -0xa044(%ebp),%eax
 8049ff2:	8b 40 0c             	mov    0xc(%eax),%eax
 8049ff5:	89 c2                	mov    %eax,%edx
 8049ff7:	8b 85 bc 5f ff ff    	mov    -0xa044(%ebp),%eax
 8049ffd:	8b 40 10             	mov    0x10(%eax),%eax
 804a000:	8b 00                	mov    (%eax),%eax
 804a002:	83 ec 04             	sub    $0x4,%esp
 804a005:	52                   	push   %edx
 804a006:	8d 95 c8 5f ff ff    	lea    -0xa038(%ebp),%edx
 804a00c:	83 c2 04             	add    $0x4,%edx
 804a00f:	52                   	push   %edx
 804a010:	50                   	push   %eax
 804a011:	e8 7a e8 ff ff       	call   8048890 <bcopy@plt>
 804a016:	83 c4 10             	add    $0x10,%esp
 804a019:	8b 45 0c             	mov    0xc(%ebp),%eax
 804a01c:	0f b7 c0             	movzwl %ax,%eax
 804a01f:	83 ec 0c             	sub    $0xc,%esp
 804a022:	50                   	push   %eax
 804a023:	e8 58 e8 ff ff       	call   8048880 <htons@plt>
 804a028:	83 c4 10             	add    $0x10,%esp
 804a02b:	66 89 85 ca 5f ff ff 	mov    %ax,-0xa036(%ebp)
 804a032:	83 ec 04             	sub    $0x4,%esp
 804a035:	6a 10                	push   $0x10
 804a037:	8d 85 c8 5f ff ff    	lea    -0xa038(%ebp),%eax
 804a03d:	50                   	push   %eax
 804a03e:	ff b5 b8 5f ff ff    	pushl  -0xa048(%ebp)
 804a044:	e8 67 e9 ff ff       	call   80489b0 <connect@plt>
 804a049:	83 c4 10             	add    $0x10,%esp
 804a04c:	85 c0                	test   %eax,%eax
 804a04e:	79 69                	jns    804a0b9 <submitr+0x260>
 804a050:	8b 85 8c 5f ff ff    	mov    -0xa074(%ebp),%eax
 804a056:	c7 00 45 72 72 6f    	movl   $0x6f727245,(%eax)
 804a05c:	c7 40 04 72 3a 20 55 	movl   $0x55203a72,0x4(%eax)
 804a063:	c7 40 08 6e 61 62 6c 	movl   $0x6c62616e,0x8(%eax)
 804a06a:	c7 40 0c 65 20 74 6f 	movl   $0x6f742065,0xc(%eax)
 804a071:	c7 40 10 20 63 6f 6e 	movl   $0x6e6f6320,0x10(%eax)
 804a078:	c7 40 14 6e 65 63 74 	movl   $0x7463656e,0x14(%eax)
 804a07f:	c7 40 18 20 74 6f 20 	movl   $0x206f7420,0x18(%eax)
 804a086:	c7 40 1c 74 68 65 20 	movl   $0x20656874,0x1c(%eax)
 804a08d:	c7 40 20 73 65 72 76 	movl   $0x76726573,0x20(%eax)
 804a094:	66 c7 40 24 65 72    	movw   $0x7265,0x24(%eax)
 804a09a:	c6 40 26 00          	movb   $0x0,0x26(%eax)
 804a09e:	83 ec 0c             	sub    $0xc,%esp
 804a0a1:	ff b5 b8 5f ff ff    	pushl  -0xa048(%ebp)
 804a0a7:	e8 14 e9 ff ff       	call   80489c0 <close@plt>
 804a0ac:	83 c4 10             	add    $0x10,%esp
 804a0af:	b8 ff ff ff ff       	mov    $0xffffffff,%eax
 804a0b4:	e9 3e 05 00 00       	jmp    804a5f7 <submitr+0x79e>
 804a0b9:	83 ec 0c             	sub    $0xc,%esp
 804a0bc:	ff b5 90 5f ff ff    	pushl  -0xa070(%ebp)
 804a0c2:	e8 29 e8 ff ff       	call   80488f0 <strlen@plt>
 804a0c7:	83 c4 10             	add    $0x10,%esp
 804a0ca:	89 85 c0 5f ff ff    	mov    %eax,-0xa040(%ebp)
 804a0d0:	83 ec 0c             	sub    $0xc,%esp
 804a0d3:	ff b5 a0 5f ff ff    	pushl  -0xa060(%ebp)
 804a0d9:	e8 12 e8 ff ff       	call   80488f0 <strlen@plt>
 804a0de:	83 c4 10             	add    $0x10,%esp
 804a0e1:	89 c6                	mov    %eax,%esi
 804a0e3:	83 ec 0c             	sub    $0xc,%esp
 804a0e6:	ff b5 9c 5f ff ff    	pushl  -0xa064(%ebp)
 804a0ec:	e8 ff e7 ff ff       	call   80488f0 <strlen@plt>
 804a0f1:	83 c4 10             	add    $0x10,%esp
 804a0f4:	01 c6                	add    %eax,%esi
 804a0f6:	83 ec 0c             	sub    $0xc,%esp
 804a0f9:	ff b5 94 5f ff ff    	pushl  -0xa06c(%ebp)
 804a0ff:	e8 ec e7 ff ff       	call   80488f0 <strlen@plt>
 804a104:	83 c4 10             	add    $0x10,%esp
 804a107:	8d 0c 06             	lea    (%esi,%eax,1),%ecx
 804a10a:	8b 95 c0 5f ff ff    	mov    -0xa040(%ebp),%edx
 804a110:	89 d0                	mov    %edx,%eax
 804a112:	01 c0                	add    %eax,%eax
 804a114:	01 d0                	add    %edx,%eax
 804a116:	01 c8                	add    %ecx,%eax
 804a118:	83 e8 80             	sub    $0xffffff80,%eax
 804a11b:	89 85 c4 5f ff ff    	mov    %eax,-0xa03c(%ebp)
 804a121:	81 bd c4 5f ff ff 00 	cmpl   $0x2000,-0xa03c(%ebp)
 804a128:	20 00 00 
 804a12b:	0f 86 82 00 00 00    	jbe    804a1b3 <submitr+0x35a>
 804a131:	8b 85 8c 5f ff ff    	mov    -0xa074(%ebp),%eax
 804a137:	c7 00 45 72 72 6f    	movl   $0x6f727245,(%eax)
 804a13d:	c7 40 04 72 3a 20 52 	movl   $0x52203a72,0x4(%eax)
 804a144:	c7 40 08 65 73 75 6c 	movl   $0x6c757365,0x8(%eax)
 804a14b:	c7 40 0c 74 20 73 74 	movl   $0x74732074,0xc(%eax)
 804a152:	c7 40 10 72 69 6e 67 	movl   $0x676e6972,0x10(%eax)
 804a159:	c7 40 14 20 74 6f 6f 	movl   $0x6f6f7420,0x14(%eax)
 804a160:	c7 40 18 20 6c 61 72 	movl   $0x72616c20,0x18(%eax)
 804a167:	c7 40 1c 67 65 2e 20 	movl   $0x202e6567,0x1c(%eax)
 804a16e:	c7 40 20 49 6e 63 72 	movl   $0x72636e49,0x20(%eax)
 804a175:	c7 40 24 65 61 73 65 	movl   $0x65736165,0x24(%eax)
 804a17c:	c7 40 28 20 53 55 42 	movl   $0x42555320,0x28(%eax)
 804a183:	c7 40 2c 4d 49 54 52 	movl   $0x5254494d,0x2c(%eax)
 804a18a:	c7 40 30 5f 4d 41 58 	movl   $0x58414d5f,0x30(%eax)
 804a191:	c7 40 34 42 55 46 00 	movl   $0x465542,0x34(%eax)
 804a198:	83 ec 0c             	sub    $0xc,%esp
 804a19b:	ff b5 b8 5f ff ff    	pushl  -0xa048(%ebp)
 804a1a1:	e8 1a e8 ff ff       	call   80489c0 <close@plt>
 804a1a6:	83 c4 10             	add    $0x10,%esp
 804a1a9:	b8 ff ff ff ff       	mov    $0xffffffff,%eax
 804a1ae:	e9 44 04 00 00       	jmp    804a5f7 <submitr+0x79e>
 804a1b3:	83 ec 08             	sub    $0x8,%esp
 804a1b6:	68 00 20 00 00       	push   $0x2000
 804a1bb:	8d 85 e4 9f ff ff    	lea    -0x601c(%ebp),%eax
 804a1c1:	50                   	push   %eax
 804a1c2:	e8 59 e6 ff ff       	call   8048820 <bzero@plt>
 804a1c7:	83 c4 10             	add    $0x10,%esp
 804a1ca:	83 ec 08             	sub    $0x8,%esp
 804a1cd:	8d 85 e4 9f ff ff    	lea    -0x601c(%ebp),%eax
 804a1d3:	50                   	push   %eax
 804a1d4:	ff b5 90 5f ff ff    	pushl  -0xa070(%ebp)
 804a1da:	e8 ff fa ff ff       	call   8049cde <urlencode>
 804a1df:	83 c4 10             	add    $0x10,%esp
 804a1e2:	85 c0                	test   %eax,%eax
 804a1e4:	79 54                	jns    804a23a <submitr+0x3e1>
 804a1e6:	8b 85 8c 5f ff ff    	mov    -0xa074(%ebp),%eax
 804a1ec:	89 c2                	mov    %eax,%edx
 804a1ee:	8d 83 a8 de ff ff    	lea    -0x2158(%ebx),%eax
 804a1f4:	b9 43 00 00 00       	mov    $0x43,%ecx
 804a1f9:	8b 30                	mov    (%eax),%esi
 804a1fb:	89 32                	mov    %esi,(%edx)
 804a1fd:	8b 74 08 fc          	mov    -0x4(%eax,%ecx,1),%esi
 804a201:	89 74 0a fc          	mov    %esi,-0x4(%edx,%ecx,1)
 804a205:	8d 7a 04             	lea    0x4(%edx),%edi
 804a208:	83 e7 fc             	and    $0xfffffffc,%edi
 804a20b:	29 fa                	sub    %edi,%edx
 804a20d:	29 d0                	sub    %edx,%eax
 804a20f:	01 d1                	add    %edx,%ecx
 804a211:	83 e1 fc             	and    $0xfffffffc,%ecx
 804a214:	c1 e9 02             	shr    $0x2,%ecx
 804a217:	89 ca                	mov    %ecx,%edx
 804a219:	89 c6                	mov    %eax,%esi
 804a21b:	89 d1                	mov    %edx,%ecx
 804a21d:	f3 a5                	rep movsl %ds:(%esi),%es:(%edi)
 804a21f:	83 ec 0c             	sub    $0xc,%esp
 804a222:	ff b5 b8 5f ff ff    	pushl  -0xa048(%ebp)
 804a228:	e8 93 e7 ff ff       	call   80489c0 <close@plt>
 804a22d:	83 c4 10             	add    $0x10,%esp
 804a230:	b8 ff ff ff ff       	mov    $0xffffffff,%eax
 804a235:	e9 bd 03 00 00       	jmp    804a5f7 <submitr+0x79e>
 804a23a:	83 ec 04             	sub    $0x4,%esp
 804a23d:	8d 85 e4 9f ff ff    	lea    -0x601c(%ebp),%eax
 804a243:	50                   	push   %eax
 804a244:	ff b5 94 5f ff ff    	pushl  -0xa06c(%ebp)
 804a24a:	ff b5 98 5f ff ff    	pushl  -0xa068(%ebp)
 804a250:	ff b5 9c 5f ff ff    	pushl  -0xa064(%ebp)
 804a256:	ff b5 a0 5f ff ff    	pushl  -0xa060(%ebp)
 804a25c:	8d 83 ec de ff ff    	lea    -0x2114(%ebx),%eax
 804a262:	50                   	push   %eax
 804a263:	8d 85 e4 7f ff ff    	lea    -0x801c(%ebp),%eax
 804a269:	50                   	push   %eax
 804a26a:	e8 01 e7 ff ff       	call   8048970 <sprintf@plt>
 804a26f:	83 c4 20             	add    $0x20,%esp
 804a272:	83 ec 0c             	sub    $0xc,%esp
 804a275:	8d 85 e4 7f ff ff    	lea    -0x801c(%ebp),%eax
 804a27b:	50                   	push   %eax
 804a27c:	e8 6f e6 ff ff       	call   80488f0 <strlen@plt>
 804a281:	83 c4 10             	add    $0x10,%esp
 804a284:	83 ec 04             	sub    $0x4,%esp
 804a287:	50                   	push   %eax
 804a288:	8d 85 e4 7f ff ff    	lea    -0x801c(%ebp),%eax
 804a28e:	50                   	push   %eax
 804a28f:	ff b5 b8 5f ff ff    	pushl  -0xa048(%ebp)
 804a295:	e8 d1 f9 ff ff       	call   8049c6b <rio_writen>
 804a29a:	83 c4 10             	add    $0x10,%esp
 804a29d:	85 c0                	test   %eax,%eax
 804a29f:	79 6d                	jns    804a30e <submitr+0x4b5>
 804a2a1:	8b 85 8c 5f ff ff    	mov    -0xa074(%ebp),%eax
 804a2a7:	c7 00 45 72 72 6f    	movl   $0x6f727245,(%eax)
 804a2ad:	c7 40 04 72 3a 20 43 	movl   $0x43203a72,0x4(%eax)
 804a2b4:	c7 40 08 6c 69 65 6e 	movl   $0x6e65696c,0x8(%eax)
 804a2bb:	c7 40 0c 74 20 75 6e 	movl   $0x6e752074,0xc(%eax)
 804a2c2:	c7 40 10 61 62 6c 65 	movl   $0x656c6261,0x10(%eax)
 804a2c9:	c7 40 14 20 74 6f 20 	movl   $0x206f7420,0x14(%eax)
 804a2d0:	c7 40 18 77 72 69 74 	movl   $0x74697277,0x18(%eax)
 804a2d7:	c7 40 1c 65 20 74 6f 	movl   $0x6f742065,0x1c(%eax)
 804a2de:	c7 40 20 20 74 68 65 	movl   $0x65687420,0x20(%eax)
 804a2e5:	c7 40 24 20 73 65 72 	movl   $0x72657320,0x24(%eax)
 804a2ec:	c7 40 28 76 65 72 00 	movl   $0x726576,0x28(%eax)
 804a2f3:	83 ec 0c             	sub    $0xc,%esp
 804a2f6:	ff b5 b8 5f ff ff    	pushl  -0xa048(%ebp)
 804a2fc:	e8 bf e6 ff ff       	call   80489c0 <close@plt>
 804a301:	83 c4 10             	add    $0x10,%esp
 804a304:	b8 ff ff ff ff       	mov    $0xffffffff,%eax
 804a309:	e9 e9 02 00 00       	jmp    804a5f7 <submitr+0x79e>
 804a30e:	83 ec 08             	sub    $0x8,%esp
 804a311:	ff b5 b8 5f ff ff    	pushl  -0xa048(%ebp)
 804a317:	8d 85 d8 5f ff ff    	lea    -0xa028(%ebp),%eax
 804a31d:	50                   	push   %eax
 804a31e:	e8 8f f7 ff ff       	call   8049ab2 <rio_readinitb>
 804a323:	83 c4 10             	add    $0x10,%esp
 804a326:	83 ec 04             	sub    $0x4,%esp
 804a329:	68 00 20 00 00       	push   $0x2000
 804a32e:	8d 85 e4 7f ff ff    	lea    -0x801c(%ebp),%eax
 804a334:	50                   	push   %eax
 804a335:	8d 85 d8 5f ff ff    	lea    -0xa028(%ebp),%eax
 804a33b:	50                   	push   %eax
 804a33c:	e8 79 f8 ff ff       	call   8049bba <rio_readlineb>
 804a341:	83 c4 10             	add    $0x10,%esp
 804a344:	85 c0                	test   %eax,%eax
 804a346:	0f 8f 81 00 00 00    	jg     804a3cd <submitr+0x574>
 804a34c:	8b 85 8c 5f ff ff    	mov    -0xa074(%ebp),%eax
 804a352:	c7 00 45 72 72 6f    	movl   $0x6f727245,(%eax)
 804a358:	c7 40 04 72 3a 20 43 	movl   $0x43203a72,0x4(%eax)
 804a35f:	c7 40 08 6c 69 65 6e 	movl   $0x6e65696c,0x8(%eax)
 804a366:	c7 40 0c 74 20 75 6e 	movl   $0x6e752074,0xc(%eax)
 804a36d:	c7 40 10 61 62 6c 65 	movl   $0x656c6261,0x10(%eax)
 804a374:	c7 40 14 20 74 6f 20 	movl   $0x206f7420,0x14(%eax)
 804a37b:	c7 40 18 72 65 61 64 	movl   $0x64616572,0x18(%eax)
 804a382:	c7 40 1c 20 66 69 72 	movl   $0x72696620,0x1c(%eax)
 804a389:	c7 40 20 73 74 20 68 	movl   $0x68207473,0x20(%eax)
 804a390:	c7 40 24 65 61 64 65 	movl   $0x65646165,0x24(%eax)
 804a397:	c7 40 28 72 20 66 72 	movl   $0x72662072,0x28(%eax)
 804a39e:	c7 40 2c 6f 6d 20 73 	movl   $0x73206d6f,0x2c(%eax)
 804a3a5:	c7 40 30 65 72 76 65 	movl   $0x65767265,0x30(%eax)
 804a3ac:	66 c7 40 34 72 00    	movw   $0x72,0x34(%eax)
 804a3b2:	83 ec 0c             	sub    $0xc,%esp
 804a3b5:	ff b5 b8 5f ff ff    	pushl  -0xa048(%ebp)
 804a3bb:	e8 00 e6 ff ff       	call   80489c0 <close@plt>
 804a3c0:	83 c4 10             	add    $0x10,%esp
 804a3c3:	b8 ff ff ff ff       	mov    $0xffffffff,%eax
 804a3c8:	e9 2a 02 00 00       	jmp    804a5f7 <submitr+0x79e>
 804a3cd:	83 ec 0c             	sub    $0xc,%esp
 804a3d0:	8d 85 e4 df ff ff    	lea    -0x201c(%ebp),%eax
 804a3d6:	50                   	push   %eax
 804a3d7:	8d 85 b4 5f ff ff    	lea    -0xa04c(%ebp),%eax
 804a3dd:	50                   	push   %eax
 804a3de:	8d 85 e4 bf ff ff    	lea    -0x401c(%ebp),%eax
 804a3e4:	50                   	push   %eax
 804a3e5:	8d 83 41 df ff ff    	lea    -0x20bf(%ebx),%eax
 804a3eb:	50                   	push   %eax
 804a3ec:	8d 85 e4 7f ff ff    	lea    -0x801c(%ebp),%eax
 804a3f2:	50                   	push   %eax
 804a3f3:	e8 48 e5 ff ff       	call   8048940 <__isoc99_sscanf@plt>
 804a3f8:	83 c4 20             	add    $0x20,%esp
 804a3fb:	8b 85 b4 5f ff ff    	mov    -0xa04c(%ebp),%eax
 804a401:	3d c8 00 00 00       	cmp    $0xc8,%eax
 804a406:	0f 84 d8 00 00 00    	je     804a4e4 <submitr+0x68b>
 804a40c:	8b 85 b4 5f ff ff    	mov    -0xa04c(%ebp),%eax
 804a412:	8d 95 e4 df ff ff    	lea    -0x201c(%ebp),%edx
 804a418:	52                   	push   %edx
 804a419:	50                   	push   %eax
 804a41a:	8d 83 54 df ff ff    	lea    -0x20ac(%ebx),%eax
 804a420:	50                   	push   %eax
 804a421:	ff b5 8c 5f ff ff    	pushl  -0xa074(%ebp)
 804a427:	e8 44 e5 ff ff       	call   8048970 <sprintf@plt>
 804a42c:	83 c4 10             	add    $0x10,%esp
 804a42f:	83 ec 0c             	sub    $0xc,%esp
 804a432:	ff b5 b8 5f ff ff    	pushl  -0xa048(%ebp)
 804a438:	e8 83 e5 ff ff       	call   80489c0 <close@plt>
 804a43d:	83 c4 10             	add    $0x10,%esp
 804a440:	b8 ff ff ff ff       	mov    $0xffffffff,%eax
 804a445:	e9 ad 01 00 00       	jmp    804a5f7 <submitr+0x79e>
 804a44a:	83 ec 04             	sub    $0x4,%esp
 804a44d:	68 00 20 00 00       	push   $0x2000
 804a452:	8d 85 e4 7f ff ff    	lea    -0x801c(%ebp),%eax
 804a458:	50                   	push   %eax
 804a459:	8d 85 d8 5f ff ff    	lea    -0xa028(%ebp),%eax
 804a45f:	50                   	push   %eax
 804a460:	e8 55 f7 ff ff       	call   8049bba <rio_readlineb>
 804a465:	83 c4 10             	add    $0x10,%esp
 804a468:	85 c0                	test   %eax,%eax
 804a46a:	7f 78                	jg     804a4e4 <submitr+0x68b>
 804a46c:	8b 85 8c 5f ff ff    	mov    -0xa074(%ebp),%eax
 804a472:	c7 00 45 72 72 6f    	movl   $0x6f727245,(%eax)
 804a478:	c7 40 04 72 3a 20 43 	movl   $0x43203a72,0x4(%eax)
 804a47f:	c7 40 08 6c 69 65 6e 	movl   $0x6e65696c,0x8(%eax)
 804a486:	c7 40 0c 74 20 75 6e 	movl   $0x6e752074,0xc(%eax)
 804a48d:	c7 40 10 61 62 6c 65 	movl   $0x656c6261,0x10(%eax)
 804a494:	c7 40 14 20 74 6f 20 	movl   $0x206f7420,0x14(%eax)
 804a49b:	c7 40 18 72 65 61 64 	movl   $0x64616572,0x18(%eax)
 804a4a2:	c7 40 1c 20 68 65 61 	movl   $0x61656820,0x1c(%eax)
 804a4a9:	c7 40 20 64 65 72 73 	movl   $0x73726564,0x20(%eax)
 804a4b0:	c7 40 24 20 66 72 6f 	movl   $0x6f726620,0x24(%eax)
 804a4b7:	c7 40 28 6d 20 73 65 	movl   $0x6573206d,0x28(%eax)
 804a4be:	c7 40 2c 72 76 65 72 	movl   $0x72657672,0x2c(%eax)
 804a4c5:	c6 40 30 00          	movb   $0x0,0x30(%eax)
 804a4c9:	83 ec 0c             	sub    $0xc,%esp
 804a4cc:	ff b5 b8 5f ff ff    	pushl  -0xa048(%ebp)
 804a4d2:	e8 e9 e4 ff ff       	call   80489c0 <close@plt>
 804a4d7:	83 c4 10             	add    $0x10,%esp
 804a4da:	b8 ff ff ff ff       	mov    $0xffffffff,%eax
 804a4df:	e9 13 01 00 00       	jmp    804a5f7 <submitr+0x79e>
 804a4e4:	83 ec 08             	sub    $0x8,%esp
 804a4e7:	8d 83 81 df ff ff    	lea    -0x207f(%ebx),%eax
 804a4ed:	50                   	push   %eax
 804a4ee:	8d 85 e4 7f ff ff    	lea    -0x801c(%ebp),%eax
 804a4f4:	50                   	push   %eax
 804a4f5:	e8 d6 e2 ff ff       	call   80487d0 <strcmp@plt>
 804a4fa:	83 c4 10             	add    $0x10,%esp
 804a4fd:	85 c0                	test   %eax,%eax
 804a4ff:	0f 85 45 ff ff ff    	jne    804a44a <submitr+0x5f1>
 804a505:	83 ec 04             	sub    $0x4,%esp
 804a508:	68 00 20 00 00       	push   $0x2000
 804a50d:	8d 85 e4 7f ff ff    	lea    -0x801c(%ebp),%eax
 804a513:	50                   	push   %eax
 804a514:	8d 85 d8 5f ff ff    	lea    -0xa028(%ebp),%eax
 804a51a:	50                   	push   %eax
 804a51b:	e8 9a f6 ff ff       	call   8049bba <rio_readlineb>
 804a520:	83 c4 10             	add    $0x10,%esp
 804a523:	85 c0                	test   %eax,%eax
 804a525:	7f 7f                	jg     804a5a6 <submitr+0x74d>
 804a527:	8b 85 8c 5f ff ff    	mov    -0xa074(%ebp),%eax
 804a52d:	c7 00 45 72 72 6f    	movl   $0x6f727245,(%eax)
 804a533:	c7 40 04 72 3a 20 43 	movl   $0x43203a72,0x4(%eax)
 804a53a:	c7 40 08 6c 69 65 6e 	movl   $0x6e65696c,0x8(%eax)
 804a541:	c7 40 0c 74 20 75 6e 	movl   $0x6e752074,0xc(%eax)
 804a548:	c7 40 10 61 62 6c 65 	movl   $0x656c6261,0x10(%eax)
 804a54f:	c7 40 14 20 74 6f 20 	movl   $0x206f7420,0x14(%eax)
 804a556:	c7 40 18 72 65 61 64 	movl   $0x64616572,0x18(%eax)
 804a55d:	c7 40 1c 20 73 74 61 	movl   $0x61747320,0x1c(%eax)
 804a564:	c7 40 20 74 75 73 20 	movl   $0x20737574,0x20(%eax)
 804a56b:	c7 40 24 6d 65 73 73 	movl   $0x7373656d,0x24(%eax)
 804a572:	c7 40 28 61 67 65 20 	movl   $0x20656761,0x28(%eax)
 804a579:	c7 40 2c 66 72 6f 6d 	movl   $0x6d6f7266,0x2c(%eax)
 804a580:	c7 40 30 20 73 65 72 	movl   $0x72657320,0x30(%eax)
 804a587:	c7 40 34 76 65 72 00 	movl   $0x726576,0x34(%eax)
 804a58e:	83 ec 0c             	sub    $0xc,%esp
 804a591:	ff b5 b8 5f ff ff    	pushl  -0xa048(%ebp)
 804a597:	e8 24 e4 ff ff       	call   80489c0 <close@plt>
 804a59c:	83 c4 10             	add    $0x10,%esp
 804a59f:	b8 ff ff ff ff       	mov    $0xffffffff,%eax
 804a5a4:	eb 51                	jmp    804a5f7 <submitr+0x79e>
 804a5a6:	83 ec 08             	sub    $0x8,%esp
 804a5a9:	8d 85 e4 7f ff ff    	lea    -0x801c(%ebp),%eax
 804a5af:	50                   	push   %eax
 804a5b0:	ff b5 8c 5f ff ff    	pushl  -0xa074(%ebp)
 804a5b6:	e8 e5 e2 ff ff       	call   80488a0 <strcpy@plt>
 804a5bb:	83 c4 10             	add    $0x10,%esp
 804a5be:	83 ec 0c             	sub    $0xc,%esp
 804a5c1:	ff b5 b8 5f ff ff    	pushl  -0xa048(%ebp)
 804a5c7:	e8 f4 e3 ff ff       	call   80489c0 <close@plt>
 804a5cc:	83 c4 10             	add    $0x10,%esp
 804a5cf:	83 ec 08             	sub    $0x8,%esp
 804a5d2:	8d 83 84 df ff ff    	lea    -0x207c(%ebx),%eax
 804a5d8:	50                   	push   %eax
 804a5d9:	ff b5 8c 5f ff ff    	pushl  -0xa074(%ebp)
 804a5df:	e8 ec e1 ff ff       	call   80487d0 <strcmp@plt>
 804a5e4:	83 c4 10             	add    $0x10,%esp
 804a5e7:	85 c0                	test   %eax,%eax
 804a5e9:	75 07                	jne    804a5f2 <submitr+0x799>
 804a5eb:	b8 00 00 00 00       	mov    $0x0,%eax
 804a5f0:	eb 05                	jmp    804a5f7 <submitr+0x79e>
 804a5f2:	b8 ff ff ff ff       	mov    $0xffffffff,%eax
 804a5f7:	8b 7d e4             	mov    -0x1c(%ebp),%edi
 804a5fa:	65 33 3d 14 00 00 00 	xor    %gs:0x14,%edi
 804a601:	74 05                	je     804a608 <submitr+0x7af>
 804a603:	e8 88 03 00 00       	call   804a990 <__stack_chk_fail_local>
 804a608:	8d 65 f4             	lea    -0xc(%ebp),%esp
 804a60b:	5b                   	pop    %ebx
 804a60c:	5e                   	pop    %esi
 804a60d:	5f                   	pop    %edi
 804a60e:	5d                   	pop    %ebp
 804a60f:	c3                   	ret    

0804a610 <init_timeout>:
 804a610:	55                   	push   %ebp
 804a611:	89 e5                	mov    %esp,%ebp
 804a613:	53                   	push   %ebx
 804a614:	83 ec 04             	sub    $0x4,%esp
 804a617:	e8 24 e4 ff ff       	call   8048a40 <__x86.get_pc_thunk.bx>
 804a61c:	81 c3 e4 29 00 00    	add    $0x29e4,%ebx
 804a622:	83 7d 08 00          	cmpl   $0x0,0x8(%ebp)
 804a626:	74 32                	je     804a65a <init_timeout+0x4a>
 804a628:	83 7d 08 00          	cmpl   $0x0,0x8(%ebp)
 804a62c:	79 07                	jns    804a635 <init_timeout+0x25>
 804a62e:	c7 45 08 00 00 00 00 	movl   $0x0,0x8(%ebp)
 804a635:	83 ec 08             	sub    $0x8,%esp
 804a638:	8d 83 79 ca ff ff    	lea    -0x3587(%ebx),%eax
 804a63e:	50                   	push   %eax
 804a63f:	6a 0e                	push   $0xe
 804a641:	e8 fa e1 ff ff       	call   8048840 <signal@plt>
 804a646:	83 c4 10             	add    $0x10,%esp
 804a649:	8b 45 08             	mov    0x8(%ebp),%eax
 804a64c:	83 ec 0c             	sub    $0xc,%esp
 804a64f:	50                   	push   %eax
 804a650:	e8 0b e2 ff ff       	call   8048860 <alarm@plt>
 804a655:	83 c4 10             	add    $0x10,%esp
 804a658:	eb 01                	jmp    804a65b <init_timeout+0x4b>
 804a65a:	90                   	nop
 804a65b:	8b 5d fc             	mov    -0x4(%ebp),%ebx
 804a65e:	c9                   	leave  
 804a65f:	c3                   	ret    

0804a660 <init_driver>:
 804a660:	55                   	push   %ebp
 804a661:	89 e5                	mov    %esp,%ebp
 804a663:	53                   	push   %ebx
 804a664:	83 ec 44             	sub    $0x44,%esp
 804a667:	e8 d4 e3 ff ff       	call   8048a40 <__x86.get_pc_thunk.bx>
 804a66c:	81 c3 94 29 00 00    	add    $0x2994,%ebx
 804a672:	8b 45 08             	mov    0x8(%ebp),%eax
 804a675:	89 45 c4             	mov    %eax,-0x3c(%ebp)
 804a678:	65 a1 14 00 00 00    	mov    %gs:0x14,%eax
 804a67e:	89 45 f4             	mov    %eax,-0xc(%ebp)
 804a681:	31 c0                	xor    %eax,%eax
 804a683:	8d 83 87 df ff ff    	lea    -0x2079(%ebx),%eax
 804a689:	89 45 d4             	mov    %eax,-0x2c(%ebp)
 804a68c:	c7 45 d8 6e 3b 00 00 	movl   $0x3b6e,-0x28(%ebp)
 804a693:	83 ec 08             	sub    $0x8,%esp
 804a696:	6a 01                	push   $0x1
 804a698:	6a 0d                	push   $0xd
 804a69a:	e8 a1 e1 ff ff       	call   8048840 <signal@plt>
 804a69f:	83 c4 10             	add    $0x10,%esp
 804a6a2:	83 ec 08             	sub    $0x8,%esp
 804a6a5:	6a 01                	push   $0x1
 804a6a7:	6a 1d                	push   $0x1d
 804a6a9:	e8 92 e1 ff ff       	call   8048840 <signal@plt>
 804a6ae:	83 c4 10             	add    $0x10,%esp
 804a6b1:	83 ec 08             	sub    $0x8,%esp
 804a6b4:	6a 01                	push   $0x1
 804a6b6:	6a 1d                	push   $0x1d
 804a6b8:	e8 83 e1 ff ff       	call   8048840 <signal@plt>
 804a6bd:	83 c4 10             	add    $0x10,%esp
 804a6c0:	83 ec 04             	sub    $0x4,%esp
 804a6c3:	6a 00                	push   $0x0
 804a6c5:	6a 01                	push   $0x1
 804a6c7:	6a 02                	push   $0x2
 804a6c9:	e8 c2 e2 ff ff       	call   8048990 <socket@plt>
 804a6ce:	83 c4 10             	add    $0x10,%esp
 804a6d1:	89 45 dc             	mov    %eax,-0x24(%ebp)
 804a6d4:	83 7d dc 00          	cmpl   $0x0,-0x24(%ebp)
 804a6d8:	79 51                	jns    804a72b <init_driver+0xcb>
 804a6da:	8b 45 c4             	mov    -0x3c(%ebp),%eax
 804a6dd:	c7 00 45 72 72 6f    	movl   $0x6f727245,(%eax)
 804a6e3:	c7 40 04 72 3a 20 43 	movl   $0x43203a72,0x4(%eax)
 804a6ea:	c7 40 08 6c 69 65 6e 	movl   $0x6e65696c,0x8(%eax)
 804a6f1:	c7 40 0c 74 20 75 6e 	movl   $0x6e752074,0xc(%eax)
 804a6f8:	c7 40 10 61 62 6c 65 	movl   $0x656c6261,0x10(%eax)
 804a6ff:	c7 40 14 20 74 6f 20 	movl   $0x206f7420,0x14(%eax)
 804a706:	c7 40 18 63 72 65 61 	movl   $0x61657263,0x18(%eax)
 804a70d:	c7 40 1c 74 65 20 73 	movl   $0x73206574,0x1c(%eax)
 804a714:	c7 40 20 6f 63 6b 65 	movl   $0x656b636f,0x20(%eax)
 804a71b:	66 c7 40 24 74 00    	movw   $0x74,0x24(%eax)
 804a721:	b8 ff ff ff ff       	mov    $0xffffffff,%eax
 804a726:	e9 3d 01 00 00       	jmp    804a868 <init_driver+0x208>
 804a72b:	83 ec 0c             	sub    $0xc,%esp
 804a72e:	ff 75 d4             	pushl  -0x2c(%ebp)
 804a731:	e8 6a e2 ff ff       	call   80489a0 <gethostbyname@plt>
 804a736:	83 c4 10             	add    $0x10,%esp
 804a739:	89 45 e0             	mov    %eax,-0x20(%ebp)
 804a73c:	83 7d e0 00          	cmpl   $0x0,-0x20(%ebp)
 804a740:	75 71                	jne    804a7b3 <init_driver+0x153>
 804a742:	8b 45 c4             	mov    -0x3c(%ebp),%eax
 804a745:	c7 00 45 72 72 6f    	movl   $0x6f727245,(%eax)
 804a74b:	c7 40 04 72 3a 20 44 	movl   $0x44203a72,0x4(%eax)
 804a752:	c7 40 08 4e 53 20 69 	movl   $0x6920534e,0x8(%eax)
 804a759:	c7 40 0c 73 20 75 6e 	movl   $0x6e752073,0xc(%eax)
 804a760:	c7 40 10 61 62 6c 65 	movl   $0x656c6261,0x10(%eax)
 804a767:	c7 40 14 20 74 6f 20 	movl   $0x206f7420,0x14(%eax)
 804a76e:	c7 40 18 72 65 73 6f 	movl   $0x6f736572,0x18(%eax)
 804a775:	c7 40 1c 6c 76 65 20 	movl   $0x2065766c,0x1c(%eax)
 804a77c:	c7 40 20 73 65 72 76 	movl   $0x76726573,0x20(%eax)
 804a783:	c7 40 24 65 72 20 61 	movl   $0x61207265,0x24(%eax)
 804a78a:	c7 40 28 64 64 72 65 	movl   $0x65726464,0x28(%eax)
 804a791:	66 c7 40 2c 73 73    	movw   $0x7373,0x2c(%eax)
 804a797:	c6 40 2e 00          	movb   $0x0,0x2e(%eax)
 804a79b:	83 ec 0c             	sub    $0xc,%esp
 804a79e:	ff 75 dc             	pushl  -0x24(%ebp)
 804a7a1:	e8 1a e2 ff ff       	call   80489c0 <close@plt>
 804a7a6:	83 c4 10             	add    $0x10,%esp
 804a7a9:	b8 ff ff ff ff       	mov    $0xffffffff,%eax
 804a7ae:	e9 b5 00 00 00       	jmp    804a868 <init_driver+0x208>
 804a7b3:	83 ec 08             	sub    $0x8,%esp
 804a7b6:	6a 10                	push   $0x10
 804a7b8:	8d 45 e4             	lea    -0x1c(%ebp),%eax
 804a7bb:	50                   	push   %eax
 804a7bc:	e8 5f e0 ff ff       	call   8048820 <bzero@plt>
 804a7c1:	83 c4 10             	add    $0x10,%esp
 804a7c4:	66 c7 45 e4 02 00    	movw   $0x2,-0x1c(%ebp)
 804a7ca:	8b 45 e0             	mov    -0x20(%ebp),%eax
 804a7cd:	8b 40 0c             	mov    0xc(%eax),%eax
 804a7d0:	89 c2                	mov    %eax,%edx
 804a7d2:	8b 45 e0             	mov    -0x20(%ebp),%eax
 804a7d5:	8b 40 10             	mov    0x10(%eax),%eax
 804a7d8:	8b 00                	mov    (%eax),%eax
 804a7da:	83 ec 04             	sub    $0x4,%esp
 804a7dd:	52                   	push   %edx
 804a7de:	8d 55 e4             	lea    -0x1c(%ebp),%edx
 804a7e1:	83 c2 04             	add    $0x4,%edx
 804a7e4:	52                   	push   %edx
 804a7e5:	50                   	push   %eax
 804a7e6:	e8 a5 e0 ff ff       	call   8048890 <bcopy@plt>
 804a7eb:	83 c4 10             	add    $0x10,%esp
 804a7ee:	8b 45 d8             	mov    -0x28(%ebp),%eax
 804a7f1:	0f b7 c0             	movzwl %ax,%eax
 804a7f4:	83 ec 0c             	sub    $0xc,%esp
 804a7f7:	50                   	push   %eax
 804a7f8:	e8 83 e0 ff ff       	call   8048880 <htons@plt>
 804a7fd:	83 c4 10             	add    $0x10,%esp
 804a800:	66 89 45 e6          	mov    %ax,-0x1a(%ebp)
 804a804:	83 ec 04             	sub    $0x4,%esp
 804a807:	6a 10                	push   $0x10
 804a809:	8d 45 e4             	lea    -0x1c(%ebp),%eax
 804a80c:	50                   	push   %eax
 804a80d:	ff 75 dc             	pushl  -0x24(%ebp)
 804a810:	e8 9b e1 ff ff       	call   80489b0 <connect@plt>
 804a815:	83 c4 10             	add    $0x10,%esp
 804a818:	85 c0                	test   %eax,%eax
 804a81a:	79 2d                	jns    804a849 <init_driver+0x1e9>
 804a81c:	83 ec 04             	sub    $0x4,%esp
 804a81f:	ff 75 d4             	pushl  -0x2c(%ebp)
 804a822:	8d 83 94 df ff ff    	lea    -0x206c(%ebx),%eax
 804a828:	50                   	push   %eax
 804a829:	ff 75 c4             	pushl  -0x3c(%ebp)
 804a82c:	e8 3f e1 ff ff       	call   8048970 <sprintf@plt>
 804a831:	83 c4 10             	add    $0x10,%esp
 804a834:	83 ec 0c             	sub    $0xc,%esp
 804a837:	ff 75 dc             	pushl  -0x24(%ebp)
 804a83a:	e8 81 e1 ff ff       	call   80489c0 <close@plt>
 804a83f:	83 c4 10             	add    $0x10,%esp
 804a842:	b8 ff ff ff ff       	mov    $0xffffffff,%eax
 804a847:	eb 1f                	jmp    804a868 <init_driver+0x208>
 804a849:	83 ec 0c             	sub    $0xc,%esp
 804a84c:	ff 75 dc             	pushl  -0x24(%ebp)
 804a84f:	e8 6c e1 ff ff       	call   80489c0 <close@plt>
 804a854:	83 c4 10             	add    $0x10,%esp
 804a857:	8b 45 c4             	mov    -0x3c(%ebp),%eax
 804a85a:	66 c7 00 4f 4b       	movw   $0x4b4f,(%eax)
 804a85f:	c6 40 02 00          	movb   $0x0,0x2(%eax)
 804a863:	b8 00 00 00 00       	mov    $0x0,%eax
 804a868:	8b 4d f4             	mov    -0xc(%ebp),%ecx
 804a86b:	65 33 0d 14 00 00 00 	xor    %gs:0x14,%ecx
 804a872:	74 05                	je     804a879 <init_driver+0x219>
 804a874:	e8 17 01 00 00       	call   804a990 <__stack_chk_fail_local>
 804a879:	8b 5d fc             	mov    -0x4(%ebp),%ebx
 804a87c:	c9                   	leave  
 804a87d:	c3                   	ret    

0804a87e <driver_post>:
 804a87e:	55                   	push   %ebp
 804a87f:	89 e5                	mov    %esp,%ebp
 804a881:	53                   	push   %ebx
 804a882:	83 ec 14             	sub    $0x14,%esp
 804a885:	e8 1f ea ff ff       	call   80492a9 <__x86.get_pc_thunk.ax>
 804a88a:	05 76 27 00 00       	add    $0x2776,%eax
 804a88f:	83 7d 14 00          	cmpl   $0x0,0x14(%ebp)
 804a893:	74 2a                	je     804a8bf <driver_post+0x41>
 804a895:	83 ec 08             	sub    $0x8,%esp
 804a898:	ff 75 10             	pushl  0x10(%ebp)
 804a89b:	8d 90 ba df ff ff    	lea    -0x2046(%eax),%edx
 804a8a1:	52                   	push   %edx
 804a8a2:	89 c3                	mov    %eax,%ebx
 804a8a4:	e8 47 df ff ff       	call   80487f0 <printf@plt>
 804a8a9:	83 c4 10             	add    $0x10,%esp
 804a8ac:	8b 45 18             	mov    0x18(%ebp),%eax
 804a8af:	66 c7 00 4f 4b       	movw   $0x4b4f,(%eax)
 804a8b4:	c6 40 02 00          	movb   $0x0,0x2(%eax)
 804a8b8:	b8 00 00 00 00       	mov    $0x0,%eax
 804a8bd:	eb 5a                	jmp    804a919 <driver_post+0x9b>
 804a8bf:	83 7d 08 00          	cmpl   $0x0,0x8(%ebp)
 804a8c3:	74 43                	je     804a908 <driver_post+0x8a>
 804a8c5:	8b 55 08             	mov    0x8(%ebp),%edx
 804a8c8:	0f b6 12             	movzbl (%edx),%edx
 804a8cb:	0f b6 d2             	movzbl %dl,%edx
 804a8ce:	85 d2                	test   %edx,%edx
 804a8d0:	74 36                	je     804a908 <driver_post+0x8a>
 804a8d2:	ff 75 18             	pushl  0x18(%ebp)
 804a8d5:	ff 75 10             	pushl  0x10(%ebp)
 804a8d8:	8d 90 d1 df ff ff    	lea    -0x202f(%eax),%edx
 804a8de:	52                   	push   %edx
 804a8df:	ff 75 0c             	pushl  0xc(%ebp)
 804a8e2:	ff 75 08             	pushl  0x8(%ebp)
 804a8e5:	8d 90 d5 df ff ff    	lea    -0x202b(%eax),%edx
 804a8eb:	52                   	push   %edx
 804a8ec:	68 6e 3b 00 00       	push   $0x3b6e
 804a8f1:	8d 80 87 df ff ff    	lea    -0x2079(%eax),%eax
 804a8f7:	50                   	push   %eax
 804a8f8:	e8 5c f5 ff ff       	call   8049e59 <submitr>
 804a8fd:	83 c4 20             	add    $0x20,%esp
 804a900:	89 45 f4             	mov    %eax,-0xc(%ebp)
 804a903:	8b 45 f4             	mov    -0xc(%ebp),%eax
 804a906:	eb 11                	jmp    804a919 <driver_post+0x9b>
 804a908:	8b 45 18             	mov    0x18(%ebp),%eax
 804a90b:	66 c7 00 4f 4b       	movw   $0x4b4f,(%eax)
 804a910:	c6 40 02 00          	movb   $0x0,0x2(%eax)
 804a914:	b8 00 00 00 00       	mov    $0x0,%eax
 804a919:	8b 5d fc             	mov    -0x4(%ebp),%ebx
 804a91c:	c9                   	leave  
 804a91d:	c3                   	ret    
 804a91e:	66 90                	xchg   %ax,%ax

0804a920 <__libc_csu_init>:
 804a920:	55                   	push   %ebp
 804a921:	57                   	push   %edi
 804a922:	56                   	push   %esi
 804a923:	53                   	push   %ebx
 804a924:	e8 17 e1 ff ff       	call   8048a40 <__x86.get_pc_thunk.bx>
 804a929:	81 c3 d7 26 00 00    	add    $0x26d7,%ebx
 804a92f:	83 ec 0c             	sub    $0xc,%esp
 804a932:	8b 6c 24 28          	mov    0x28(%esp),%ebp
 804a936:	8d b3 04 ff ff ff    	lea    -0xfc(%ebx),%esi
 804a93c:	e8 53 de ff ff       	call   8048794 <_init>
 804a941:	8d 83 00 ff ff ff    	lea    -0x100(%ebx),%eax
 804a947:	29 c6                	sub    %eax,%esi
 804a949:	c1 fe 02             	sar    $0x2,%esi
 804a94c:	85 f6                	test   %esi,%esi
 804a94e:	74 25                	je     804a975 <__libc_csu_init+0x55>
 804a950:	31 ff                	xor    %edi,%edi
 804a952:	8d b6 00 00 00 00    	lea    0x0(%esi),%esi
 804a958:	83 ec 04             	sub    $0x4,%esp
 804a95b:	55                   	push   %ebp
 804a95c:	ff 74 24 2c          	pushl  0x2c(%esp)
 804a960:	ff 74 24 2c          	pushl  0x2c(%esp)
 804a964:	ff 94 bb 00 ff ff ff 	call   *-0x100(%ebx,%edi,4)
 804a96b:	83 c7 01             	add    $0x1,%edi
 804a96e:	83 c4 10             	add    $0x10,%esp
 804a971:	39 fe                	cmp    %edi,%esi
 804a973:	75 e3                	jne    804a958 <__libc_csu_init+0x38>
 804a975:	83 c4 0c             	add    $0xc,%esp
 804a978:	5b                   	pop    %ebx
 804a979:	5e                   	pop    %esi
 804a97a:	5f                   	pop    %edi
 804a97b:	5d                   	pop    %ebp
 804a97c:	c3                   	ret    
 804a97d:	8d 76 00             	lea    0x0(%esi),%esi

0804a980 <__libc_csu_fini>:
 804a980:	f3 c3                	repz ret 
 804a982:	66 90                	xchg   %ax,%ax
 804a984:	66 90                	xchg   %ax,%ax
 804a986:	66 90                	xchg   %ax,%ax
 804a988:	66 90                	xchg   %ax,%ax
 804a98a:	66 90                	xchg   %ax,%ax
 804a98c:	66 90                	xchg   %ax,%ax
 804a98e:	66 90                	xchg   %ax,%ax

0804a990 <__stack_chk_fail_local>:
 804a990:	53                   	push   %ebx
 804a991:	e8 aa e0 ff ff       	call   8048a40 <__x86.get_pc_thunk.bx>
 804a996:	81 c3 6a 26 00 00    	add    $0x266a,%ebx
 804a99c:	83 ec 08             	sub    $0x8,%esp
 804a99f:	e8 cc de ff ff       	call   8048870 <__stack_chk_fail@plt>

Disassembly of section .fini:

0804a9a4 <_fini>:
 804a9a4:	53                   	push   %ebx
 804a9a5:	83 ec 08             	sub    $0x8,%esp
 804a9a8:	e8 93 e0 ff ff       	call   8048a40 <__x86.get_pc_thunk.bx>
 804a9ad:	81 c3 53 26 00 00    	add    $0x2653,%ebx
 804a9b3:	83 c4 08             	add    $0x8,%esp
 804a9b6:	5b                   	pop    %ebx
 804a9b7:	c3                   	ret    
